kj:_glClearStencil
Moj:__ZN35AssemblyCompanyAttribute_t90925751210set_name_0EP8String_t
kAl:_UInt16_System_IConvertible_ToChar_m2096055221_AdjustorThunk
BFg:_MaskableGraphic_OnCanvasHierarchyChanged_m1780820310
fak:_Array_TrueForAll_TisRuntimeObject_m1084992726_gshared
WJm:__ZN19X509Crl_t114876738816set_extensions_7EP34X509ExtensionCollection_t609554709
d_j:__Z25Il2CppCodeGenWriteBarrierI27CompressedStack_t1202932761EvPPT_S2_
pdk:__ZNK24Vector4U5BU5D_t93405643614GetAtUncheckedEj
LCo:__ZN6il2cpp2vm5Array13GetByteLengthEP11Il2CppArray
hKl:_Array_InternalArray__set_Item_TisDateTime_t3738529785_m1331437427_gshared
v2m:_KeyBuilder_get_Rng_m3373220441
avl:_ThreadAbortException__ctor_m1955533141
yBf:_CompilerGeneratedAttribute__ctor_m3151881902
PHd:__ZN15DownloadHandler7OnAbortEv
kan:__ZNK44U3CChangeJumpSpeedU3Ec__Iterator0_t39983647216get_U24current_2Ev
col:__Z37RuntimeInvoker_Enumerator_t1666852615PFvvEPK10MethodInfoPvPS4_
sha:__ZN9Scripting11UnityEngine38ExcludeFromObjectFactoryAttributeProxy12CleanupProxyEv
Ewl:__Z35GenericComparer_1__ctor_m3652072706P29GenericComparer_1_t2877759089PK10MethodInfo
XMe:__ZL51AIUpdate_t2336814084_CustomAttributesCacheGeneratorP21CustomAttributesCache
xqa:__Z30GetIntermediateRendererManagerv
HZg:_InternalEnumerator_1_System_Collections_IEnumerator_Reset_m1223176161_gshared
Tea:__ZN9Scripting11UnityEngine9Profiling13RecorderProxy9InitProxyEv
fKa:__Z21SourceMipLevelForBlitiiii
fGa:__Z23SetSpriteMeshIndexCountP14SharedMeshDataj
Jkk:__ZNK21Dictionary_2_t338474112get_count_10Ev
hYe:__ZL72GUISkin_t1244372282_CustomAttributesCacheGenerator_m_verticalSliderThumbP21CustomAttributesCache
Swi:__ZNK51RSASslSignatureDeformatter_t3558097625_StaticFields29get_U3CU3Ef__switchU24map15_2Ev
h9b:__ZN9ShaderLab9SubShader15FindNamedPassesERKN4core12basic_stringIcNS1_20StringStorageDefaultIcEEEER13dynamic_arrayIPNS_4PassELj0EE
M6f:__ZNK26PlayableHandle_t109585380315get_m_Version_1Ev
CRe:__ZL63PlayableOutputHandle_t4208053793_CustomAttributesCacheGeneratorP21CustomAttributesCache
YN:__ZN11UnityEngine15CloudWebService26CloudServiceEventWithParam12ToJsonStringER9JSONWrite
I0d:_CanvasScaler_get_defaultSpriteDPI_m871626936
m2m:__ZN22TextEditor_t275985536619set_m_SelectIndex_9Ei
YTn:__ZNK15dense_hashtableINSt3__24pairIK10KeyWrapperIPK19Il2CppGenericMethodEPK26Il2CppGenericMethodIndicesEES6_N6il2cpp8metadata23Il2CppGenericMethodHashEN14dense_hash_mapIS6_SA_SE_NS6_14EqualsComparerINSD_26Il2CppGenericMethodCompareEEENS0_9allocatorISB_EEE9SelectKeyESI_SK_E10test_emptyEj
sjc:__Z59Register_UnityEngine_PlayerConnectionInternal_DisconnectAllv
ivm:__ZNK24Collection_1_t189530167114get_syncRoot_1Ev
qme:__ZL66RuntimeArray_CustomAttributesCacheGenerator_Array_Sort_m3287581440P21CustomAttributesCache
Adn:_AnalyticsEventTracker_SendEvent_m1365958832
AS:__ZdlPv
AHe:__ZL54Application_t1852185770_CustomAttributesCacheGeneratorP21CustomAttributesCache
vs:__ZN11UnityEngine9Animation28GenericAnimationBindingCacheD2Ev
Crl:_UTF8Encoding_GetHashCode_m641510078
nCm:__ZN26X509Certificate_t48924302513set_m_until_3E20DateTime_t3738529785
LKm:_X509Store_LoadCrl_m1881903843
gMl:_Array_Sort_TisUICharInfo_t75501106_TisUICharInfo_t75501106_m722747892_gshared
BEg:__Z26ListPool_1_Get_m4207191750P12Il2CppObjectPK10MethodInfo
Wci:_CaseInsensitiveComparer__ctor_m2101975011
rJm:__ZNK22X509Stores_t137393623716get__storePath_0Ev
F_k:__Z67RuntimeInvoker_Byte_t1134296376_Int32_t2950945753_Int32_t2950945753PFvvEPK10MethodInfoPvPS4_
Utl:__ZNK32RegisteredWaitHandle_t152953845415get__callback_2Ev
gZk:__Z53RuntimeInvoker_UInt32_t2560061978_Decimal_t2948259380PFvvEPK10MethodInfoPvPS4_
s8e:__ZL59GameManager_t1536523654_CustomAttributesCacheGenerator_shipP21CustomAttributesCache
r_b:__Z18RestoreRenderStateR20CameraRenderOldStateR17ShaderPassContext
lsd:__ZN4core8hash_setINS_4pairIKN4math12int2_storageEPN19TilemapRendererJobs18TilemapRenderChunkELb0EEENS_9hash_pairINS5_22TilemapRenderChunkHashES4_S7_EENS_10equal_pairINSt3__28equal_toIS3_EES4_S7_EEE4growEi
jsg:__Z25Il2CppCodeGenWriteBarrierI29AnimationTriggers_t2532145056EvPPT_S2_
cnb:__Z18Transfer_BlittableI24GenerateTypeTreeTransferLb0E11ColorRGBA32EvRK29SerializationCommandArgumentsR31RuntimeSerializationCommandInfo
wea:__ZN9Scripting11UnityEngine9Rendering23GraphicsDeviceTypeProxy12CleanupProxyEv
stb:__Z25scripting_class_from_name17ScriptingImagePtrPKcS1_
wJl:_Array_InternalArray__Insert_TisSingle_t1397266774_m3161726127_gshared
Ngo:__ZN14dense_hash_mapI10KeyWrapperINSt3__24pairIPK12PropertyInfoP11Il2CppClassEEEj17ReflectionMapHashIS8_ENS9_14EqualsComparerINS1_8equal_toIS8_EEEENS1_9allocatorINS2_IKS9_jEEEEE15set_deleted_keyERSH_
jvb:__Z29scripting_class_enum_basetype17ScriptingClassPtr
eqo:__ZN6il2cpp2vm22EmbeddedResourceRecordC2EOS1_
hqm:_List_1_Clear_m3097985365_gshared
v3n:__ZN6il2cpp6icalls8mscorlib6System12PropertyPairC2EPK12PropertyInfoP11Il2CppClass
VEo:__GLOBAL__sub_I_Console_cpp
z2i:_OidCollection_get_SyncRoot_m3531934854
LEc:__ZN6IDList10BeginOnGUIEv
Wmc:__Z18RegisterUnityClassI11TimeManagerEvPKc
spa:__ZNK12BaseRenderer18GetRenderNodeCountEv
zTc:__ZN16PhysicsManager2D7RaycastERK3RayfiR12RaycastHit2D
jsn:__ZN30GenericInterfaceActionInvoker1IP24SingleU5BU5D_t1444911251E6InvokeEPK10MethodInfoP12Il2CppObjectS1_
K9e:__ZL112U3CWalkingU3Ec__Iterator0_t1552655139_CustomAttributesCacheGenerator_U3CWalkingU3Ec__Iterator0_Reset_m1048761852P21CustomAttributesCache
Uof:_PropertyBuilder_get_CanWrite_m2657562188
eqn:__ZN32Vector3_t3722313464_StaticFields29set_positiveInfinityVector_13E19Vector3_t3722313464
rKk:__ZN47MSCompatUnicodeTableUtil_t88013251_StaticFields12set_Level3_4EP28CodePointIndexer_t4134431086
Ugh:_InternalEnumerator_1_get_Current_m1477715453_gshared
R$l:_ReadOnlyCollection_1_get_Item_m3865786060_gshared
iAk:_Enumerator__ctor_m2827156589_AdjustorThunk
o5a:__ZNK20LocalFileSystemPosix6ParentERK13FileEntryDataRN4core12basic_stringIcNS3_20StringStorageDefaultIcEEEE
_Ke:__ZL118TouchScreenKeyboard_t731888065_CustomAttributesCacheGenerator_TouchScreenKeyboard_Open_m3609399077____textPlaceholder6P21CustomAttributesCache
Rqd:__ZN17TileAnimationData8TransferI24GenerateTypeTreeTransferEEvRT_
xzh:__ZNK29ProcessMessageRes_t371054714517get_arrResponse_0Ev
UWf:__ZNK35DSASignatureDeformatter_t36779551729get_dsa_0Ev
hRl:_Collection_1_System_Collections_IList_Remove_m1476284619_gshared
uIk:_ContractionComparer__ctor_m3439667810
ilj:_MonoType_IsPrimitiveImpl_m2401722705
nSj:_SHA1CryptoServiceProvider__ctor_m4195188793
Knn:__ZN39UnitySynchronizationContext_t188745378620set_m_MainThreadID_2Ei
LCe:__ZL64MissingFieldException_t1989070983_CustomAttributesCacheGeneratorP21CustomAttributesCache
Zko:__GLOBAL__sub_I_Thread_cpp
S9d:_Dropdown_Hide_m504034854
ZFm:_DeriveBytes_set_HashName_m3612196732
Jmj:_NumberFormatter_NumberToString_m264078176
FKf:__ZN25TypeTagU5BU5D_t156391866414SetAtUncheckedEjh
cFb:__ZN7ApiGLES17CopyBufferSubDataEjjlll
ahk:_Array_InternalArray__ICollection_CopyTo_TisUInt64_t4134040092_m691431926_gshared
gzj:__ZN43DateTimeFormatInfo_t2405853701_StaticFields36set_theInvariantDateTimeFormatInfo_9EP30DateTimeFormatInfo_t2405853701
X_i:_IPAddress_ToString_m1181734207
hRh:_MonoMethodMessage_GetArg_m2932717642
zpl:_StringBuilder_Append_m1965104174
$Nc:__ZN5Unity9rapidjson15GenericDocumentINS0_4UTF8IcEE13JSONAllocatorS4_E11ParseStreamILj1ES3_NS0_25GenericInsituStringStreamIS3_EEEERS5_RT1_
gPn:__ZNSt3__26vectorIPK10Il2CppTypeNS_9allocatorIS3_EEE7reserveEj
j_j:__ZN37SecurityCriticalAttribute_t227932284412set__scope_0Ei
Bcm:_UnityAction_1_Invoke_m610765085_gshared
Z3h:_Array_GetValue_m116098292
k_i:__ZNK20IPAddress_t24177759015get_m_Numbers_2Ev
ggi:_Kernel_modInverse_m652700340
SOa:__ZNK14Texture2DArray26CanReuploadDataToGfxDeviceEv
U6l:_U3CCreateWhereIteratorU3Ec__Iterator1D_1_System_Collections_Generic_IEnumeratorU3CTSourceU3E_get_Current_m1909387290_gshared
BPn:_ITilemap_CreateInstance_m2624613551
a_e:__ZL57CanvasRenderer_t2598313366_CustomAttributesCacheGeneratorP21CustomAttributesCache
Pna:__ZN17GlobalGameManager23VirtualRedirectTransferER17RemapPPtrTransfer
kkd:_sfnt_stream_close
jFc:__ZN5IMGUI18RepaintModalWindowER8GUIState
Xym:__ZNK28SslHandshakeHash_t210758177217get_innerPadMD5_8Ev
pUi:_HybridDictionary_get_IsSynchronized_m2987560362
ota:__ZNK15dense_hashtableINSt3__24pairIKN9ShaderLab7Program23ShaderKeywordSetAndHashEPKNS2_10SubProgramEEES4_NS3_24ShaderKeywordHashFunctorEN14dense_hash_mapIS4_S8_SA_NS0_8equal_toIS4_EE13stl_allocatorIS9_L18MemLabelIdentifier67ELi16EEE9SelectKeyESD_SG_E23find_position_with_hashERS5_j
sQk:__ZN16ASN1_t211416083211set_elist_2EP21ArrayList_t2718874744
JAj:_CompareInfo_Finalize_m404687489
fud:__ZN31CanvasBatchIntermediateRenderer15AddAsRenderNodeER15RenderNodeQueueRK20DeprecatedSourceData
Frl:_UTF8Decoder_GetChars_m1236346907
wig:_Quaternion_GetHashCode_m2636680144_AdjustorThunk
z4g:__ZN32InternalEnumerator_1_t281129360011set_array_0EP11Il2CppArray
bXe:__ZL99AudioSource_t3935305588_CustomAttributesCacheGenerator_AudioSource_t3935305588____clip_PropertyInfoP21CustomAttributesCache
WHo:__ZN6il2cpp8metadata13GenericMethod9GetMethodEPK19Il2CppGenericMethod
Xq:__ZNSt3__26vectorIN4core12basic_stringIcNS1_20StringStorageDefaultIcEEEENS_9allocatorIS5_EEE7reserveEj
Deg:__Z31UnityAction_1__ctor_m1210528642P25UnityAction_1_t1755411925P12Il2CppObjectiPK10MethodInfo
sqj:_Default_SelectProperty_m1220817815
dbh:_InternalEnumerator_1_System_Collections_IEnumerator_Reset_m996811230_gshared
Aqg:_Transform_TransformPoint_m226827784
pmn:_ListPool_1_Get_m738675669_gshared
Iwl:_TimeSpan_get_Hours_m550761902
ZAb:__ZN13GfxDeviceGLES11SetViewportERK5RectTIiE
Kyn:__ZL25UnresolvedVirtualCall_178P12Il2CppObjectfaPK10MethodInfo
hLo:__ZN6il2cpp2vm13ComObjectBaseC2EP12Il2CppObject
eYd:__ZNK33StandaloneInputModule_t276046910126get_m_ForceModuleActive_29Ev
Sf:_emscripten_glDepthRange
aAm:_SslStreamBase_BeginNegotiateHandshake_m4180435790
u1b:__ZNSt3__26vectorINS_4pairIN4core12basic_stringIcNS2_20StringStorageDefaultIcEEEES6_EE13stl_allocatorIS7_L18MemLabelIdentifier38ELi16EEE12__move_rangeEPS7_SC_SC_
O5b:__Z14resize_trimmedINSt3__26vectorIN9ShaderLab20SerializedSubProgram12UAVParameterENS0_9allocatorIS4_EEEEEvRT_j
sOc:__ZN5Unity9rapidjson13GenericReaderINS0_4UTF8IcEES3_13JSONAllocatorE11ParseObjectILj1ENS0_25GenericInsituStringStreamIS3_EENS0_15GenericDocumentIS3_S4_S4_EEEEvRT0_RT1_
lq:__ZN6Object23VirtualRedirectTransferER19StreamedBinaryWrite
T2g:__ZN32InternalEnumerator_1_t126723150811set_array_0EP11Il2CppArray
SEj:__ZNK27NumberFormatInfo_t43587713821get_perMilleSymbol_28Ev
v5e:__ZL62Selectable_t3250028441_CustomAttributesCacheGenerator_m_ColorsP21CustomAttributesCache
xGi:_Convert_ToDateTime_m2616935982
ZAm:_SslStreamBase_EndWrite_m4073224031
I$:__ZNSt3__218__insertion_sort_3IRNS_6__lessI14ObjectLoadDataS2_EEPS2_EEvT0_S6_T_
KPi:__ZN20Delegate_t118839281317set_method_info_6EP12MethodInfo_t
cOg:__ZNK41U3CClickRepeatU3Ec__Iterator0_t344264893516get_U24current_2Ev
EJa:__ZN4crndL20crnd_default_reallocEPvjPjbS0_
vml:__Z54RuntimeInvoker_CustomAttributeNamedArgument_t287865710PFvvEPK10MethodInfoPvPS4_
wSe:__ZL122SupportedRenderingFeatures_t353898663_CustomAttributesCacheGenerator_U3CrendererSupportsReflectionProbesU3Ek__BackingFieldP21CustomAttributesCache
Lfo:__ZN15dense_hashtableINSt3__24pairIK10KeyWrapperIPK22Il2CppGenericParameterEPK24MonoGenericParameterInfoEES6_N6il2cpp5utils11PointerHashIS4_EEN14dense_hash_mapIS6_SA_SF_NS6_14EqualsComparerINS0_8equal_toIS5_EEEENS0_9allocatorISB_EEE9SelectKeyESK_SM_E13set_empty_keyERKSB_
uHa:__ZN18SpriteAtlasManager19AddRequestingSpriteE4PPtrI6SpriteE
C8l:_Predicate_1_EndInvoke_m3987519925_gshared
MD:__ZNK4PPtrI9AudioClipEptEv
iSj:_UnmanagedMemoryStream_Write_m930787521
xZb:__ZN23ScriptableRenderContextC2Ev
gge:_GridLayoutGroup_get_spacing_m2409263614
Q6i:__ZNK38X509Certificate2Enumerator_t331671381216get_enumerator_0Ev
Dnm:__ZN18List_1_t123460505112set__items_1EP26UIVertexU5BU5D_t1981460040
zlg:_Transform_get_parent_m835071599
jld:_UNITY_FT_Stream_GetChar
t$m:_GUIStyle_get_fixedWidth_m2576616348
fnn:_ObjectPool_1_get_countAll_m819305395_gshared
sCk:__ZNK18List_1_t407257603411get__size_2Ev
nlm:_List_1_ToArray_m190175978_gshared
dyn:__ZL25UnresolvedVirtualCall_145P12Il2CppObject34ScriptableRenderContext_t274343796S0_PK10MethodInfo
t7h:_Byte_System_IConvertible_ToUInt64_m371883985_AdjustorThunk
LKk:__ZNK26SimpleCollator_t287783472918get_unsafeFlags_12Ev
qvb:__Z26BuildSerializationCacheFor17ScriptingClassPtrRb
oxn:__ZL25UnresolvedVirtualCall_102P12Il2CppObject28StreamingContext_t3711869237PK10MethodInfo
hPd:_EventSystem_get_firstSelectedGameObject_m1576206896
YGb:__ZN7ApiGLES15BlitFramebufferEN2gl6HandleILNS0_10ObjectTypeE9EEENS0_15FramebufferReadES3_S3_iiiiiiiiNS0_15FramebufferTypeE
qjo:_il2cpp_class_get_name
L7k:__Z112RuntimeInvoker_RuntimeObject_RuntimeObject_RuntimeObject_RuntimeObject_RuntimeObject_RuntimeObject_RuntimeObjectPFvvEPK10MethodInfoPvPS4_
pfh:_InternalEnumerator_1_System_Collections_IEnumerator_get_Current_m3553395619_AdjustorThunk
Voe:__ZL70AssemblyVersionCompatibility_t766556580_CustomAttributesCacheGeneratorP21CustomAttributesCache
ZQe:__ZL60ReadOnlyAttribute_t3518714744_CustomAttributesCacheGeneratorP21CustomAttributesCache
Q3h:_Array_SetValue_m3998268557
BHh:_ServerContextTerminatorSink__ctor_m2519287841
L2d:_ColorBlock_set_highlightedColor_m2089444414_AdjustorThunk
uil:__Z59RuntimeInvoker_Boolean_t97287965_X509ChainStatus_t133602714PFvvEPK10MethodInfoPvPS4_
SCk:__Z65Enumerator_System_Collections_IEnumerator_get_Current_m3405349194P22Enumerator_t2426658172PK10MethodInfo
Epf:__ZN23TypeBuilder_t107394815414set_methods_14EP31MethodBuilderU5BU5D_t3705301900
L7j:_Array_get_swapper_TisColor32_t2600501292_m2310851009_gshared
wBb:__ZN13GfxDeviceGLES35InitializeGPUSkinPoseBufferInternalEP17GPUSkinPoseBuffer
khd:_otv_PairPos_validate
Mze:__ZL63ThreadStateException_t3003788475_CustomAttributesCacheGeneratorP21CustomAttributesCache
D3n:__ZN6il2cpp6icalls8mscorlib6SystemL8IsStaticEPK12PropertyInfo
Sxb:__Z9InitInputv
Efo:__ZN30dense_hashtable_const_iteratorINSt3__24pairIK10KeyWrapperIPK22Il2CppGenericParameterEPK24MonoGenericParameterInfoEES6_N6il2cpp5utils11PointerHashIS4_EEN14dense_hash_mapIS6_SA_SF_NS6_14EqualsComparerINS0_8equal_toIS5_EEEENS0_9allocatorISB_EEE9SelectKeyESK_SM_E30advance_past_empty_and_deletedEv
Mpc:__Z23ClearVertexDataChannelsjj17ShaderChannelMaskR10VertexData
ZSo:__ZNSt3__26__treeINS_12__value_typeINS_12basic_stringIcNS_11char_traitsIcEENS_9allocatorIcEEEEPFvvEEENS_19__map_value_compareIS7_SA_NS_4lessIS7_EELb1EEENS5_ISA_EEE13__lower_boundIS7_EENS_15__tree_iteratorISA_PNS_11__tree_nodeISA_PvEEiEERKT_SM_PNS_15__tree_end_nodeIPNS_16__tree_node_baseISK_EEEE
ghi:__ZN16VirtFuncInvoker2IP22BigInteger_t2902905090iP12Il2CppObjectE6InvokeEjS3_iS3_
nqb:__Z29Transfer_Blittable_ArrayFieldI19StreamedBinaryWrite8Vector4fEvRT_R9ArrayInfoRK23StaticTransferFieldInfo
Czj:__ZN30DateTimeFormatInfo_t240585370140set__UniversalSortableDateTimePattern_24EP8String_t
l9a:__ZN16MemoryFileSystem6DeleteER13FileEntryDatab
Y1k:__Z81RuntimeInvoker_Void_t1185182177_RuntimeObject_Int64_t3736567304_Int32_t2950945753PFvvEPK10MethodInfoPvPS4_
Unh:__ZN22Enumerator_t195756751624get_address_of_current_3Ev
hgm:_List_1_set_Item_m1979164443_gshared
nfk:_Array_InternalArray__ICollection_Add_TisLink_t3209266973_m77922316_gshared
v6h:_Boolean_System_IConvertible_ToUInt16_m3465173538_AdjustorThunk
jvg:_InputField_get_keyboardType_m1248105267
$ib:__Z29Transfer_Blittable_ArrayFieldI14SafeBinaryReadyEvRT_R9ArrayInfoRK23StaticTransferFieldInfo
TD:__ZN20SoundChannelInstance15setChannelGroupEPN4FMOD12ChannelGroupE
JNm:_Match__ctor_m2425511580
L9c:__ZN9Scripting11UnityEngine18CharacterInfoProxy9InitProxyEv
Zpe:__ZL63FileNotFoundException_t225391025_CustomAttributesCacheGeneratorP21CustomAttributesCache
Tin:__Z24List_1_Clear_m2188935509P18List_1_t3628304265PK10MethodInfo
Eb:invoke_vifffii
E8a:__ZN20ArchiveStorageReader17MakeStorageUnusedEv
Guf:_MonoMethod__ctor_m3792454563
I7a:__ZNK25MultiBlocksMemoryFileData5CloneEv
W0g:_InternalEnumerator_1_System_Collections_IEnumerator_Reset_m3873091784_AdjustorThunk
yPo:_GC_add_ext_descriptor
r6n:__ZNK15dense_hashtableINSt3__24pairIK10KeyWrapperINS1_IPK14Il2CppAssemblyP11Il2CppClassEEEjEES9_17ReflectionMapHashIS8_EN14dense_hash_mapIS9_jSD_NS9_14EqualsComparerINS0_8equal_toIS8_EEEENS0_9allocatorISB_EEE9SelectKeyESI_SK_E23find_position_with_hashERSA_j
yFm:__ZN18PKCS12_t410153306114set__keyBags_2EP21ArrayList_t2718874744
YOl:_LayoutGroup_SetProperty_TisSingle_t1397266774_m793506911_gshared
qLo:__ZN6il2cpp2os14WindowsRuntime22GetRestrictedErrorInfoEv
lyj:__Z25Il2CppCodeGenWriteBarrierI26SimpleCollator_t2877834729EvPPT_S2_
NTf:_CryptoConfig_CreateFromName_m1538277313
orn:_WaitForEndOfFrame__ctor_m1381314187
bof:__ZN31OpCodes_t126150456_StaticFields15set_Prefix7_191E17OpCode_t123070264
F9d:__Z36TweenRunner_1_StartTween_m1055628540P25TweenRunner_1_t352024108222FloatTween_t1274330004PK10MethodInfo
R6a:__ZN17ArchiveFileSystem11CreateAsDirER13FileEntryData
m1o:dynCall_iiiiiiiiiiii
Ouo:__ZNK24dense_hashtable_iteratorINSt3__24pairIK10KeyWrapperIP14Il2CppIUnknownEjEES5_N6il2cpp5utils11PointerHashIS3_EEN14dense_hash_mapIS5_jSB_NS5_14EqualsComparerINS0_8equal_toIS4_EEEENS0_9allocatorIS7_EEE9SelectKeyESG_SI_EneERKSL_
Bvg:_InputField_set_caretPositionInternal_m3823580651
wAd:__ZN18UnityConnectClient16IsServiceEnabledEv
x2f:__ZN24CullingGroup_t209631876822set_m_OnStateChanged_1EP24StateChanged_t2136737110
L9a:__ZN22VertexDeclarationCacheD0Ev
FOg:_Selectable_set_interactable_m3105888815
i2a:__ZL26KeywordSetToStringDontSortRKNSt3__26vectorIN4core12basic_stringIcNS1_20StringStorageDefaultIcEEEENS_9allocatorIS5_EEEERS5_
S7:__ZN6prcoreL17RemapGenericFloatI16TexFormatRGFloat17TexFormatRGBAHalfEEvPKNS_9InnerInfoE
kig:__ZNK22Quaternion_t23019283317get_z_2Ev
RF:__ZN12AudioManager22CreateFMODSoundFromWWWEP10IWWWStream15FMOD_SOUND_TYPE17FMOD_SOUND_FORMATjjbbP10SampleClip
Wgc:__ZNK32RendererMaterialAnimationBinding15GenerateBindingERKN4core12basic_stringIcNS0_20StringStorageDefaultIcEEEEbRN11UnityEngine9Animation14GenericBindingE
vxf:_TargetException__ctor_m4172127019
QRi:__ZNK22StackTrace_t159864545716get_debug_info_2Ev
mpd:__GLOBAL__sub_I_TilemapScriptingClasses_cpp
dkm:_List_1_CheckCollection_m274117203_gshared
lga:__ZN9Scripting11UnityEngine21GradientAlphaKeyProxy9InitProxyEv
UZ:__ZN8Remapper23GetOrGenerateInstanceIDERK26SerializedObjectIdentifier
U3d:_ColorTween_get_startColor_m3792586410_AdjustorThunk
Z3a:__ZN17FileSystemHandler10AtomicMoveER13FileEntryDataS1_
e$e:__ZL105TrackableField_t1772682203_CustomAttributesCacheGenerator_TrackableField__ctor_m3758796351____validTypes0P21CustomAttributesCache
YHf:_BinaryFormatter_get_SurrogateSelector_m2111882017
R2n:__ZNSt3__26__treeIP11Il2CppClassNS_4lessIS2_EENS_9allocatorIS2_EEE12__find_equalIS2_EERPNS_16__tree_node_baseIPvEERPNS_15__tree_end_nodeISC_EERKT_
tT:__ZN9profiling21GetProfilerManagerPtrEv
$zd:__ZN9Scripting11UnityEngine25RemoteConfigSettingsProxy9InitProxyEv
eej:_CustomInfo__ctor_m426096741
ZPd:_EventSystem_ToString_m3779610692
dAl:__ZNK26TypedReference_t149110811910get_type_0Ev
sxi:_RecordProtocol_BeginReceiveRecord_m295321170
zGa:__ZN6Sprite8TransferI24GenerateTypeTreeTransferEEvRT_
nYh:__ZN19SafeBag_t396124819911set__asn1_1EP16ASN1_t2114160832
kFh:_SoapTypeAttribute_get_IsInteropXmlType_m629667929
kBc:__Z48Register_UnityEngine_Transform_SetAsFirstSiblingv
w5g:_InternalEnumerator_1_System_Collections_IEnumerator_get_Current_m694606607_gshared
EGa:__ZN7SubMesh8TransferI24GenerateTypeTreeTransferEEvRT_
Bt:__ZN9Scripting11UnityEngine31AnimatorOverrideControllerProxy12CleanupProxyEv
jLo:__ZN14Il2CppIMarshalC2Ev
CUm:_Literal_IsComplex_m4067122560
sLn:_NativeTypeAttribute__ctor_m133676646
EQi:__ZNK25DelegateEntry_t101958416112get_target_2Ev
Yvb:__ZN19GfxThreadableDevice20SetShadersThreadableEPP10GpuProgramPPK20GpuProgramParametersPKPKh
tUl:_Collection_1_System_Collections_IList_Contains_m296643274_gshared
DXm:__ZNK14Uri_t10023632421get_cachedToString_14Ev
BJj:_DirectoryInfo__ctor_m126519516
dsf:_MethodBase_GetMethodFromIntPtr_m3014201362
oGg:__ZN17Shadow_t77307431922set_m_EffectDistance_6E19Vector2_t2156229523
oRl:__ZN21InterfaceFuncInvoker1I19Color32_t2600501292iE6InvokeEjP11Il2CppClassP12Il2CppObjecti
CTm:_Reference_get_CapturingGroup_m3861468528
d_k:__Z40RuntimeInvoker_TypeAttributes_t113483779PFvvEPK10MethodInfoPvPS4_
mgi:__ZNK28BigIntegerU5BU5D_t234995247714GetAtUncheckedEj
RAc:__ZN9Transform23SetSiblingIndexInternalEib
Xkm:_List_1_Clear_m1143167521_gshared
SJc:__ZN9JSONWrite8TransferI13dynamic_arrayIaLj0EEEEvRT_PKc17TransferMetaFlags
RFf:_ChannelServices_IsLocalCall_m3035930722
$Yo:___fseeko
sgg:_CreateOutputMethod__ctor_m3884516706
g$h:_X509Extension_Equals_m1222951829
_nl:__Z37RuntimeInvoker_Enumerator_t1789501480PFvvEPK10MethodInfoPvPS4_
yyo:__ZN6il2cpp8metadata15GenericMetadata15GetGenericClassEiPK17Il2CppGenericInst
eOk:__ZN22BigInteger_t290290508910set_data_1EP24UInt32U5BU5D_t2770800703
l9h:_Char_GetTypeCode_m2433327340_AdjustorThunk
Dhb:__Z18Transfer_BlittableI14SafeBinaryReadLb0E10Matrix4x4fEvRK29SerializationCommandArgumentsR31RuntimeSerializationCommandInfo
Iub:__Z24GetFixedBehaviourManagerv
$ke:__ZL69IntPtr_t_CustomAttributesCacheGenerator_IntPtr_op_Equality_m408849716P21CustomAttributesCache
iUo:__ZN6il2cpp2os16ReaderWriterLockC2Ev
N1n:__ZN6il2cpp2vm10ThreadPool4WaitEP17Il2CppAsyncResultPPv
d_h:_PKCS12_Encrypt_m2617413749
uKm:_X509Crl_VerifySignature_m1377612461
p1h:_Activator_CreateInstance_m94526014
Ahi:__ZN16ASN1_t211416083312set_m_nTag_0Eh
RWo:_vfprintf
OFc:__ZN10GUIManager12AddGUIScriptER8ListNodeI13MonoBehaviourE
vFi:_DateTime_get_Month_m1566006993
vAk:_Enumerator_System_Collections_IEnumerator_get_Current_m472556657_AdjustorThunk
_Ci:_Stack_Clear_m2010200235
_T:__ZNSt3__26__treeI19RepeatingLogMessageNS_4lessIS1_EE13stl_allocatorIS1_L18MemLabelIdentifier74ELi16EEE12__find_equalIS1_EERPNS_16__tree_node_baseIPvEERPNS_15__tree_end_nodeISC_EERKT_
Xdd:_cf2_getVStore
vVd:_PointerEventData_set_pointerPressRaycast_m1363193059
DPb:__ZN20DynamicPropertySheetD0Ev
lJn:__ZNK27ContactFilter2D_t380520344121get_maxNormalAngle_10Ev
nDf:_SafeHandle_Dispose_m4229010569
y1b:__ZN14SafeBinaryRead17RegisterConverterEPKcS1_PFbPvRS_E
bIe:__ZL77RuntimePlatform_t4159857903_CustomAttributesCacheGenerator_OSXDashboardPlayerP21CustomAttributesCache
QFb:__ZN7ApiGLES20DrawElementsIndirectE16GfxPrimitiveTypejjj
gcf:_FieldBuilder_SetValue_m828035213
sFa:__ZN15NameToObjectMapI6ShaderNSt3__23mapI4PPtrIS0_EN4core12basic_stringIcNS5_20StringStorageDefaultIcEEEENS1_4lessIS4_EENS1_9allocatorINS1_4pairIKS4_S9_EEEEEENS1_8multimapIS9_S4_NSA_IS9_EENSC_INSD_IKS9_S4_EEEEEEE4FindERSK_
w1l:_ReadOnlyCollection_1_System_Collections_IList_get_IsFixedSize_m733459177_gshared
LLh:_CallContext__ctor_m383148220
D3g:__Z40InternalEnumerator_1_Dispose_m1063909490P32InternalEnumerator_1_t1765566171PK10MethodInfo
D6l:__ZN28GenericInterfaceFuncInvoker0IfE6InvokeEPK10MethodInfoP12Il2CppObject
yle:__ZL72Enum_t4135868527_CustomAttributesCacheGenerator_Enum_ToObject_m121962870P21CustomAttributesCache
mZl:__ZN23InterfaceActionInvoker2IP24ObjectU5BU5D_t2843939325iE6InvokeEjP11Il2CppClassP12Il2CppObjectS1_i
Yhg:__ZN22Quaternion_t23019283317set_y_1Ef
nBc:__Z21Object_CUSTOM_DestroyP12Il2CppObjectf
bJe:__ZL99SetupCoroutine_t2062820429_CustomAttributesCacheGenerator_SetupCoroutine_InvokeMoveNext_m3199342729P21CustomAttributesCache
QLb:__ZN8Material26ResetAllCachedMaterialDataEP6Shader
_Im:__ZN20X509Chain_t86378360011set_roots_0EP37X509CertificateCollection_t1542168550
zGn:__ZN21HumanBone_t246533951811set_limit_2E22HumanLimit_t2901552972
p7d:__ZN22OptionData_t327028235212set_m_Text_0EP8String_t
lmd:_UNITY_TT_Get_MM_Var
Jda:__ZN9Scripting11UnityEngine3U2D23SpriteAtlasManagerProxy9InitProxyEv
kQf:_ObjectManager_AddFixup_m2154325362
Qih:_Comparer_1__cctor_m3761458313_gshared
WNi:_DateTimeOffset_CompareTo_m1350732322_AdjustorThunk
Z:invoke_diddi
Tud:__ZNK2UI6Canvas13GetRenderModeEv
e5f:_PersistentCall__ctor_m1217622171
KOm:_PatternCompiler_EmitSet_m2815529224
Gek:_Array_compare_TisCustomAttributeTypedArgument_t2723150157_m1384644047_gshared
dyk:__ZN26KeyValuePair_2_t25302173199set_key_0EP12Il2CppObject
NWh:_StrongName_get_TokenAlgorithm_m1794722022
RHl:__ZN36RijndaelManagedTransform_t41026010149set__st_0EP28RijndaelTransform_t631222241
Ogb:__Z18Transfer_BlittableI14SafeBinaryReadLb0EiEvRK29SerializationCommandArgumentsR31RuntimeSerializationCommandInfo
N_n:__ZN6il2cpp2vm13MetadataCache30GetPropertyDefinitionFromIndexEi
bkj:__Z25Il2CppCodeGenWriteBarrierI23IntComparer_t3812095803EvPPT_S2_
zIh:_CrossContextDelegate_EndInvoke_m3186232431
qBd:__ZN22BaseUnityConnectClient17InitializeSessionERKN4core12basic_stringIcNS0_20StringStorageDefaultIcEEEES6_N19CloudServiceHandler13InitModeFlagsE
goe:__ZL56KeyCollection_t4251528776_CustomAttributesCacheGeneratorP21CustomAttributesCache
hSj:__ZNK33UnmanagedMemoryStream_t423411766912get_Closed_8Ev
Edl:__Z74RuntimeInvoker_RuntimeObject_Int32_t2950945753_RuntimeObject_RuntimeObjectPFvvEPK10MethodInfoPvPS4_
Fqm:_List_1_get_Item_m200663048_gshared
Bjk:__ZN24Dictionary_2_t144469424912set_count_10Ei
hsb:__ZN18StreamedBinaryRead21TransferSTLStyleArrayI13dynamic_arrayIdLj0EEEEvRT_17TransferMetaFlags
AWo:_strtox_763
aSk:__ZNK22DSAManaged_t280026018216get_m_disposed_3Ev
$Uh:__ZN41RemotingServices_t1401195504_StaticFields29set__serializationFormatter_1EP27BinaryFormatter_t3197753202
j7o:_emscripten_glDeleteBuffers__wrapper
H5g:_InternalEnumerator_1_MoveNext_m3664960764_AdjustorThunk
U7c:__ZThn32_N10SpriteMask17GetSortingGroupIDEj
Ltc:__ZN13MonoBehaviour34StopCoroutineFromEnumeratorManagedE18ScriptingObjectPtr
du:__ZN9Scripting11UnityEngine10Animations36AnimationMotionXToDeltaPlayableProxy12CleanupProxyEv
Rcc:__ZN2UI13RectTransform28HandleParentHierarchyChangesEPK15TransformAccessj
kIh:__ZN21InterfaceFuncInvoker0IP20Identity_t1873279371E6InvokeEjP11Il2CppClassP12Il2CppObject
mim:_List_1__ctor_m1345008423_gshared
mkd:_gray_raster_reset
yuh:__Z30Transform_1_Invoke_m4084479750P23Transform_1_t4218749037P12Il2CppObjectbPK10MethodInfo
Csl:__ZN37Thread_t2300836069_ThreadStaticFields10set__ec_44EP28ExecutionContext_t1748372627
qu:__ZN16MecanimAnimation40GetReadWriteGlobalSpaceSkeletonPoseFenceEPN5Unity9ComponentE
Xon:_Vector3__ctor_m1719387948_AdjustorThunk
JMf:__ZNK31OpCodes_t126150456_StaticFields14get_Brfalse_56Ev
NPc:__ZN11UnityEngine9Analytics18SceneLoadTimeEvent12SetSceneLoadERKN4core12basic_stringIcNS2_20StringStorageDefaultIcEEEEiyyyy
CFi:_DateTimeOffset__ctor_m2084804982
Gid:_UNITY_tt_face_load_pclt
Bgb:__ZN9profiling17ScriptingProfiler31UpdateRegisteredScriptingEventsEv
Zsc:__ZL34GetComponentsImplementationRecurseILb1ELi0ELi2EEbR10GameObjectbRK17CompareParametersRK39GetComponentsImplementation_ReturnValue
u0c:__ZN10ClipperLib7Clipper24InsertLocalMinimaIntoAELEx
Q9f:_Material_GetTexture_m3545614349
qwh:__ZN22Enumerator_t253771315232get_address_of_host_enumerator_0Ev
A0h:__ZNK25SmallXmlParser_t97378783916get_nameBuffer_6Ev
ySh:__ZN25ReturnMessage_t137698560814set__outArgs_0EP24ObjectU5BU5D_t2843939325
eOa:__ZN13ScreenManager22SetResolutionImmediateEii14FullscreenModei
hYk:__Z64RuntimeInvoker_RuntimeObject_Int32_t2950945753_Int16_t2552820387PFvvEPK10MethodInfoPvPS4_
jpj:__ZN23AssemblyName_t27093193811set_flags_7Ei
dlo:__ZN6il2cpp2gc9AllocatorIP12Il2CppThreadEC2Ev
cIn:_RemoteSettings_RemoteSettingsBeforeFetchFromServer_m4228537265
Uaa:__ZL47__ManagedRegistrationHelperFunction_CameraProxyPv
w9i:__ZN17Group_t246820578613set_success_4Eb
pqk:_EqualityComparer_1__cctor_m4244842342_gshared
Alk:_Dictionary_2__ctor_m2817523597_gshared
Vzf:__Z23il2cpp_codegen_get_typePFvvEP8String_tbPKc
xsg:__ZNK22InputField_t376291743123get_m_InputTextCache_44Ev
G7m:__ZN46U3CStartingCutsceneU3Ec__Iterator1_t282802777216set_U3CiU3E__2_3Ei
sng:_SendMouseEvents_DoSendMouseEvents_m2140870850
pEd:__ZN14UnityAnalyticsD0Ev
Jwo:__ZNKSt3__26vectorIPK11Il2CppClassNS_9allocatorIS3_EEE8max_sizeEv
cPm:_PatternCompiler_EmitJump_m3915926156
uAb:__Z18IsCompressedFormat14GraphicsFormat
DQf:_SerializationEntry_get_Name_m1530029541_AdjustorThunk
Juf:_MonoMethod_GetBaseDefinition_m2844667474
axl:__Z33il2cpp_codegen_check_add_overflowxx
Owk:__ZNK21HashSet_1_t164505563816get_empty_slot_8Ev
nt:__ZN9Scripting11UnityEngine12Experimental10Animations20AnimationStreamProxy12CleanupProxyEv
tt:__ZN9Scripting11UnityEngine15AvatarMaskProxy12CleanupProxyEv
wdl:__Z71RuntimeInvoker_Boolean_t97287965_AnimatorControllerPlayable_t1015767841PFvvEPK10MethodInfoPvPS4_
jIe:__ZL73RuntimePlatform_t4159857903_CustomAttributesCacheGenerator_MetroPlayerARMP21CustomAttributesCache
_lh:__ZNK24Dictionary_2_t196881949516get_valueSlots_7Ev
E1m:__ZNK28GUITargetAttribute_t2579633717get_displayMask_0Ev
PXn:__ZN14dense_hash_mapI10KeyWrapperIN6il2cpp5utils13dynamic_arrayIPK10Il2CppTypeLj4EEEEPFvvENS1_8metadata19Il2CppSignatureHashENS8_14EqualsComparerINSB_22Il2CppSignatureCompareEEENSt3__29allocatorINSG_4pairIKS8_SA_EEEEE15set_deleted_keyERSJ_
bgn:__Z33Dictionary_2_get_Item_m3214317455P24Dictionary_2_t1354619006P8String_tPK10MethodInfo
Mxl:_TimeSpan_op_Subtraction_m3592306516
jeo:__ZN13ReflectionMapINSt3__24pairIPK10MethodInfoP11Il2CppClassEEP22Il2CppReflectionMethodEC2Ev
Itk:_EqualityComparer_1_System_Collections_IEqualityComparer_GetHashCode_m1517903420_gshared
qoi:__ZNK23CipherSuite_t341474457516get_cipherMode_7Ev
GPa:__ZN26EnlightenSystemInformation8TransferI14SafeBinaryReadEEvRT_
MUe:__ZL67ContactFilter2D_t3805203441_CustomAttributesCacheGenerator_maxDepthP21CustomAttributesCache
b_e:__ZL85CanvasRenderer_t2598313366_CustomAttributesCacheGenerator_U3CisMaskU3Ek__BackingFieldP21CustomAttributesCache
KYi:__ZN26HttpWebRequest_t166943651519set_certificates_11EP37X509CertificateCollection_t3399372417
Zzb:__ZN22VertexDeclarationCacheC2Ev
zea:__ZN9Scripting11UnityEngine9Rendering18CommandBufferProxy9InitProxyEv
Sra:__ZN27PerObjectLightCullingOutputD2Ev
eWa:__ZN12MeshRendererD0Ev
uH:__ZN12AudioManager35GetCurrentSpatializerDefinitionNameEv
CPj:__ZN24StreamWriter_t126637890422set_internalEncoding_2EP20Encoding_t1523322056
gtk:__Z25Il2CppCodeGenWriteBarrierI30EqualityComparer_1_t3827726111EvPPT_S2_
Hpg:_TouchScreenKeyboard_get_active_m4267591905
Sbj:_Int16_CompareTo_m3705372115
sun:__Z25Il2CppCodeGenWriteBarrierI18List_1_t2069970928EvPPT_S2_
Leo:__ZNK15dense_hashtableINSt3__24pairIK10KeyWrapperIPK14Il2CppAssemblyEPK22Il2CppMonoAssemblyNameEES6_N6il2cpp5utils11PointerHashIS4_EEN14dense_hash_mapIS6_SA_SF_NS6_14EqualsComparerINS0_8equal_toIS5_EEEENS0_9allocatorISB_EEE9SelectKeyESK_SM_E8min_sizeEjj
Dm:_utime
xRe:__ZL56PlayableGraph_t3515989261_CustomAttributesCacheGeneratorP21CustomAttributesCache
_ol:__ZN15StringBuilder_t17set__cached_str_3EP8String_t
Nig:__ZN20RangeInt_t209468461812set_length_1Ei
$4d:__ZN22FloatTween_t127433000418set_m_StartValue_1Ef
jio:__ZNSt3__26vectorIN6il2cpp2vm17TypeNameParseInfoENS_9allocatorIS3_EEE8allocateEj
Dzm:__ZNK31InternalAsyncResult_t350428282012get_locker_0Ev
vPe:__ZL101Texture2DArray_t4044506685_CustomAttributesCacheGenerator_Texture2DArray__ctor_m2627654179____linear5P21CustomAttributesCache
jHh:_Context_NotifyDynamicSinks_m1841702879
xNm:_Mark_get_Index_m3048692661_AdjustorThunk
uDm:_TlsServerSettings_get_CertificateRequest_m842655670
L6k:__Z128RuntimeInvoker_Void_t1185182177_RuntimeObject_BooleanU26_t4125257963_SByte_t1669577662_Int32U26_t1369213839_Int32U26_t1369213839PFvvEPK10MethodInfoPvPS4_
$o:FUNCTION_TABLE_viiiiif
iih:_DefaultComparer_Compare_m3931992727_gshared
dth:__Z30Transform_1_Invoke_m3750720560P23Transform_1_t2448278169iP12Il2CppObjectPK10MethodInfo
cp:FUNCTION_TABLE_viiiiii
Bgh:_InternalEnumerator_1_System_Collections_IEnumerator_get_Current_m1847780851_AdjustorThunk
Idi:__ZN18VirtActionInvoker3IiP12Il2CppObjectS1_E6InvokeEjS1_iS1_S1_
U$m:_GUILayoutUtility_get_spaceStyle_m3392862907
yfj:_Int32_System_IConvertible_ToType_m3009233912_AdjustorThunk
DFi:_DateTimeOffset__ctor_m74032857
N$h:_SmallXmlParser_Error_m3899025466
eEh:_ConfigHandler_ParseElement_m3124222564
Xyl:_Type_type_is_assignable_from_m76737532
tno:__ZNK10KeyWrapperIP11Il2CppClassE8isNormalEv
AFg:_MaskableGraphic_ParentMaskStateChanged_m1092090553
xZa:__ZNSt3__26vectorIN4core12basic_stringIcNS1_20StringStorageDefaultIcEEEE13stl_allocatorIS5_L18MemLabelIdentifier13ELi16EEE8__appendEj
ZG:__Z18RegisterUnityClassI9AudioClipEvPKc
UO:__ZN19CloudServiceHandler20StartEventDispatcherERKN11UnityEngine15CloudWebService18CloudServiceConfigERNS1_23WebRequestRestHeaderMapE
Fan:__ZNK42U3CModifyGravityU3Ec__Iterator1_t93417634813get_U24this_1Ev
NUc:__ZN24b2ChainAndCapsuleContact8EvaluateEP10b2ManifoldRK11b2TransformS4_
fEm:_ValidationResult_get_ErrorCode_m1533688152
nGi:__ZN33DateTime_t3738529785_StaticFields15set_last_now_14Ex
Gsl:_EventWaitHandle__ctor_m3773182490
iqb:__Z29Transfer_Blittable_ArrayFieldI19StreamedBinaryWrite8BitFieldEvRT_R9ArrayInfoRK23StaticTransferFieldInfo
eoh:_Enumerator_get_CurrentValue_m3103267885_gshared
CBj:_CultureInfo_get_Parent_m672689885
WPo:__ZN6il2cpp6icalls8mscorlib6System10Reflection4Emit13ModuleBuilder13RegisterTokenEP29Il2CppReflectionModuleBuilderP12Il2CppObjecti
X4k:__Z50RuntimeInvoker_Int64_t3736567304_SByte_t1669577662PFvvEPK10MethodInfoPvPS4_
e4i:_X509Certificate2_GetValueAsString_m1348462142
_zm:_SslStreamBase_NegotiateHandshake_m2455724401
C5n:__ZN6il2cpp2os4File9SetLengthEPNS0_10FileHandleExPi
Xzc:__Z37RenderTexture_CUSTOM_SetSRGBReadWriteP12Il2CppObjecth
o9o:_glGetShaderInfoLog__wrapper
qTe:__ZL63SpriteBone_t303320096_CustomAttributesCacheGenerator_m_ParentIdP21CustomAttributesCache
vuh:_Transform_1_EndInvoke_m2716226219_gshared
Mg:_emscripten_glGetTexParameteriv
ark:__Z25Il2CppCodeGenWriteBarrierI30EqualityComparer_1_t3995337334EvPPT_S2_
M6o:_glGenTextures__wrapper
Fmo:__ZN15dense_hashtableINSt3__24pairIK10KeyWrapperINS1_IP11Il2CppClassjEEES4_EES6_N6il2cpp8metadata14ArrayClassHashEN14dense_hash_mapIS6_S4_SB_NS6_14EqualsComparerINSA_17ArrayClassCompareEEENS0_9allocatorIS8_EEE9SelectKeyESF_SH_EC2EjRKSB_RKSF_RKSJ_
PVo:__ZN6il2cpp8metadata21Il2CppGenericInstHash4HashEPK17Il2CppGenericInst
h6l:_Func_1_EndInvoke_m3767477006_gshared
cXh:__ZN22StrongName_t409384937720set_tokenAlgorithm_3EP8String_t
hsl:_UnicodeEncoding_GetHashCode_m354003420
j6b:__ZN9ShaderLab20SerializedSubProgram14ConstantBufferaSERKS1_
MWm:__ZN27Uri_t100236324_StaticFields20set_UriSchemeFile_18EP8String_t
TTi:_Enum_Equals_m3617313991
Qle:__ZL69RuntimeArray_CustomAttributesCacheGenerator_Array_SetValue_m394135409P21CustomAttributesCache
Fhl:__Z74RuntimeInvoker_Boolean_t97287965_LineTypeU26_t2430394419_Int32_t2950945753PFvvEPK10MethodInfoPvPS4_
ekc:__Z13tessTesselateP14TESStesselatoriiiiPKf
BJn:_ContactFilter2D_SetLayerMask_m3440334821
Gm:emscriptenWebGLGetBufferBinding
jWn:__ZNK26InteropDataToTypeConverterclERK17Il2CppInteropData
EDn:_CanvasGroup_IsRaycastLocationValid_m2128397950
vPg:_Slider_UpdateCachedReferences_m3259451627
gFe:__ZL63X509ChainStatusFlags_t1026973125_CustomAttributesCacheGeneratorP21CustomAttributesCache
Nwk:__ZN21HashSet_1_t164505563811set_count_9Ei
qpl:_StringBuilder_get_Length_m3238060835
k3k:__Z60RuntimeInvoker_Void_t1185182177_StreamingContext_t3711869237PFvvEPK10MethodInfoPvPS4_
T7e:__ZL62Shadow_t773074319_CustomAttributesCacheGenerator_m_EffectColorP21CustomAttributesCache
Via:__ZN9Scripting5Unity11Collections49NativeDisableParallelForRestrictionAttributeProxy9InitProxyEv
soo:__ZN15dense_hashtableINSt3__24pairIK10KeyWrapperINS1_IP11Il2CppClassjEEES4_EES6_N6il2cpp8metadata14ArrayClassHashEN14dense_hash_mapIS6_S4_SB_NS6_14EqualsComparerINSA_17ArrayClassCompareEEENS0_9allocatorIS8_EEE9SelectKeyESF_SH_E6insertERKS8_
p$n:__ZN6il2cpp2os6Atomic11ReadPointerI21CustomAttributesCacheEEPT_PVS5_
Dae:_U3CShowU3Ec__AnonStorey1_U3CU3Em__0_m2340880019
H9d:__Z25Il2CppCodeGenWriteBarrierI24DropdownItem_t1451952895EvPPT_S2_
Qrh:__ZNK24KeyCollection_t19306021216get_dictionary_0Ev
TDd:__ZN22BaseUnityConnectClient38PrepareConfigRequestOnMainThreadStaticEPS_
kOg:_Selectable_OnSetProperty_m1693943217
Oem:_List_1_GetIndex_m2300811709_gshared
Vgc:__ZNK32RendererMaterialAnimationBinding12GetPPtrValueERKN11UnityEngine9Animation10BoundCurveE
U4j:_ASCIIEncoding_GetString_m58523364
r$c:__ZN16CircleCollider2D10SmartResetEv
r_o:__ZNSt3__212basic_stringIcNS_11char_traitsIcEENS_9allocatorIcEEE21__grow_by_and_replaceEjjjjjjPKc
_Dm:_TlsStream_Flush_m3793197834
Pfm:_List_1_GetIndex_m2832472557_gshared
$3a:__ZN22LocalFileSystemHandler9MakeLocalER13FileEntryDatab
cKo:__ZN6il2cpp2vm8Profiler10AllocationEP12Il2CppObjectP11Il2CppClass
n3e:__ZL61Graphic_t1660335611_CustomAttributesCacheGenerator_m_MaterialP21CustomAttributesCache
h7:__Z13FormatOrderedPKcz
dzm:__ZNK28SslHandshakeHash_t210758177212get_secret_7Ev
jch:_InternalEnumerator_1_get_Current_m1506120701_AdjustorThunk
EWa:__ZN11TimeManager23VirtualRedirectTransferER18StreamedBinaryRead
WOg:_Selectable_IsPressed_m907486548
$9c:__ZN14SafeBinaryRead21TransferSTLStyleArrayI10vector_mapINSt3__24pairIttEEfN20TextRenderingPrivate8FontImpl14KerningCompareENS2_9allocatorINS3_IS4_fEEEEEEEvRT_17TransferMetaFlags
Ari:_TlsServerFinished__ctor_m1445633918
rcj:_NumberFormatter_FastIntegerToString_m390846811
iDg:__ZN21InterfaceFuncInvoker0IfE6InvokeEjP11Il2CppClassP12Il2CppObject
yVa:__ZN14CompressedMesh10GetQualityE15MeshCompression
mWb:__ZN25DeferredRenderLoopScratchD0Ev
awn:__ZL24UnresolvedVirtualCall_34P12Il2CppObjectPK10MethodInfo
zym:__ZN23InterfaceActionInvoker2Ii22OrderBlock_t1585977831E6InvokeEjP11Il2CppClassP12Il2CppObjectiS0_
nca:__ZL54__ManagedRegistrationHelperFunction_PlayableAssetProxyPv
Hal:__Z83RuntimeInvoker_Void_t1185182177_RuntimeObject_Single_t1397266774_Single_t1397266774PFvvEPK10MethodInfoPvPS4_
VVk:__ZNK30SymmetricTransform_t380259184213get_workout_6Ev
xBa:__ZNK13RenderTexture21GetShadowSamplingModeEv
sUd:_PhysicsRaycaster_Raycast_m776323695
Fnn:_UnityException__ctor_m1456865679
b5:__ZN14PlayableOutput26ClearInvalidSourcePlayableEv
Uri:__ZNK33SendRecordAsyncResult_t371835246721get__asyncException_3Ev
u5n:__ZN6il2cpp2osL14FindFileHandleERK4stat
xWg:__Z44InternalEnumerator_1_get_Current_m3073360606P32InternalEnumerator_1_t2041360493PK10MethodInfo
Y1i:__ZNK54X509EnhancedKeyUsageExtension_t4189149453_StaticFields28get_U3CU3Ef__switchU24mapE_6Ev
vRd:__ZNK38ExecuteEvents_t3484638744_StaticFields24get_s_BeginDragHandler_6Ev
oFk:__Z65Enumerator_System_Collections_IEnumerator_get_Current_m1540440674P22Enumerator_t1222580846PK10MethodInfo
Q0e:__ZL92PointerEventData_t3807901092_CustomAttributesCacheGenerator_U3CscrollDeltaU3Ek__BackingFieldP21CustomAttributesCache
w5b:__ZN15dense_hashtableINSt3__24pairIKiN4core17string_with_labelILi1EEEEEi18SInt32HashFunctionN14dense_hash_mapIiS5_S7_NS0_8equal_toIiEE13stl_allocatorIS6_L18MemLabelIdentifier1ELi16EEE9SelectKeyESA_SD_E9copy_fromERKSG_j
rU:__Z34UnregisterCreateThreadCallbackImplPFvPK23UnityProfilerThreadDescPvES2_
grj:_CustomAttributeNamedArgument_GetHashCode_m2317130892
QZa:__ZN15ResourceManagerD0Ev
Osk:__ZNK43EqualityComparer_1_t1640486689_StaticFields14get__default_0Ev
x3i:__ZNK27X509Certificate2_t71404912612get__cert_13Ev
sHm:__ZN36DeriveBytes_t1492915136_StaticFields20set_keyDiversifier_0EP22ByteU5BU5D_t4116647657
mqk:_EqualityComparer_1_get_Default_m990790318_gshared
Hsn:__ZNK23AudioSource_t393530558826get_spatializerExtension_4Ev
fIg:_GetRayIntersectionAllCallback__ctor_m391992746
Ata:__ZN22CreateGpuProgramOutputD2Ev
Dpm:_List_1_get_Item_m1378751541_gshared
GGg:__ZNK17Shadow_t77307431919get_m_EffectColor_5Ev
Xti:__ZN19Context_t397123470720set_serverWriteIV_26EP22ByteU5BU5D_t4116647657
_we:__ZL52HMACSHA512_t923916539_CustomAttributesCacheGeneratorP21CustomAttributesCache
Jec:__ZN11HaloManagerC2Ev
SWl:__ZN18VirtActionInvoker2Ii19Vector4_t3319028937E6InvokeEjP12Il2CppObjectiS0_
myh:_ValueCollection_CopyTo_m2188334703_gshared
e6c:__Z50Physics2D_CUSTOM_RaycastNonAlloc_Internal_InjectedRK8Vector2fS1_fRK13ContactFilterP11Il2CppArray
aDd:__ZN11UnityEngine9Analytics18ConnectSessionInfo8TransferER9JSONWrite
B8b:__ZN9ShaderLab14SerializedPass8TransferI19StreamedBinaryWriteEEvRT_
Qok:_EqualityComparer_1__cctor_m3766928733_gshared
ySj:_SHA1CryptoServiceProvider_Finalize_m1793183797
DEi:_Convert_ToByte_m4146281512
hwk:_HashSet_1_System_Collections_Generic_ICollectionU3CTU3E_CopyTo_m408073502_gshared
Eki:_EncryptedPrivateKeyInfo_get_EncryptedData_m491452551
o4a:__ZN12HandlerChain4OpenER13FileEntryData14FilePermission16FileAutoBehavior
$fk:_Array_InternalArray__ICollection_Add_TisPlayerLoopSystem_t105772105_m1930641144_gshared
hll:__Z72RuntimeInvoker_Void_t1185182177_Int32_t2950945753_RaycastHit_t1056001966PFvvEPK10MethodInfoPvPS4_
xBe:__ZL79Convert_t2465617642_CustomAttributesCacheGenerator_Convert_ToUInt16_m1147931813P21CustomAttributesCache
n9n:__ZN15dense_hashtableINSt3__24pairIK10KeyWrapperINS1_IPK10MethodInfoP11Il2CppClassEEEjEES9_17ReflectionMapHashIS8_EN14dense_hash_mapIS9_jSD_NS9_14EqualsComparerINS0_8equal_toIS8_EEEENS0_9allocatorISB_EEE9SelectKeyESI_SK_E6insertERKSB_
qAg:__ZNK25LayoutElement_t178540367823get_m_LayoutPriority_11Ev
A4g:__ZN32InternalEnumerator_1_t28112936009set_idx_1Ei
KVi:__Z25Il2CppCodeGenWriteBarrierI26KeysCollection_t1318642398EvPPT_S2_
Mw:__ZN9Scripting11UnityEngine2XR5Tango14GridIndexProxy9InitProxyEv
f0a:__ZN13RendererScene23UpdatePreviousFrameDataEii
xdh:__ZN32InternalEnumerator_1_t196306608311set_array_0EP11Il2CppArray
Rcg:_MonoBehaviour_StopCoroutine_m615723318
Ryc:__Z50Register_UnityEngine_CullingGroup_FinalizerFailurev
mud:__ZN12SharedObjectIN2UI13CanvasBuffersELb0E27SharedObjectDeleteReleaseOpIS1_EE5ResetEv
LXj:_SecurityPermission_IsSubsetOf_m545000671
usa:__ZNK4PPtrI5FlareEcvPS0_Ev
pFf:__ZN40ChannelServices_t3942013484_StaticFields24set_registeredChannels_0EP21ArrayList_t2718874744
Rnl:__Z56RuntimeInvoker_Int32_t2950945753_SpriteState_t1362986479PFvvEPK10MethodInfoPvPS4_
Qzc:__Z36Texture3D_CUSTOM_Internal_CreateImplP12Il2CppObjectiii14GraphicsFormat20TextureCreationFlags
W2n:__ZN6il2cpp6icalls8mscorlib6SystemL20GetMethodsByNameImplINS_5utils10functional6FilterINSt3__212basic_stringIcNS7_11char_traitsIcEENS7_9allocatorIcEEEENS4_13VmStringUtils23CaseInsensitiveComparerEEEEEP11Il2CppArrayPK10Il2CppTypejRKT_
IHm:__ZN29X501_t1758824426_StaticFields14set_surname_12EP22ByteU5BU5D_t4116647657
jzg:__ZNK50U3CMouseDragOutsideRectU3Ec__Iterator1_t390924187818get_U24disposing_6Ev
dac:__ZN12ShaderErrors11ShaderErrorC2EOS0_
Ftf:__ZNK24MonoEventInfo_t34686661811get_attrs_6Ev
k_o:__ZNKSt3__221__basic_string_commonILb1EE20__throw_out_of_rangeEv
O2f:_Cursor_get_lockState_m2828192107
Q_k:__Z78RuntimeInvoker_Boolean_t97287965_RuntimeObject_RuntimeObject_Int32_t2950945753PFvvEPK10MethodInfoPvPS4_
_Ck:__ZN22Enumerator_t242665817213set_current_3E25RaycastResult_t3360306849
Dx:__GLOBAL__sub_I_Runtime_Video_0_cpp
C2j:_String_Format_m630303134
KYo:___ofl_add
hbl:__Z109RuntimeInvoker_Boolean_t97287965_RuntimeObject_Int32_t2950945753_Int32_t2950945753_Int32_t2950945753_IntPtr_tPFvvEPK10MethodInfoPvPS4_
hsn:__ZNK21AudioClip_t368088966525get_m_PCMReaderCallback_4Ev
Buo:__ZNK15dense_hashtableINSt3__24pairIK10KeyWrapperIP14Il2CppIUnknownEjEES5_N6il2cpp5utils11PointerHashIS3_EEN14dense_hash_mapIS5_jSB_NS5_14EqualsComparerINS0_8equal_toIS4_EEEENS0_9allocatorIS7_EEE9SelectKeyESG_SI_E12test_deletedERK24dense_hashtable_iteratorIS7_S5_SB_SK_SG_SI_E
_Ij:__ZNK24BinaryWriter_t399259504214get_disposed_4Ev
kca:__ZL57__ManagedRegistrationHelperFunction_PlayerConnectionProxyPv
iyj:__ZNK23CultureInfo_t415784306815get_cultureID_8Ev
zfo:__ZNK15dense_hashtableINSt3__24pairIK10KeyWrapperIPK22Il2CppGenericParameterEPK24MonoGenericParameterInfoEES6_N6il2cpp5utils11PointerHashIS4_EEN14dense_hash_mapIS6_SA_SF_NS6_14EqualsComparerINS0_8equal_toIS5_EEEENS0_9allocatorISB_EEE9SelectKeyESK_SM_E3endEv
XAf:_ResourceSet_System_Collections_IEnumerable_GetEnumerator_m2807499934
x$i:__ZN43ServicePointManager_t170559685_StaticFields22set_maxServicePoints_4Ei
dqm:_List_1_AddEnumerable_m2724989594_gshared
ADj:__ZNK30DateTimeFormatInfo_t240585370127get_allShortTimePatterns_34Ev
Fpd:__ZN7TilemapD0Ev
lrm:_List_1_Contains_m2043463915_gshared
iel:__Z82RuntimeInvoker_Vector2_t2156229523_Vector2_t2156229523_RuntimeObject_RuntimeObjectPFvvEPK10MethodInfoPvPS4_
Bzl:_Type_get_ContainsGenericParameters_m3456799426
Xvc:__Z70Register_UnityEngine_Playables_PlayableHandle_GetPlayableType_Injectedv
Xyb:__ZNK4PPtrI23ShaderVariantCollectionEcvPS0_Ev
Eii:_ARC4Managed_TransformBlock_m1687647868
tj:_glCopyTexSubImage2D
bhc:__ZNK24RendererAnimationBinding13GetFloatValueERKN11UnityEngine9Animation10BoundCurveE
Dcn:__ZNK31AnalyticsEventParam_t248012192823get_m_RequirementType_0Ev
j6j:__ZN36EncoderFallbackException_t277377192624set_char_unknown_high_14EDs
d5o:_glActiveTexture__wrapper
Unn:_UnitySynchronizationContext_ExecuteTasks_m1310741010
Len:__ZN27AnalyticsTracker_t73102137812set_m_Dict_5EP24Dictionary_2_t2865362463
hGl:_RIPEMD160Managed_CompressFinal_m497690796
hwb:__ZN18ScreenManagerWebGL13SetShowCursorEb
yZg:_InternalEnumerator_1_MoveNext_m1773160976_gshared
UJb:__ZN13DrawImmediateC2ER9GfxDevice
gXo:_frexp
YWo:_fmt_x
hxd:__ZN2UI13CanvasManager14GetRenderOrderEPKNS_6CanvasE
zhb:__Z18Transfer_BlittableI14SafeBinaryReadLb0E5RectTIfEEvRK29SerializationCommandArgumentsR31RuntimeSerializationCommandInfo
Ygj:_NumberFormatter_NumberToString_m2562899600
wVj:_SymmetricAlgorithm_get_FeedbackSize_m3666584308
shd:_otv_u_C_x_Ox
Ole:__ZL70RuntimeArray_CustomAttributesCacheGenerator_Array_GetValue_m1062368071P21CustomAttributesCache
A7o:_emscripten_glGenVertexArrays__wrapper
ZWo:_fmt_o
uEl:_Version_Clone_m1749041863
$rb:__ZL22Transfer_ManagedObjectI18StreamedBinaryReadLb1EEvRK29SerializationCommandArgumentsR31RuntimeSerializationCommandInfo
Zsh:_ShimEnumerator_get_Key_m4155849607_gshared
r0i:__ZN20WebProxy_t201676054219set_bypassOnLocal_1Eb
OIa:__ZN6prcoreL21CreateRemapAnyBlitterE13TextureFormatS0_
$li:_RSAManaged_ExportParameters_m1754454264
Mqc:__ZN17AnimationCurveTplIfE16StripInvalidKeysEv
H6h:_Boolean_Equals_m535526264_AdjustorThunk
snl:__Z71RuntimeInvoker_KeyValuePair_2_t71524366_Int32_t2950945753_RuntimeObjectPFvvEPK10MethodInfoPvPS4_
pFd:__ZN13dynamic_arrayIiLj0EE6insertEPiPKiS3_
qwi:__ZNK25SslStreamBase_t166741340717get_inputBuffer_4Ev
otn:__ZNK46AudioExtensionManager_t3220897493_StaticFields50get_m_SourceAmbisonicDecoderExtensionDefinitions_2Ev
vxd:__ZNK2UI6Canvas17GetSortingLayerIDEv
yJi:_Convert_ToUInt16_m3116648921
usc:__ZL12HashLen0to16PKcj
FWc:__ZN14Raycast2DQuery8RunQueryEb
uGi:__ZNK33DateTime_t3738529785_StaticFields30get_ParseMonthDayYearFormats_8Ev
IRa:__ZN8Renderer24SetupNewRendererForSceneEv
Qyl:_Type_internal_from_name_m1721940673
Iko:_il2cpp_type_get_class_or_element_class
hon:__ZN19Vector2_t215622952318get_address_of_x_0Ev
L0b:__ZN13ModuleManager4LoadEv
Muj:_Environment_get_TickCount_m2088073110
MOh:_RemotingServices_GetMethodBaseFromName_m3194612939
uLc:__Z35Transfer_Blittable_FixedBufferFieldI8JSONReadtEvRK29SerializationCommandArgumentsR31RuntimeSerializationCommandInfo
qsa:__ZN4PPtrI7TextureE8TransferI14SafeBinaryReadEEvRT_
tZj:__ZNK40SecurityElement_t1046076091_StaticFields23get_invalid_tag_chars_4Ev
LFa:__ZNK6Sprite22GetTypeVirtualInternalEv
Qmf:__ZN31OpCodes_t126150456_StaticFields15set_Ldsflda_124E17OpCode_t123070264
QKd:__ZN13RuntimeStaticINSt3__26vectorI23UnityVRDeviceDefinition13stl_allocatorIS2_L18MemLabelIdentifier90ELi16EEEELb0EE13StaticDestroyEPv
eo:FUNCTION_TABLE_iiiiiiiiiiiiii
hLn:_NativePropertyAttribute__ctor_m2033094153
qSh:_ReturnMessage_GetArg_m3510565487
YEd:__ZN19UnityConnectService18OnPlayerQuitStaticEPS_
isb:__Z29Transfer_Blittable_ArrayFieldI18StreamedBinaryReaddEvRT_R9ArrayInfoRK23StaticTransferFieldInfo
jid:_UNITY_tt_get_cmap_info
mzi:_SslClientStream_RaiseServerCertificateValidation_m3477149273
cob:__Z29Transfer_Blittable_ArrayFieldI24GenerateTypeTreeTransfer5RectTIiEEvRT_R9ArrayInfoRK23StaticTransferFieldInfo
tya:__ZN16ReflectionProbes8ScheduleEN18ReflectionProbeJob7JobTypeEP15ReflectionProbei
c5l:__Z30Comparison_1_Invoke_m568154215P23Comparison_1_t83093314522RaycastHit_t1056001966S1_PK10MethodInfo
vsi:_ClientSessionInfo_KeepAlive_m1020179566
fig:__ZNK35Quaternion_t2301928331_StaticFields24get_identityQuaternion_4Ev
Crm:_List_1_ToArray_m4056539300_gshared
epe:__ZL51Calendar_t1661121569_CustomAttributesCacheGeneratorP21CustomAttributesCache
j0:__ZN16MessageForwarder13HandleMessageEPviR11MessageData
Q5a:__Z18IsDirectoryCreatedRKN4core12basic_stringIcNS_20StringStorageDefaultIcEEEE
VVm:__ZNK27Uri_t100236324_StaticFields21get_UriSchemeHttps_22Ev
tXj:_String_FormatHelper_m3913915042
sZl:__ZN32ReadOnlyCollection_1_t150044199710set_list_0EP12Il2CppObject
qud:__ZN2UI13CanvasManagerD2Ev
aXi:__ZNK43ServicePointManager_t170559685_StaticFields20get_server_cert_cb_9Ev
wqj:_ConstructorInfo__cctor_m1016079270
WRn:__ZN15dense_hashtableINSt3__24pairIK10KeyWrapperIPKcEP11Il2CppClassEES5_N6il2cpp5utils11StringUtils12StringHasherIS4_EEN14dense_hash_mapIS5_S8_SE_NS5_14EqualsComparerINSB_13VmStringUtils21CaseSensitiveComparerEEENS0_9allocatorIS9_EEE9SelectKeyESJ_SL_E15set_deleted_keyERKS9_
qfl:__Z38RuntimeInvoker_ContentType_t1787303396PFvvEPK10MethodInfoPvPS4_
ide:__Z30Dictionary_2__ctor_m2756672401P24Dictionary_2_t3531485785PK10MethodInfo
$Xl:_ReadOnlyCollection_1_Contains_m1700717617_gshared
a1h:_AttrListImpl_get_Names_m977594476
erj:_CustomAttributeData_GetHashCode_m3727773664
rcd:_UNITY_FT_GlyphLoader_Done
mpb:__Z18Transfer_BlittableI19StreamedBinaryWriteLb0E11ColorRGBA32EvRK29SerializationCommandArgumentsR31RuntimeSerializationCommandInfo
dXg:_InternalEnumerator_1_get_Current_m1945804797_AdjustorThunk
UDk:__ZN22Enumerator_t326161813310set_next_1Ei
Woc:__ZN9Polygon2D16CheckConsistencyEv
Xwf:_Pointer_Box_m389276611
Yfb:__ZNK17InstancingBatcher15RenderInstancesERK19ShaderPropertySheetRKNS_22RenderInstancesConfigsERK11MeshBuffersRK16DrawBuffersRange16VertexInputMasks
NRi:_StackTrace_get_FrameCount_m344690939
LRj:_UnexceptionalStreamWriter_Write_m363195622
d2e:__ZL108U3CStartU3Ec__Iterator0_t1249263001_CustomAttributesCacheGenerator_U3CStartU3Ec__Iterator0__ctor_m1316384627P21CustomAttributesCache
M9c:__ZN9Scripting11UnityEngine18CharacterInfoProxy12CleanupProxyEv
ijd:_tt_cmap14_char_var_index
UK:__ZNSt3__26__treeINS_12__value_typeIN19CloudServiceHandler11ServiceTypeEPS2_EENS_19__map_value_compareIS3_S5_NS_4lessIS3_EELb1EEE13stl_allocatorIS5_L18MemLabelIdentifier88ELi16EEE12__find_equalIS3_EERPNS_16__tree_node_baseIPvEENS_21__tree_const_iteratorIS5_PNS_11__tree_nodeIS5_SG_EEiEERPNS_15__tree_end_nodeISI_EESJ_RKT_
yqh:__ZN21Enumerator_t18556172532get_address_of_host_enumerator_0Ev
RJn:_Physics2D_Raycast_m1700114981
Mwg:_Selectable_OnPointerDown_m1086067264
ond:_psh_globals_new
N8d:_Dropdown_SetupTemplate_m628218778
zHj:_Guid_Equals_m3683678873_AdjustorThunk
tsl:_Thread_GetCompressedStack_m2923422412
nni:__ZN28GenericInterfaceFuncInvoker2IbP26X509Certificate_t713131622P22Int32U5BU5D_t385246372E6InvokeEPK10MethodInfoP12Il2CppObjectS1_S3_
sbg:_Matrix4x4_MultiplyPoint3x4_m4145063176
i2i:_X509BasicConstraintsExtension_ToString_m1809935297
U9a:__ZN9GfxDevice20SetMaxBufferedFramesEi
Qmh:__Z36KeyValuePair_2_get_Value_m1669764045P26KeyValuePair_2_t3842366416PK10MethodInfo
v3j:__ZN20Encoding_t152332205614set_codePage_0Ei
Bwn:__ZL24UnresolvedVirtualCall_61P12Il2CppObjectsPK10MethodInfo
Ofo:__ZN10KeyWrapperIPK10Il2CppTypeE14EqualsComparerIN6il2cpp8metadata26Il2CppTypeEqualityComparerEEC2ES7_
kRc:__ZN10Collider2D19WakeAllBodyContactsEv
EOl:_GameObject_GetComponents_TisRuntimeObject_m1246177135_gshared
AC:__ZN24AudioScriptBufferManagerD2Ev
Rlf:__ZN31OpCodes_t126150456_StaticFields15set_Ldind_I2_71E17OpCode_t123070264
_Fj:__ZN20TextInfo_t381042552221set_m_listSeparator_0EP8String_t
KHm:__ZN29X501_t1758824426_StaticFields14set_initial_14EP22ByteU5BU5D_t4116647657
Fij:_MethodAccessException__ctor_m3542088436
T2b:__Z23ConvertIntegerToTypePtrIsEbPvR14SafeBinaryRead
eXo:___DOUBLE_BITS_670
ZSc:__ZN12b2MouseJoint11ShiftOriginERK6b2Vec2
mPn:__ZN6il2cpp2vm5Class12HasAttributeEP11Il2CppClassS3_
Jai:_ArrayListWrapper_get_Capacity_m51087796
xAc:__Z43Transform_CUSTOM_set_localPosition_InjectedP12Il2CppObjectRK8Vector3f
ygb:__ZN15SerializeTraitsI11MonoManagerE8TransferI18StreamedBinaryReadEEvRS0_RT_
jpk:_EqualityComparer_1_System_Collections_IEqualityComparer_GetHashCode_m2230215241_gshared
Nfi:__ZN35BigInteger_t2902905090_StaticFields9set_rng_3EP32RandomNumberGenerator_t386037858
v6e:__ZL60ContentSizeFitter_t3850442145_CustomAttributesCacheGeneratorP21CustomAttributesCache
kfi:_Hashtable_Contains_m2145146412
bHe:__ZL64UnmarshalledAttribute_t1517743549_CustomAttributesCacheGeneratorP21CustomAttributesCache
$ee:__Z25Il2CppCodeGenWriteBarrierI18List_1_t3132410353EvPPT_S2_
faa:__ZN6prcoreL29inner_stretch_rgb565_bilinearEPKNS_9InnerInfoE
umh:_Enumerator__ctor_m1195706188_AdjustorThunk
Qhf:_TypeBuilder__ctor_m3644689907
A8n:__ZNK10KeyWrapperIPK10Il2CppTypeEcvRKS2_Ev
mva:__Z26TransformVerticesInnerLoopILb0ELb0ELb1EEvPhRK10Matrix4x4fRK10Matrix3x3fjPKhiS8_ii25GfxTransformVerticesFlagsj
fKm:__ZNK19X509Crl_t114876738816get_hash_value_9Ev
SUh:_RemotingConfiguration_IsRemotelyActivatedClientType_m4117048589
gcj:_Int32_FindCurrency_m3541026887
tMm:_Interval_CompareTo_m3282557545
$lf:__ZN31OpCodes_t126150456_StaticFields15set_Stind_I1_81E17OpCode_t123070264
kyj:__ZN23CultureInfo_t415784306818set_constructed_33Eb
Hge:__ZN42HorizontalOrVerticalLayoutGroup_t72972557026set_m_ChildControlWidth_15Eb
tVb:__ZNK14RenderSettings19GetFlatAmbientColorEv
Fua:__ZN8DrawUtil24DrawMeshRawFromNodeQueueERK15RenderNodeQueuej16VertexInputMasksi
lao:__ZN6il2cpp2gc19AppendOnlyGCHashMapINSt3__24pairIPK11Il2CppImageP11Il2CppClassEEP22Il2CppReflectionModule17ReflectionMapHashIS9_ENS2_8equal_toIS9_EEE11TryGetValueERKS9_PSB_
Y5e:__ZL58Text_t1901882714_CustomAttributesCacheGenerator_m_FontDataP21CustomAttributesCache
Kcf:_GenericTypeParameterBuilder_IsPrimitiveImpl_m1952010459
TZl:_ReadOnlyCollection_1_CopyTo_m3474153465_gshared
YVk:__ZNK30SymmetricTransform_t380259184211get__rng_11Ev
lIl:_RijndaelManagedTransform_TransformBlock_m1610137419
eBc:__Z40Register_UnityEngine_Transform_SetParentv
aye:__ZL94WindowsIdentity_t2948242406_CustomAttributesCacheGenerator_WindowsIdentity_Dispose_m3466258450P21CustomAttributesCache
_Oa:__ZN14Texture2DArray17UploadToGfxDeviceEv
yEj:__ZNK27NumberFormatInfo_t43587713827get_numberGroupSeparator_18Ev
rB:__Z14FMODMemoryFreePvjPKc
qEk:_Enumerator__ctor_m2029608698_gshared
ALm:_InterpreterFactory_NewInstance_m2792693614
Lrn:_NetFxCoreExtensions_GetMethodInfo_m444570327
Hyl:_Type_get_IsSystemType_m624798880
ccg:_Mesh_SetNormals_m2521889643
ksd:__ZNK7Tilemap24GetTileOrientationMatrixEv
upe:__ZL77RegionInfo_t1090270226_CustomAttributesCacheGenerator_U3CU3Ef__switchU24map1BP21CustomAttributesCache
Ced:_cf2_glyphpath_moveTo
apm:_List_1_AddCollection_m1469681717_gshared
ypn:_Vector3_get_magnitude_m27958459_AdjustorThunk
eyf:_TypeDelegator_IsPointerImpl_m458295709
g3c:__ZNK13BoxCollider2D22GetTypeVirtualInternalEv
_Tc:__Z6b2FreePv10MemLabelId
aAc:__Z51Register_UnityEngine_Texture_get_texelSize_Injectedv
$Pm:__ZNK17Regex_t365730985320get_machineFactory_1Ev
_za:__ZN11HaloManager7AddHaloENS_9OwnerTypeE
$si:_ClientSessionInfo_Finalize_m2165787049
lFc:__ZN5IMGUI14GUIWindowStateD2Ev
Lqi:_ClientContext_Clear_m1774063253
cqc:__ZN4Mesh17SetIndicesComplexEPKvjj16GfxPrimitiveTypeij
M2i:__ZN21PublicKey_t377958268413set__params_2EP25AsnEncodedData_t382354011
$Mi:_DateTime_AddSeconds_m332574389_AdjustorThunk
snn:_RequestAtlasCallback_Invoke_m378128467
gKf:__ZNK24TypeMetadata_t313952326017get_MemberInfos_3Ev
k7h:_Byte_System_IConvertible_ToSByte_m1869482168
Ppo:__GLOBAL__sub_I_Assembly_cpp
w2k:__Z99RuntimeInvoker_RuntimeObject_RuntimeObject_RuntimeObject_StreamingContext_t3711869237_RuntimeObjectPFvvEPK10MethodInfoPvPS4_
mrn:__ZN32Vector4_t3319028937_StaticFields28set_positiveInfinityVector_7E19Vector4_t3319028937
k_a:__ZN15SerializeTraitsI13dynamic_arrayIN15ResourceManager10DependencyELj0EEE8TransferI24GenerateTypeTreeTransferEEvRS3_RT_
_tb:__ZN10MonoScript8TransferI19StreamedBinaryWriteEEvRT_
w_g:__Z37InternalEnumerator_1__ctor_m819716934P32InternalEnumerator_1_t1291559127P11Il2CppArrayPK10MethodInfo
Jml:__Z44RuntimeInvoker_MonoWin32Resource_t1904229483PFvvEPK10MethodInfoPvPS4_
U0i:__ZN25AsnEncodedData_t38235401110set__oid_0EP15Oid_t3552120260
n8f:_GameObject_Internal_AddComponentWithType_m3797731663
_g:_emscripten_glIsTexture
Tg:_emscripten_glHint
xKe:__ZL96MeshFilter_t3523625662_CustomAttributesCacheGenerator_MeshFilter_DontStripMeshFilter_m2877155929P21CustomAttributesCache
v3m:_Check_SourceAndPredicate_m2332465641
HUe:__ZL74ContactFilter2D_t3805203441_CustomAttributesCacheGenerator_useOutsideDepthP21CustomAttributesCache
Ele:__ZL70RuntimeArray_CustomAttributesCacheGenerator_Array_get_Length_m21610649P21CustomAttributesCache
hld:_ft_var_readpackeddeltas
dBf:__ZNK23ResourceSet_t282791118711get_Table_1Ev
MRe:__ZL80Logger_t274032455_CustomAttributesCacheGenerator_U3ClogEnabledU3Ek__BackingFieldP21CustomAttributesCache
_Zj:__ZN27SecurityContext_t243544204414set__capture_0Eb
uJj:__ZN24BinaryWriter_t399259504222set_maxCharsPerRound_6Ei
JMo:_GC_should_collect
QHg:__ZN34ReflectionMethodsCache_t210321106215set_raycast2D_2EP28Raycast2DCallback_t768590915
ZJd:__ZL58__ManagedRegistrationHelperFunction_VideoClipPlayableProxyPv
gin:__ZN35ToggleGroup_t123837990_StaticFields26set_U3CU3Ef__amU24cache1_7EP18Func_2_t3446800538
wBl:_UInt32_System_IConvertible_ToInt64_m2261037378
SDn:_CanvasRenderer_EnableRectClipping_Injected_m1138624799
Dd:_SDL_UpperBlit
QOg:__Z28List_1_get_Count_m1565416845P18List_1_t1260619206PK10MethodInfo
kya:__Z35GetTextureDecodeValuesWithIntensity16TextureUsageMode17TextureColorSpace10ColorSpacef
Ism:_Enumerator_Dispose_m277244561_gshared
Jga:__ZN9Scripting11UnityEngine12Experimental9Rendering16CullResultsProxy9InitProxyEv
yVd:__ZNK28PointerEventData_t380790109244get_U3CeligibleForClickU3Ek__BackingField_10Ev
Dgo:__ZN15dense_hashtableINSt3__24pairIK10KeyWrapperINS1_IPK9EventInfoP11Il2CppClassEEEjEES9_17ReflectionMapHashIS8_EN14dense_hash_mapIS9_jSD_NS9_14EqualsComparerINS0_8equal_toIS8_EEEENS0_9allocatorISB_EEE9SelectKeyESI_SK_E15set_deleted_keyERKSB_
eco:__ZN15dense_hashtableINSt3__24pairIK10KeyWrapperINS1_IPK12PropertyInfoP11Il2CppClassEEEjEES9_17ReflectionMapHashIS8_EN14dense_hash_mapIS9_jSD_NS9_14EqualsComparerINS0_8equal_toIS8_EEEENS0_9allocatorISB_EEE9SelectKeyESI_SK_ED2Ev
EDc:__ZL55__ManagedRegistrationHelperFunction_GUIScrollGroupProxyPv
VSc:__ZNK12b2MouseJoint10GetAnchorAEv
cxo:__ZN6il2cpp2vm5Image20EmbeddedResourceDataC2ENS0_22EmbeddedResourceRecordEPv
Uzj:_GregorianCalendar__ctor_m979779718
Fyi:_SslClientStream__ctor_m2402546929
oJh:__ZNK40SynchronizedContextReplySink_t377092265010get__att_2Ev
Rub:__ZN14SafeBinaryRead20OverrideRootTypeNameEPKc
iVi:_DictionaryNodeEnumerator_get_Entry_m2309234501
oMn:__ZNK10KeyWrapperIPK22Il2CppGenericParameterE14EqualsComparerINSt3__28equal_toIS2_EEEclERKS3_SA_
i8g:__ZN30InternalEnumerator_1_t837023449set_idx_1Ei
f$:__ZN14FileCacherRead16UnlockCacheBlockEj
oCk:_Enumerator_Dispose_m951715887_AdjustorThunk
e0g:_InternalEnumerator_1_System_Collections_IEnumerator_Reset_m521819017_AdjustorThunk
rvj:_IsolatedStorageException__ctor_m1022659452
Dml:__Z31RuntimeInvoker_Slot_t3975888750PFvvEPK10MethodInfoPvPS4_
eV:__ZN10InstancingL21OnGraphicsCapsChangedEv
Sfe:__ZN27GridLayoutGroup_t304622046124set_m_ConstraintCount_17Ei
cNo:_GC_notify_full_gc
aPe:__ZL101SystemInfo_t3561985952_CustomAttributesCacheGenerator_SystemInfo_GetOperatingSystemFamily_m1440411909P21CustomAttributesCache
hwl:_WaitHandle_get_Handle_m3260446580
NEk:_Enumerator_VerifyState_m1745883925_AdjustorThunk
csd:__ZN4core8hash_mapIN4math12int2_storageEPN19TilemapRendererJobs18TilemapRenderChunkENS3_22TilemapRenderChunkHashENSt3__28equal_toIS2_EEE6insertERKS2_RKS5_
Dh:_emscripten_glUniform1f
oBi:_SortedList__ctor_m1261191695
Ilo:__ZN6il2cpp2vm6Thread28GetThreadStaticDataForThreadEiP12Il2CppThread
R3l:_ReadOnlyCollection_1_System_Collections_IList_get_IsReadOnly_m165706550_gshared
XYk:__Z75RuntimeInvoker_Int32_t2950945753_DecimalU26_t3714369516_Int64U26_t200113976PFvvEPK10MethodInfoPvPS4_
cdd:__Z20ParseImageParametersR11UTF16StringRiRN20TextRenderingPrivate16TextFormatChangeE
k6e:__ZL55CanvasScaler_t2767979955_CustomAttributesCacheGeneratorP21CustomAttributesCache
JVl:_Collection_1_RemoveItem_m2942561924_gshared
Fh:_emscripten_glUniform1i
gPc:__ZN9Scripting11UnityEngine27ParticleSystemRendererProxy12CleanupProxyEv
mZd:_StandaloneInputModule_GetRawMoveVector_m2737091079
Amb:__Z18Transfer_BlittableI24GenerateTypeTreeTransferLb1EN4math12int3_storageEEvRK29SerializationCommandArgumentsR31RuntimeSerializationCommandInfo
P3f:_DisplaysUpdatedDelegate_Invoke_m3203573844
qLg:__Z14bankers_roundff
KL:__ZN11UnityEngine15CloudWebService16SessionContainer20RestoreSessionHeaderERKN4core12basic_stringIcNS2_20StringStorageDefaultIcEEEES8_RNS0_13SessionHeaderE
WHd:__ZN22UnityWebRequestManager13BackendRetainEv
qpc:__ZN8Material28ApplyMaterialPropertyDrawersEv
MSo:__ZN6il2cpp2os12Cryptography23GetCryptographyProviderEv
Xlj:__ZNK19MulticastDelegate_t15get_kpm_next_10Ev
oNn:__ZN24dense_hashtable_iteratorINSt3__24pairIK10KeyWrapperIPK22Il2CppGenericParameterEP11Il2CppClassEES6_N6il2cpp5utils11PointerHashIS4_EEN14dense_hash_mapIS6_S9_SE_NS6_14EqualsComparerINS0_8equal_toIS5_EEEENS0_9allocatorISA_EEE9SelectKeyESJ_SL_E30advance_past_empty_and_deletedEv
fSf:_SByte_System_IConvertible_ToByte_m2268214252_AdjustorThunk
R_l:_ReadOnlyCollection_1_System_Collections_IEnumerable_GetEnumerator_m3042843502_gshared
TEg:_MaskableGraphic_get_onCullStateChanged_m3331479633
z1k:__Z151RuntimeInvoker_RuntimeObject_Int32_t2950945753_RuntimeObject_ObjectU5BU5DU26_t712384779_RuntimeObject_RuntimeObject_RuntimeObject_ObjectU26_t2146539884PFvvEPK10MethodInfoPvPS4_
oDd:__ZN8JSONRead19TransferSTLStyleMapINSt3__23mapIN4core12basic_stringIcNS3_20StringStorageDefaultIcEEEEN11UnityEngine9Analytics16LimitEventConfigENS1_4lessIS7_EE13stl_allocatorINS1_4pairIKS7_SA_EEL18MemLabelIdentifier6ELi16EEEEEEvRT_17TransferMetaFlags
Hmi:__ZN25EncryptedData_t357754873314set__content_1EP23ContentInfo_t3218159896
e1d:_CanvasUpdateRegistry__ctor_m2005397069
FTe:__ZL77Input_t1431474628_CustomAttributesCacheGenerator_Input_GetAxisRaw_m2316819917P21CustomAttributesCache
ldn:__ZN24EventTrigger_t252745169518set_m_ApplyRules_3Eb
mZ:__ZN14MessageHandler3GetEv
R$a:__ZL19BlendLightProbesJobP19BlendProbesJobInputj
y1g:__Z74InternalEnumerator_1_System_Collections_IEnumerator_get_Current_m548105685P32InternalEnumerator_1_t1747214298PK10MethodInfo
I7f:_SupportedRenderingFeatures_FallbackMixedLightingModeByRef_m3859171964
bf:_emscripten_glAttachShader
wjc:__Z16tesedgeIntersectP10TESSvertexS0_S0_S0_S0_
lS:__Z40DebugStringToFilePostprocessedStacktraceRK21DebugStringToFileData
jje:_Image__cctor_m1927508576
cul:_SendOrPostCallback_EndInvoke_m2485163446
A7b:__ZNSt3__26vectorIN4core12basic_stringIcNS1_20StringStorageDefaultIcEEEENS_9allocatorIS5_EEE6assignIPS5_EENS_9enable_ifIXaasr21__is_forward_iteratorIT_EE5valuesr16is_constructibleIS5_NS_15iterator_traitsISC_E9referenceEEE5valueEvE4typeESC_SC_
_Ki:_CurrentSystemTimeZone_GetDaylightChanges_m2394763749
h0m:__ZNK26GUILayoutGroup_t215778969523get_m_ChildMinHeight_24Ev
WQa:__ZThn32_N8Renderer15AddAsRenderNodeER15RenderNodeQueueRK20DeprecatedSourceData
j9c:__ZN9Scripting11UnityEngine12TerrainProxy9InitProxyEv
MGb:__ZN13dynamic_arrayIN18GlslGpuProgramGLES9GLProgramELj0EE6insertEPS1_jRKS1_
Jgh:_InternalEnumerator_1_get_Current_m3331252162_AdjustorThunk
vEm:__ZN37BasicConstraintsExtension_t24621952788set_cA_3Eb
wke:__ZL76String_t_CustomAttributesCacheGenerator_String_Concat_m1809518182____values0P21CustomAttributesCache
$cn:_EventTrigger__ctor_m3931360164
ghb:__Z18Transfer_BlittableI14SafeBinaryReadLb0E11QuaternionfEvRK29SerializationCommandArgumentsR31RuntimeSerializationCommandInfo
d3c:__ZN13BoxCollider2D16CheckConsistencyEv
Hxb:__Z21BeginSplashScreenFadev
O2a:__ZN12ImmediatePtrI9TransformE8TransferI18StreamedBinaryReadEEvRT_
UR:_tlsf_walk_heap
_0k:__Z49RuntimeInvoker_Void_t1185182177_OpCode_t123070264PFvvEPK10MethodInfoPvPS4_
noo:__ZNK15dense_hashtableINSt3__24pairIK10KeyWrapperIP11Il2CppClassES4_EES5_N6il2cpp8metadata16SZArrayClassHashEN14dense_hash_mapIS5_S4_SA_NS5_14EqualsComparerINS9_19SZArrayClassCompareEEENS0_9allocatorIS7_EEE9SelectKeyESE_SG_E10test_emptyERK24dense_hashtable_iteratorIS7_S5_SA_SI_SE_SG_E
csn:__ZN21AudioClip_t368088966530set_m_PCMSetPositionCallback_5EP34PCMSetPositionCallback_t1059417452
Kal:__Z69RuntimeInvoker_Void_t1185182177_Int32_t2950945753_HitInfo_t3229609740PFvvEPK10MethodInfoPvPS4_
CVe:__ZL59AnimatorClipInfo_t3156717155_CustomAttributesCacheGeneratorP21CustomAttributesCache
Smg:_SceneManager_LoadScene_m2298600132
xb:invoke_vif
Hv:__ZN4PPtrI10MonoScriptE8TransferI19StreamedBinaryWriteEEvRT_
vb:invoke_vid
$8g:_InternalEnumerator_1__ctor_m2202456613_AdjustorThunk
j3m:__ZNK30SymmetricTransform_t380259184311get__rng_11Ev
Jb:invoke_vii
AOb:__ZNK12ImageFilters8DoRenderER17ShaderPassContextP13RenderTextureS3_RKNSt3__26vectorI11ImageFilterNS4_9allocatorIS6_EEEE
xli:__ZNK22RSAManaged_t17570938208get_e_13Ev
V_m:_GUIContent_set_text_m607297463
Bma:__ZN12TLSAllocatorI14StackAllocatorE16ThreadInitializeEP13BaseAllocator
i3k:__Z82RuntimeInvoker_Boolean_t97287965_SByte_t1669577662_RuntimeObject_SByte_t1669577662PFvvEPK10MethodInfoPvPS4_
dab:__ZN9GfxDevice32UpdateStereoViewProjectionMatrixE21MonoOrStereoscopicEye
UWa:__ZN12InputManager23VirtualRedirectTransferER18StreamedBinaryRead
cFo:__ZN6il2cpp5utils13dynamic_arrayIPNS_2os6ThreadELj4EE9owns_dataEv
yei:__ZNK21Hashtable_t185388976618get_comparerRef_10Ev
bO:__Z29GetCloudWebServicesModuleSpecv
myd:__Z41CanvasRenderer_CUSTOM_DisableRectClippingP12Il2CppObject
Kkj:_MonoType_GetConstructorImpl_m441167626
Dmb:__Z18Transfer_BlittableI24GenerateTypeTreeTransferLb0EN4math12int2_storageEEvRK29SerializationCommandArgumentsR31RuntimeSerializationCommandInfo
eHo:__ZN6il2cpp6icalls8mscorlib6System13GlobalizationL24string_invariant_compareEP12Il2CppStringiiS5_iii
leg:__Z39UnityEvent_1_RemoveListener_m1448056678P24UnityEvent_1_t2052235288P25UnityAction_1_t1755411925PK10MethodInfo
H8l:__ZN23GenericVirtFuncInvoker1Ib25RaycastResult_t3360306849E6InvokeEPK10MethodInfoP12Il2CppObjectS0_
ntm:__ZN19Queue_1_t120077810611set__head_1Ei
vch:__ZNK31InternalEnumerator_1_t8185070639get_idx_1Ev
hxm:_Collection_1_IsFixedSize_m3709118201_gshared
p8a:__ZN25SingleBlockMemoryFileDataD0Ev
bx:__ZNSt3__26vectorI14ConstantStringNS_9allocatorIS1_EEE6assignINS_11__wrap_iterIPS1_EEEENS_9enable_ifIXaasr21__is_forward_iteratorIT_EE5valuesr16is_constructibleIS1_NS_15iterator_traitsISA_E9referenceEEE5valueEvE4typeESA_SA_
V3l:_ReadOnlyCollection_1_CopyTo_m586367390_gshared
wL:__ZN11UnityEngine15CloudWebService16SessionContainer21ConvertFromFolderTimeERKN4core12basic_stringIcNS2_20StringStorageDefaultIcEEEEPjPt
tQc:__Z18RegisterUnityClassI27PerformanceReportingManagerEvPKc
DDj:__ZNK30DateTimeFormatInfo_t240585370124get_yearMonthPatterns_37Ev
ssb:__Z19TransferField_ArrayI18StreamedBinaryRead27Converter_SimpleNativeClassI17AnimationCurveTplIfEEEvRK23StaticTransferFieldInfoR31RuntimeSerializationCommandInfoRT0_
Sib:__ZNSt3__26vectorI8GUIStyle13stl_allocatorIS1_L18MemLabelIdentifier1ELi16EEE7reserveEj
CUa:__ZN4Mesh23VirtualRedirectTransferER18StreamedBinaryRead
ghk:_Array_InternalArray__ICollection_CopyTo_TisKeyframe_t4206410242_m2132255743_gshared
Pqo:__ZN6il2cpp6icalls8mscorlib6System9Threading6Thread27GetSerializedCurrentCultureEP12Il2CppThread
Bek:__ZN21InterfaceFuncInvoker2IibbE6InvokeEjP11Il2CppClassP12Il2CppObjectbb
Glh:__ZN22Enumerator_t392300227024get_address_of_current_3Ev
_Hl:_RijndaelTransform_SubByte_m3037693507
oLe:__ZL70Mesh_t3648964284_CustomAttributesCacheGenerator_Mesh__ctor_m2533762929P21CustomAttributesCache
Pie:__ZNK30Image_t2670269651_StaticFields18get_s_UVScratch_43Ev
Ebc:__Z31CalculateHierarchyTransformType23TransformAccessReadOnly
RA:__ZN4FMOD8ChannelI11setPositionEjj
V8f:_Input_INTERNAL_CALL_GetTouch_m3481893561
I$c:__ZN10Collider2D12SetPolygon2DEP9Polygon2D
ryk:__ZN22Enumerator_t34586065847set_l_0EP18List_1_t1569362707
kNo:_GC_set_fl_marks
kMd:__ZNK25AxisEventData_t233124365237get_U3CmoveVectorU3Ek__BackingField_2Ev
kZa:__ZNSt3__26vectorIN30RuntimeInitializeOnLoadManager15ClassMethodInfoE13stl_allocatorIS2_L18MemLabelIdentifier13ELi16EEE7reserveEj
gab:__ZN9GfxDevice17SetStereoViewportE15StereoscopicEyeRK5RectTIiE
C6:__ZN17BaseObjectManager13StaticDestroyEPv
$ki:__ZN25RSAParameters_t17284066138set_DQ_4EP22ByteU5BU5D_t4116647657
hQ:__GLOBAL__sub_I_Runtime_Graphics_Mesh_1_cpp
gCf:_ClassInterfaceAttribute__ctor_m637338123
SXc:__ZN27b2UpdateTriggerContactsTask8FinalizeEv
xG:__ZN12AudioManager14UpdateListenerERK8Vector3fS2_S2_S2_
Gle:__ZL70RuntimeArray_CustomAttributesCacheGenerator_Array_get_Rank_m3448755881P21CustomAttributesCache
fbf:_EnumBuilder_GetEvent_m4074915332
sKe:__ZL97Material_t340375123_CustomAttributesCacheGenerator_Material_CreateWithString_m4283839020____self0P21CustomAttributesCache
Gpn:_Vector3_get_forward_m3100859705
Sy:__ZN4FMOD6Reverb13setPropertiesEPK22FMOD_REVERB_PROPERTIES
Mga:__ZN9Scripting11UnityEngine12Experimental9Rendering21CoreCameraValuesProxy12CleanupProxyEv
kQb:__ZN9DepthPass13PrepareSubsetEjRK10RenderNodeifRK17ShaderReplaceData
y1j:_String_IndexOf_m3406607758
EMn:__ZNK30dense_hashtable_const_iteratorINSt3__24pairIK10KeyWrapperIPK22Il2CppGenericParameterEP11Il2CppClassEES6_N6il2cpp5utils11PointerHashIS4_EEN14dense_hash_mapIS6_S9_SE_NS6_14EqualsComparerINS0_8equal_toIS5_EEEENS0_9allocatorISA_EEE9SelectKeyESJ_SL_EneERKSO_
_Gh:__ZNK20Identity_t187327937130get__serverDynamicProperties_4Ev
r6b:__ZN9ShaderLab20SerializedSubProgram16TextureParameter8TransferI14SafeBinaryReadEEvRT_
yki:__ZN34EncryptedPrivateKeyInfo_t86211683616set__algorithm_0EP8String_t
yka:__ZN5Unity9Component8TransferI19StreamedBinaryWriteEEvRT_
zhi:_ASN1__ctor_m3517592395
Xug:__ZN22InputField_t376291743131get_address_of_m_ContentType_22Ev
f7c:__ZN9Scripting11UnityEngine26ControllerColliderHitProxy12CleanupProxyEv
NGm:_SafeBag_get_BagOID_m2153399743
kqc:__Z35SetMeshComponentFromArrayFromScriptR4Mesh30InternalScriptingShaderChannel34InternalScriptingVertexChannelTypei17ScriptingArrayPtri
$db:__Z22GetRenderTextureFormat14GraphicsFormat
Dfk:_Array_InternalArray__ICollection_Add_TisCustomAttributeNamedArgument_t287865710_m4157175270_gshared
Agh:__ZNK32InternalEnumerator_1_t306329364011get_array_0Ev
jGf:__ZNK37WellKnownServiceTypeEntry_t256152718013get_obj_uri_3Ev
Rq:__ZN4core20StringStorageDefaultIcE6assignEPKcj
W$b:__ZN23TextureStreamingManager6UpdateEv
Fob:__Z15Transfer_StringI19StreamedBinaryWriteLb0EEvRK29SerializationCommandArgumentsR31RuntimeSerializationCommandInfo
Ogi:_BigInteger_ModPow_m3776562770
qXf:_KeyedHashAlgorithm_get_Key_m1843505301
VAo:__ZN15dense_hashtableINSt3__24pairIK10KeyWrapperIP12Il2CppObjectEN6il2cpp2gc9CachedCCWEEES5_NS7_5utils11PointerHashIS3_EEN14dense_hash_mapIS5_S9_SD_NS5_14EqualsComparerINS0_8equal_toIS4_EEEENS0_9allocatorISA_EEE9SelectKeyESI_SK_E3endEv
nfa:__ZN9Scripting11UnityEngine9Playables22PlayableBehaviourProxy9InitProxyEv
tcj:__ZN46NumberFormatter_t1182924621_ThreadStaticFields28set_threadNumberFormatter_25EP27NumberFormatter_t1182924621
qxi:_RecordProtocol_ProcessChangeCipherSpec_m15839975
_9h:_ArrayList_IndexOf_m305368842
T7l:_Predicate_1_EndInvoke_m3675319632_gshared
brm:_List_1_Add_m2996644200_gshared
e_b:__ZN6Camera6SetFarEf
iHf:_FormatterConverter_ToBoolean_m1680758923
R9:__ZN6prcoreL12RemapGenericI17TexFormatABGR888817TexFormatARGB8888EEvPKNS_9InnerInfoE
_ma:__ZN11GameManager17MainThreadCleanupEv
XCi:_Stack_get_Count_m2258661097
fYl:_ReadOnlyCollection_1__ctor_m1345363288_gshared
Lzd:__Z50Register_UnityEngine_UISystemProfilerApi_EndSamplev
HBo:__ZN6il2cpp2vm27StacktraceSentryMethodStackC2Ev
Mrc:__ZN19RuntimeSceneManager32LoadSceneAsyncByNameOrBuildIndexERKN4core12basic_stringIcNS0_20StringStorageDefaultIcEEEEi16SceneLoadingModeb
wRk:__ZNK22DSAManaged_t280026018219get_KeyGenerated_14Ev
fEf:__ZN21InterfaceFuncInvoker0IP12MethodBase_tE6InvokeEjP11Il2CppClassP12Il2CppObject
gdh:_InternalEnumerator_1_System_Collections_IEnumerator_Reset_m1775752715_AdjustorThunk
e5g:__ZNK32InternalEnumerator_1_t139145510411get_array_0Ev
HNn:__ZL19GetEncodedIndexTypej
nJi:_Convert_ToSingle_m2891972375
FHe:__ZL91Application_t1852185770_CustomAttributesCacheGenerator_Application_get_isPlaying_m100394690P21CustomAttributesCache
Sfh:__Z41InternalEnumerator_1_MoveNext_m3686444574P31InternalEnumerator_1_t669594426PK10MethodInfo
bEh:_ConfigHandler_OnProcessingInstruction_m4212209262
A$c:__ZN10Collider2D12AddToManagerEv
nmm:_List_1_Reverse_m3290386475_gshared
mKf:_SerializationCallbacks_GetSerializationCallbacks_m2939476649
Seb:__ZNSt3__26vectorIN20GpuProgramParameters19AtomicCounterBufferENS_9allocatorIS2_EEE21__push_back_slow_pathIRKS2_EEvOT_
Lkd:_UNITY_tt_slot_init
NPn:_TileData_set_sprite_m2765088979
xLb:__ZZ23InitPlayerLoopCallbacksvEN41PostLateUpdateUpdateResolutionRegistrator7ForwardEv
Zrh:_KeyCollection_GetEnumerator_m1168803204_gshared
utb:__Z25scripting_array_class_get17ScriptingClassPtrj
uJc:__ZL22Transfer_ManagedObjectI9JSONWriteLb1EEvRK29SerializationCommandArgumentsR31RuntimeSerializationCommandInfo
rF:__ZNK10SampleClip22GetTypeVirtualInternalEv
abb:__ZN9GfxDevice20DestroyRenderSurfaceER12ObjectHandleI17RenderSurface_TagP17RenderSurfaceBaseE
aKg:__ZN22ScrollRect_t413785581413set_m_Rect_35EP25RectTransform_t3704657025
Jp:__ZN9Scripting11UnityEngine2AI12NavMeshProxy12CleanupProxyEv
Xbc:__ZL24PrepareSpriteRenderNodesILb1EEvR35RenderNodeQueuePrepareThreadContext
qfj:_Int32_System_IConvertible_ToInt32_m265310525_AdjustorThunk
I4h:_Array_slow_swapper_m4116724811
XYb:__ZN12_GLOBAL__N_15qAsinEff
v3f:_Display__ctor_m3105658851
_zi:_HashValues_get_IsSynchronized_m3461082747
F_g:_InternalEnumerator_1_System_Collections_IEnumerator_get_Current_m2629988057_AdjustorThunk
Cma:__ZN12TLSAllocatorI14StackAllocatorE13ThreadCleanupEv
Kkk:_Dictionary_2_get_Item_m2136868513_gshared
LRa:__ZN14SafeBinaryRead21TransferSTLStyleArrayI13dynamic_arrayI8Vector4fLj0EEEEvRT_17TransferMetaFlags
$A:__Z18GetAudioManagerPtrv
bPj:__ZNK24StreamReader_t400993589917get_buffer_size_5Ev
lri:_Context_get_HandshakeMessages_m3655705111
sJo:__ZThn4_N6il2cpp2vm13ComObjectBase16MarshalInterfaceEP13Il2CppIStreamRK10Il2CppGuidPvjS7_j
XAi:_Queue_Clone_m178259971
k4b:__Z27FindActiveTransformWithPathPKc
O0l:_ReadOnlyCollection_1_System_Collections_IList_Remove_m4169110229_gshared
aBl:_UInt16_ToString_m3020002356
tCg:_LayoutRebuilder_LayoutComplete_m68578143
QLn:_RequiredByNativeCodeAttribute__ctor_m119855101
ppa:__ZN12BaseRendererD0Ev
uqf:__ZN30MarshalAsAttribute_t352257197815set_SizeConst_5Ei
K2b:__Z29StdTemplateConversionFunctionIbyEbPvR14SafeBinaryRead
Tyn:__ZL25UnresolvedVirtualCall_187P12Il2CppObject23SpriteState_t1362986479S1_PK10MethodInfo
NHl:_RijndaelManaged_GenerateKey_m1736287430
TUi:__ZNK26ListDictionary_t162449231011get_count_0Ev
p2d:__Z25Il2CppCodeGenWriteBarrierI24Comparison_1_t1896830045EvPPT_S2_
k$j:__ZNK33Encoding_t1523322056_StaticFields22get_unicodeEncoding_22Ev
rrn:_WaitForSeconds_t1699091251_marshal_pinvoke
C0e:__ZL90PointerEventData_t3807901092_CustomAttributesCacheGenerator_U3ClastPressU3Ek__BackingFieldP21CustomAttributesCache
uSj:_SHA1Internal_Initialize_m499810128
crm:__ZN17List_1_t49613638311set__size_2Ei
w9f:__ZNK17Logger_t27403245540get_U3CfilterLogTypeU3Ek__BackingField_2Ev
pSb:__ZNK6Camera7GetNearEv
cRi:__ZN22StackFrame_t321725305914set_ilOffset_1Ei
vcf:_GenericTypeParameterBuilder_GetConstructorImpl_m863833310
_Lo:_GC_size
drh:_Enumerator_get_Current_m3687673883_AdjustorThunk
Y3a:__ZN17FileSystemHandler11SetReadOnlyER13FileEntryDatab
tGb:__ZN7ApiGLES11UnmapBufferEjN2gl12BufferTargetE
kKo:__ZN6il2cpp5utilsL24Utf32CharToSurrogatePairEjRA2_Ds
nLa:__Z25GetNextAllowedTextureSizeib13TextureFormat
rwb:__ZN20LocalFileSystemWebGL4CopyER13FileEntryDataS1_
$ym:__ZNK28SslHandshakeHash_t210758177218get_innerPadSHA_10Ev
fda:__ZL68__ManagedRegistrationHelperFunction_UnitySynchronizationContextProxyPv
KO:__ZN19CloudServiceHandler6RetainEv
eVo:__ZN6il2cpp2os9Semaphore4WaitEb
WRc:__ZN15b2FrictionJointD0Ev
aZl:_ReadOnlyCollection_1_System_Collections_IList_IndexOf_m198887188_gshared
pfl:__Z71RuntimeInvoker_Vector2_t2156229523_Vector2_t2156229523_Rect_t2360479859PFvvEPK10MethodInfoPvPS4_
rGc:__Z36Event_CUSTOM_Internal_SetNativeEventPv
Wpl:_UTF32Encoding_GetBytes_m3180303867
Iwc:__Z51GraphicsFormatUtility_CUSTOM_GetRenderTextureFormat14GraphicsFormat
mrm:_List_1_CopyTo_m4034402519_gshared
T_l:_ReadOnlyCollection_1_System_Collections_IList_Clear_m2007013334_gshared
g1a:__Z34scripting_liveness_calculation_endPv
RCc:__ZNK19RectangleCellLayout13GetCellCenterEv
_7h:_Char_GetDataTablePointers_m754571594
dFo:__ZN6il2cpp2os6ThreadC2Ev
z6l:__Z25Func_2_Invoke_m3516477887P17Func_2_t764290984P12Il2CppObjectPK10MethodInfo
KTg:_U3CGetEnumeratorU3Ec__Iterator0_System_Collections_Generic_IEnumeratorU3CTU3E_get_Current_m1566629109_gshared
Gfc:__ZN28ReflectionProbeAnchorManager7CleanupEv
LPg:__Z54Component_GetComponent_TisImage_t2670269651_m980647750P21Component_t1923634451PK10MethodInfo
Zxj:__ZNK36CompareInfo_t1092934962_StaticFields15get_collators_6Ev
jOi:_DateTimeOffset_get_UtcDateTime_m1021718282_AdjustorThunk
Abo:__ZN14dense_hash_mapI10KeyWrapperINSt3__24pairIPK12PropertyInfoP11Il2CppClassEEEj17ReflectionMapHashIS8_ENS9_14EqualsComparerINS1_8equal_toIS8_EEEENS1_9allocatorINS2_IKS9_jEEEEE6insertERKSI_
awl:_TimerCallback_BeginInvoke_m2250763656
$Uf:__ZNK24DESTransform_t408890549918get_keySchedule_16Ev
cTd:__Z31UnityAction_1__ctor_m1370432988P25UnityAction_1_t1116627437P12Il2CppObjectiPK10MethodInfo
Qpb:__ZL22Transfer_ManagedObjectI19StreamedBinaryWriteLb0EEvRK29SerializationCommandArgumentsR31RuntimeSerializationCommandInfo
CCo:__ZNK6il2cpp2os10SocketImpl12GetLastErrorEv
oUi:_HybridDictionary_get_Count_m1166314536
VDm:_TlsStream_Write_m1412844442
YKc:__Z18Transfer_BlittableI8JSONReadLb0E8Vector3fEvRK29SerializationCommandArgumentsR31RuntimeSerializationCommandInfo
Ufe:__ZNK27GridLayoutGroup_t304622046120get_m_StartCorner_12Ev
Tag:_Matrix4x4__ctor_m53065545_AdjustorThunk
elo:__ZN6il2cpp2vm6Thread6DetachEP12Il2CppThread
XEm:_GeneralNames_get_DNSNames_m3788548987
Gfm:_List_1_AddCollection_m2026039026_gshared
EOe:__ZL52Resources_t2942265397_CustomAttributesCacheGeneratorP21CustomAttributesCache
Dnd:_Render_Single_Pass
kbe:__ZNK19FontData_t74662006915get_m_MinSize_4Ev
wgn:__Z29Enumerator_Dispose_m536244888P22Enumerator_t2125101616PK10MethodInfo
wPh:__ZN32DictionaryEnumerator_t251672955220set__hashtableEnum_1EP12Il2CppObject
Xrn:_AudioMixerPlayable_GetHandle_m57919556
zQf:_SerializationEntry_t648286436_marshal_pinvoke
gv:__ZN7mecanim8skeleton30SkeletonBuildReverseIndexArrayEPiPKiPKNS0_8SkeletonES6_
SEc:__Z19GetGUIBlendMaterialv
IEf:__ZN23ChannelData_t335362997222set__clientProviders_5EP21ArrayList_t2718874744
vij:_Math_Round_m3018379666
h4k:__Z41RuntimeInvoker_Boolean_t97287965_IntPtr_tPFvvEPK10MethodInfoPvPS4_
nGo:__ZN6il2cpp2os10ThreadImpl5SleepEjb
Sth:__ZN28GenericInterfaceFuncInvoker1IbbE6InvokeEPK10MethodInfoP12Il2CppObjectb
cZl:_ReadOnlyCollection_1_System_Collections_IList_Remove_m1965826685_gshared
aOm:__ZN27MatchCollection_t139536372010set_list_1EP21ArrayList_t2718874744
xMb:__ZN10GUITexture18AlignPointToDeviceERK8Vector2fRS0_
QXe:__ZL82LayoutCache_t78309876_CustomAttributesCacheGenerator_LayoutCache__ctor_m3885940174P21CustomAttributesCache
TPi:_Delegate_CreateDelegate_m1051651521
rak:_PlayableHandle_IsPlayableOfType_TisRuntimeObject_m503495943_AdjustorThunk
oZh:__ZNK29X501_t1758824425_StaticFields12get_title_11Ev
a7o:_glBindSampler__wrapper
x_g:_InternalEnumerator_1_System_Collections_IEnumerator_Reset_m4202665280_gshared
DKb:__ZNSt3__26vectorIN20ArchiveStorageHeader12StorageBlockE13stl_allocatorIS2_L18MemLabelIdentifier55ELi16EEE8__appendEj
zi:_emscripten_set_mouseup_callback
oag:_Mathf_Clamp_m3350697880
Scb:__ZN9GfxDevice27SetRandomWriteTargetTextureEi9TextureID
YHj:__ZN24BinaryReader_t242807729314set_m_stream_0EP18Stream_t1273022909
ykk:_Dictionary_2_System_Collections_Generic_ICollectionU3CSystem_Collections_Generic_KeyValuePairU3CTKeyU2CTValueU3EU3E_Contains_m3033743418_gshared
x3k:__Z165RuntimeInvoker_Void_t1185182177_UInt32U26_t3735378166_Int32_t2950945753_UInt32U26_t3735378166_Int32_t2950945753_Int32_t2950945753_Int32_t2950945753_Int32_t2950945753PFvvEPK10MethodInfoPvPS4_
OTj:_SHA384Managed_processWord_m3832940157
O4j:_Encoding_get_DecoderFallback_m1525880676
tve:__ZL59ITrackingHandler_t1244553475_CustomAttributesCacheGeneratorP21CustomAttributesCache
CCn:_TextGenerator_Populate_Internal_Injected_m1708852755
tRm:_CompositeExpression__ctor_m2434860303
MWf:_DSASignatureDeformatter__ctor_m2759753186
S7i:_X509ChainElementCollection_System_Collections_IEnumerable_GetEnumerator_m3829089536
qUl:_Collection_1_System_Collections_IEnumerable_GetEnumerator_m801406918_gshared
kwb:__ZNK18ScreenManagerWebGL8GetWidthEv
n0g:_InternalEnumerator_1_Dispose_m3716424577_gshared
Llg:_ReflectionProbe_CallReflectionProbeEvent_m1520775591
hxh:__Z59Enumerator_System_Collections_IEnumerator_Reset_m4283504067P21Enumerator_t572278398PK10MethodInfo
J_n:__ZN6il2cpp2vm13MetadataCache33GetFieldDefaultValueDataFromIndexEi
Vwl:_TimeSpan_get_TotalHours_m306507525_AdjustorThunk
oF:__ZN10SampleClipD2Ev
b_i:__ZNK26HttpWebRequest_t166943651514get_version_21Ev
V8m:__ZN41U3CSpawnMeteorU3Ec__Iterator0_t316445981720set_U3CspeedU3E__1_2Ef
a9l:_Predicate_1_Invoke_m2389850270_gshared
jMf:_SerializationObjectManager_RegisterObject_m951822324
C0a:__Z13GetGISettingsv
zkc:__ZN19SpriteMeshGenerator7contourERNSt3__26vectorINS_6vertexENS0_9allocatorIS2_EEEERiRf
uO:__ZN11UnityEngine15CloudWebService20WebRequestRestClientC2Ev
kgd:_cff_cmap_unicode_init
o8j:_Array_InternalArray__ICollection_Contains_TisRuntimeObject_m4067783231_gshared
yEb:__ZNSt3__214__split_bufferINS_4pairIj16TextureDimensionEERNS_9allocatorIS3_EEE9push_backEOS3_
i$:__ZN14FileCacherRead13GetFileLengthEv
Hcm:_UnityAction_1_EndInvoke_m542551745_gshared
Oag:__ZN21Matrix4x4_t181790184310set_m23_14Ef
Dvm:_Collection_1_IsValidItem_m3080586124_gshared
R8d:_DropdownItem_set_text_m3702712387
q2d:_ClipperRegistry_Register_m2407166513
os:__ZL22GetComponentsInParentsRK10GameObjectPFbRKN5Unity9ComponentEERN4core8hash_setIPS3_NS8_4hashISA_EENSt3__28equal_toISA_EEEE
Jco:__ZN15dense_hashtableINSt3__24pairIK10KeyWrapperINS1_IPK9EventInfoP11Il2CppClassEEEjEES9_17ReflectionMapHashIS8_EN14dense_hash_mapIS9_jSD_NS9_14EqualsComparerINS0_8equal_toIS8_EEEENS0_9allocatorISB_EEE9SelectKeyESI_SK_E12resize_deltaEjj
ftf:_MonoCMethod_Invoke_m2700167622
dAi:_KeyMarker__cctor_m2590194914
LSo:__ZN6il2cpp8metadata14Il2CppTypeHash4HashEPK10Il2CppType
XTo:__ZN6il2cpp2os13SemaphoreImplC2Eii
Gwh:__ZN22Enumerator_t201358790621set_host_enumerator_0E22Enumerator_t3398877024
cEl:_Version__ctor_m872301635
Lbh:__Z40InternalEnumerator_1_Dispose_m3517794894P32InternalEnumerator_1_t4267370966PK10MethodInfo
DYh:__ZN26X509Certificate_t48924302418set_m_issuername_5EP8String_t
h1c:__ZNSt3__26vectorIN10ClipperLib8IntPointENS_9allocatorIS2_EEE21__push_back_slow_pathIS2_EEvOT_
sCc:__ZNK4Grid23LocalToCellInterpolatedERKN4math7_float3E
ECn:_TextGenerator_PopulateWithErrors_m1222498386
Vdo:__ZN6il2cpp2vm10Reflection27GetCustomAttributesCacheForEPK10MethodInfo
V$l:_ReadOnlyCollection_1_System_Collections_Generic_ICollectionU3CTU3E_Clear_m2102011098_gshared
SDb:__ZN11ContextGLES6CreateEi
xDn:_WillRenderCanvases_BeginInvoke_m1804779886
ial:__Z52RuntimeInvoker_Boolean_t97287965_Vector3_t3722313464PFvvEPK10MethodInfoPvPS4_
_Td:__ZN25RaycastResult_t336030684911set_index_3Ef
Rgl:__Z68RuntimeInvoker_Boolean_t97287965_RuntimeObject_ObjectU26_t2146539884PFvvEPK10MethodInfoPvPS4_
ozg:_U3CMouseDragOutsideRectU3Ec__Iterator1_Dispose_m267465418
sPi:_Decimal_CompareTo_m3502307243_AdjustorThunk
FXg:_InternalEnumerator_1_System_Collections_IEnumerator_Reset_m3677481164_gshared
LKg:__ZNK22ScrollRect_t413785581417get_m_Velocity_25Ev
Wma:__ZN14StackAllocator16FrameMaintenanceEb
uNa:__Z18ReadStringFromFilePN4core17string_with_labelILi1EEERKNS_12basic_stringIcNS_20StringStorageDefaultIcEEEE
RJc:__ZN9JSONWrite8TransferI13dynamic_arrayIjLj0EEEEvRT_PKc17TransferMetaFlags
S$:__ZNK10GameObject20QueryComponentByTypeEPKN5Unity4TypeE
OOi:_Decimal_System_IConvertible_ToInt32_m1488426794_AdjustorThunk
Oqa:__ZN6Camera8TransferI19StreamedBinaryWriteEEvRT_
fjj:_MonoCustomAttrs_IsUserCattrProvider_m2878058089
W3e:__ZL71InputField_t3762917431_CustomAttributesCacheGenerator_m_HideMobileInputP21CustomAttributesCache
oYn:__ZNK14dense_hash_setI10KeyWrapperIPK19Il2CppGenericMethodEN6il2cpp8metadata23Il2CppGenericMethodHashENS4_14EqualsComparerINS6_26Il2CppGenericMethodCompareEEENSt3__29allocatorIS4_EEE3endEv
u_m:__ZN26GUILayoutEntry_t321461157010set_rect_4E16Rect_t2360479859
AKa:__ZN11TextureData5ResetEv
Qvc:__Z53Register_UnityEngine_GameObject_get_activeInHierarchyv
aWj:_ToBase64Transform_InternalTransformFinalBlock_m360524956
g1h:_ActivationContext_Dispose_m2038725770
Dkb:__Z35Transfer_Blittable_FixedBufferFieldI17RemapPPtrTransferiEvRK29SerializationCommandArgumentsR31RuntimeSerializationCommandInfo
_W:__ZL30InitializeCoreScriptingClassesv
A1l:_ReadOnlyCollection_1_Contains_m1699971074_gshared
a8g:_InternalEnumerator_1_Dispose_m630370856_AdjustorThunk
dj:_glBlitFramebuffer
$6a:__ZN17ArchiveFileSystem5TouchER13FileEntryData
gsh:_KeyCollection_System_Collections_Generic_IEnumerableU3CTKeyU3E_GetEnumerator_m818204647_gshared
ykb:__Z35Transfer_Blittable_SingleValueFieldI14SafeBinaryReadhEvRT_R17GeneralMonoObjectRK23StaticTransferFieldInfo
KWh:_Buffer_ByteLengthInternal_m1388208719
yCn:__ZN25TextGenerator_t321186386620set_m_LastSettings_2E34TextGenerationSettings_t1351628751
Sgg:__ZNK26PlayableOutput_t317989410514get_m_Handle_0Ev
NHa:__ZNK12CubemapArray22GetTypeVirtualInternalEv
XFm:__ZNK31PKCS12_t4101533061_StaticFields29get_U3CU3Ef__switchU24map6_13Ev
ro:FUNCTION_TABLE_vif
po:FUNCTION_TABLE_vid
dIh:_ContextAttribute_GetPropertiesForNewContext_m1632930262
Do:FUNCTION_TABLE_vii
r1a:__Z40scripting_liveness_calculation_from_root18ScriptingObjectPtrPv
S2e:__ZL67OptionDataList_t1438173104_CustomAttributesCacheGenerator_m_OptionsP21CustomAttributesCache
rWj:__ZN29TripleDESTransform_t9641690609set_E2_16EP24DESTransform_t4088905499
xue:__ZL65IContributeDynamicSink_t2255997386_CustomAttributesCacheGeneratorP21CustomAttributesCache
Tfj:_Int32_TryParse_m135955795
Lsc:__ZN17Gradient_Bindings4InitEv
qFd:__ZN11UnityEngine9Analytics18ConnectSessionInfoC2Ev
ACa:__ZN7Texture23VirtualRedirectTransferER24GenerateTypeTreeTransfer
xbd:_UNITY_FT_Set_Transform
Ugc:__ZNK32RendererMaterialAnimationBinding12SetPPtrValueERKN11UnityEngine9Animation10BoundCurveEi
$Sa:__ZN14SpriteRenderer16CheckConsistencyEv
O3f:__ZNK32Display_t1387065949_StaticFields23get_onDisplaysUpdated_3Ev
F6o:_glDeleteFramebuffers__wrapper
wum:_Collection_1_System_Collections_IList_get_IsFixedSize_m2620019318_gshared
a$k:__Z220RuntimeInvoker_Boolean_t97287965_RuntimeObject_Int32U26_t1369213839_Int32_t2950945753_Int32_t2950945753_Int32_t2950945753_RuntimeObject_SByte_t1669577662_Int32_t2950945753_ContractionU26_t961830454_ContextU26_t3937453398PFvvEPK10MethodInfoPvPS4_
S$m:__ZNK26GUILayoutGroup_t215778969517get_isVertical_11Ev
xOe:__ZL73Rect_t2360479859_CustomAttributesCacheGenerator_Rect_get_zero_m4034156123P21CustomAttributesCache
_ei:__ZN16VirtFuncInvoker2IbP12Il2CppObjectS1_E6InvokeEjS1_S1_S1_
ysl:__ZN28ExecutionContext_t17483726279set__sc_0EP27SecurityContext_t2435442044
Cpe:__ZL78TextInfo_t3810425522_CustomAttributesCacheGenerator_TextInfo_Clone_m3838580862P21CustomAttributesCache
ved:_cff_blend_build_vector
g0i:_WebHeaderCollection_ToString_m1263025316
m7g:_InternalEnumerator_1_MoveNext_m1015797184_gshared
V1k:__Z91RuntimeInvoker_Void_t1185182177_RuntimeObject_RuntimeObject_RuntimeObject_Int32_t2950945753PFvvEPK10MethodInfoPvPS4_
cwf:_GetterAdapter_Invoke_m3767885970
Rdm:__ZN24UnityEvent_1_t227892627819set_m_InvokeArray_4EP24ObjectU5BU5D_t2843939325
RPf:_InstanceComparer__ctor_m2655670473
ugf:_MethodBuilder_get_ReflectedType_m3038768129
iAc:__Z44Register_UnityEngine_RenderTexture_set_widthv
e4j:_String_CreateString_m2818852475
Q4l:__Z31Comparison_1_Invoke_m1103021447P24Comparison_1_t237543247119Color32_t2600501292S1_PK10MethodInfo
nBk:_Enumerator_get_Current_m335492761_AdjustorThunk
smc:__Z22GenerateBoxTilingShapeP22GenerateTilingAreaInfo
HPa:__ZN28EnlightenRendererInformation8TransferI14SafeBinaryReadEEvRT_
pBm:__ZNK25SslStreamBase_t166741340716get_ownsStream_7Ev
KDn:_CanvasRenderer_get_hasMoved_m2236392341
GVa:__ZN14SharedMeshData14GetBoneWeightsEi
Xdg:_MessageEvent__ctor_m1231650089
K3a:__ZNK15Lz4Decompressor16DecompressMemoryEPKvPjPvS2_
djd:_UNITY_tt_face_build_cmaps
v9n:__ZN15dense_hashtableINSt3__24pairIK10KeyWrapperINS1_IPK10MethodInfoP11Il2CppClassEEEjEES9_17ReflectionMapHashIS8_EN14dense_hash_mapIS9_jSD_NS9_14EqualsComparerINS0_8equal_toIS8_EEEENS0_9allocatorISB_EEE9SelectKeyESI_SK_E13clear_deletedER30dense_hashtable_const_iteratorISB_S9_SD_SM_SI_SK_E
Eij:_MemberAccessException__ctor_m3713703094
Wt:__ZN9Scripting11UnityEngine10Animations21ConstraintSourceProxy9InitProxyEv
era:__Z11IsCoroutine18ScriptingMethodPtrRK22CommonScriptingClasses
Hqe:__ZL117GenericTypeParameterBuilder_t1988827940_CustomAttributesCacheGenerator_GenericTypeParameterBuilder_Equals_m3260957994P21CustomAttributesCache
CZd:__ZNK33StandaloneInputModule_t276046910133get_m_CurrentFocusedGameObject_21Ev
_lc:__ZN4core8hash_mapINS_12basic_stringIcNS_20StringStorageDefaultIcEEEE10vector_setI4PPtrI11SpriteAtlasENSt3__24lessIS8_EE13stl_allocatorIS8_L18MemLabelIdentifier81ELi16EEENS_4hashIS4_EENS9_8equal_toIS4_EEEixERKS4_
W3c:__ZN11Rigidbody2D8TransferI24GenerateTypeTreeTransferEEvRT_
xEl:_Version_op_Equality_m3804852517
ATj:__ZN23SHA384Managed_t741585759set_H6_13Ey
TEa:__Z35UnityPropertySheet_MakeSortedColorsRKNSt3__23mapIN9ShaderLab16FastPropertyNameE10ColorRGBAfNS_4lessIS2_EENS_9allocatorINS_4pairIKS2_S3_EEEEEER10vector_mapIS2_S3_S5_NS6_INS7_IS2_S3_EEEEE
Tn:FUNCTION_TABLE_iiiiiiffiiiiiiiiiffffiii
Aid:_UNITY_tt_face_load_os2
W2c:__ZN17PolygonCollider2D8TransferI24GenerateTypeTreeTransferEEvRT_
mhk:_Array_InternalArray__ICollection_CopyTo_TisUICharInfo_t75501106_m4268526610_gshared
Emn:__ZN35ListPool_1_t3185818714_StaticFields26set_U3CU3Ef__mgU24cache0_1EP25UnityAction_1_t4213140406
evj:__ZN24StreamReader_t400993589914set_encoding_7EP20Encoding_t1523322056
o$a:__ZN11TimeManager21DidFinishLoadingSceneEv
Ujb:__Z29Transfer_Blittable_ArrayFieldI14SafeBinaryRead8Vector4fEvRT_R9ArrayInfoRK23StaticTransferFieldInfo
cDo:__GLOBAL__sub_I_BoehmGC_cpp
f9n:__ZN6il2cpp2gc19AppendOnlyGCHashMapINSt3__24pairIPK10MethodInfoP11Il2CppClassEEP22Il2CppReflectionMethod17ReflectionMapHashIS9_ENS2_8equal_toIS9_EEE3AddERKS9_SB_
jqj:_Default_check_arguments_m3882727959
Kob:__Z18Transfer_BlittableI19StreamedBinaryWriteLb1EN4math12int3_storageEEvRK29SerializationCommandArgumentsR31RuntimeSerializationCommandInfo
Nei:_Hashtable_get_IsSynchronized_m1426775249
MMg:__ZN21Scrollbar_t149444723318set_m_Direction_19Ei
url:_UTF8Encoding_GetMaxCharCount_m3762459613
hRf:_StreamingContext_get_Context_m541495931_AdjustorThunk
Zff:_ModuleBuilder_RegisterToken_m4166846047
SDo:__ZNSt3__218uninitialized_fillIPNS_4pairIK10KeyWrapperIPcES3_EES6_EEvT_S8_RKT0_
oLb:__ZZ23InitPlayerLoopCallbacksvEN51PostLateUpdateUpdateCustomRenderTexturesRegistrator7ForwardEv
CKn:__ZN43AssetFileNameExtensionAttribute_t136124116442set_U3CotherExtensionsU3Ek__BackingField_1EP12Il2CppObject
WGg:_RawImage_OnPopulateMesh_m1115858855
G0k:__Z74RuntimeInvoker_MonoFileType_t221779374_IntPtr_t_MonoIOErrorU26_t1548853198PFvvEPK10MethodInfoPvPS4_
B$n:__ZN6il2cpp2vm13MetadataCache25GetStringLiteralFromIndexEi
Y1h:_Hashtable_ToPrime_m33531354
pca:__ZL54__ManagedRegistrationHelperFunction_PlayableGraphProxyPv
EI:__ZN11AudioModule6UpdateEv
Rrh:_KeyCollection_System_Collections_Generic_ICollectionU3CTKeyU3E_Remove_m2555909644_gshared
XIo:__ZN4utf88internal19is_code_point_validIjEEbT_
LXl:_ReadOnlyCollection_1_System_Collections_ICollection_CopyTo_m1552247304_gshared
zDo:__ZN15dense_hashtableINSt3__24pairIK10KeyWrapperIPcES3_EES4_N6il2cpp5utils15PassThroughHashIS3_EEN14dense_hash_mapIS4_S3_SA_NS4_14EqualsComparerINS0_8equal_toIS3_EEEENS0_9allocatorIS6_EEE9SelectKeyESF_SH_E5clearEv
nTh:__ZN31SoapMethodAttribute_t193500931020set__returnElement_5EP8String_t
Jdk:_Array_InternalArray__IndexOf_TisInt32_t2950945753_m738632427_gshared
NIh:__ZN36SynchronizationAttribute_t394666125418set__ownerThread_5EP18Thread_t2300836069
Bw:__ZL65__ManagedRegistrationHelperFunction_MeshReconstructionServerProxyPv
qCk:_Enumerator_VerifyState_m2621680056_AdjustorThunk
v1n:__ZNSt3__214__split_bufferI6pollfdRNS_9allocatorIS1_EEEC2EjjS4_
Xyh:_CrossAppDomainData_get_DomainID_m3516796532
Bud:__ZN2UI6Canvas23VirtualRedirectTransferER18StreamedBinaryRead
kNj:_MemoryStream_set_Position_m3169779190
ZYb:__ZN13RenderManager29SetCurrentCameraAndStackStateEP6CameraP25CameraStackRenderingState
CRd:_ExecuteEvents_get_scrollHandler_m2659345019
vna:__ZNSt3__26__treeINS_12__value_typeIjN4core12basic_stringIcNS2_20StringStorageDefaultIcEEEEEENS_19__map_value_compareIjS7_NS_4lessIjEELb1EEE13stl_allocatorIS7_L18MemLabelIdentifier7ELi16EEE7destroyEPNS_11__tree_nodeIS7_PvEE
$ug:__ZN22InputField_t376291743128get_address_of_m_LineType_26Ev
vxn:__ZL25UnresolvedVirtualCall_109P12Il2CppObject19Decimal_t2948259380PK10MethodInfo
YMf:__ZNK31OpCodes_t126150456_StaticFields14get_Ldflda_121Ev
kd:_JS_WebRequest_Release
t7c:__ZN10SpriteMask17MainThreadCleanupEv
SPd:__ZN23EventSystem_t100366658826set_m_CurrentInputModule_5EP27BaseInputModule_t2019268878
gM:__ZN11UnityEngine15CloudWebService14DataErrorEventD0Ev
Rso:__ZN6il2cpp6icalls8mscorlib6System4Type20internal_from_handleEi
Eul:__ZNK18Thread_t230083606924get_in_currentculture_50Ev
aGe:__ZL72RequiredByNativeCodeAttribute_t4130846357_CustomAttributesCacheGeneratorP21CustomAttributesCache
txi:__ZNK39RecordProtocol_t3759049701_StaticFields23get_record_processing_0Ev
uGh:_Context__ctor_m254302079
Uoo:__ZN6il2cpp2vm9Exception25RaiseOutOfMemoryExceptionERKNS_5utils10StringViewIDsEEP19Il2CppSequencePoint
mVk:_KeyGeneratedEventHandler_EndInvoke_m3057317531
oQa:__ZN19ShaderPropertySheet16SetArrayPropertyEN9ShaderLab16FastPropertyNameENS_12PropertyTypeEPKvj
HNg:_Selectable_FindSelectable_m2348614027
QMa:__ZN23TextureStreamingManager17SetFeatureEnabledEb
h5d:_FloatTween_get_duration_m1227071020
nAo:__ZN15dense_hashtableINSt3__24pairIK10KeyWrapperIP12Il2CppObjectEN6il2cpp2gc9CachedCCWEEES5_NS7_5utils11PointerHashIS3_EEN14dense_hash_mapIS5_S9_SD_NS5_14EqualsComparerINS0_8equal_toIS4_EEEENS0_9allocatorISA_EEE9SelectKeyESI_SK_E16reset_thresholdsEv
rJf:__ZN18VirtActionInvoker3IxixE6InvokeEjP12Il2CppObjectxix
Gae:_DropdownItem_OnPointerEnter_m1492957598
sad:__ZN13dynamic_arrayIN20TextRenderingPrivate8FontImpl13CharacterInfoELj0EE18resize_initializedEj12ResizePolicy
i5n:__ZN6il2cpp2os4File11GetStdErrorEv
C5j:_DecoderFallback_get_ExceptionFallback_m198794485
VUi:__ZN25DictionaryNode_t41771946511set_value_1EP12Il2CppObject
b0k:__Z91RuntimeInvoker_Void_t1185182177_Int32U26_t1369213839_Int32U26_t1369213839_Int32_t2950945753PFvvEPK10MethodInfoPvPS4_
DLn:_StaticAccessorAttribute_set_Type_m2333258271
tte:__ZL91SafeHandle_t3273388951_CustomAttributesCacheGenerator_SafeHandle_DangerousAddRef_m614714386P21CustomAttributesCache
RTd:__ZN30RaycastHit2DU5BU5D_t428665156021GetAddressAtUncheckedEj
tCd:__ZN11UnityEngine15PlatformWrapper16GetApplicationIdEv
Vqo:__ZN6il2cpp6icalls8mscorlib6System2IO6MonoIO16get_ConsoleErrorEv
Skd:_UNITY_TT_Get_VMetrics
vLh:__ZN23AsyncResult_t419430957219set_call_message_12EP29MonoMethodMessage_t2807636944
B9k:__Z69RuntimeInvoker_Color_t2555686324_Color_t2555686324_Single_t1397266774PFvvEPK10MethodInfoPvPS4_
pen:_AnalyticsEventTracker_OnDestroy_m3032713758
Qqk:_EqualityComparer_1__ctor_m2283513024_gshared
Ymn:__ZN33ListPool_1_t53650832_StaticFields26set_U3CU3Ef__mgU24cache0_1EP25UnityAction_1_t1080972524
ybi:_SimpleEnumerator__cctor_m2844299657
Shj:_LocalDataStoreSlot__ctor_m4104083971
Opk:__ZNK43EqualityComparer_1_t1249878500_StaticFields14get__default_0Ev
Xsn:_AudioSource_ReadExtensionName_m725112169
PIm:_X509CertificateEnumerator_System_Collections_IEnumerator_Reset_m2039524926
w4d:__ZN21ColorTween_t80961438029get_address_of_m_StartColor_1Ev
RNj:__ZN21MonoIOStat_t59253398710set_Name_0EP8String_t
DTb:__Z20SetupObjectLightmapsRK26SharedLightmapSettingsDataRK15LightmapIndicesR17ShaderPassContextb
ICa:__ZN7Texture21GetMasterTextureLimitEv
oUf:__ZN30SymmetricAlgorithm_t425422308720set_BlockSizeValue_0Ei
dXa:__ZN13dynamic_arrayI9InputAxisLj0EE18resize_initializedEj12ResizePolicy
S_b:__Z12CanAddScriptR10GameObject17ScriptingClassPtrPS1_S2_
lfn:_FieldWithTarget_get_paramName_m3501478659
uyk:__Z25Il2CppCodeGenWriteBarrierI18List_1_t1569362707EvPPT_S2_
eel:__Z103RuntimeInvoker_Boolean_t97287965_RuntimeObject_Vector2_t2156229523_RuntimeObject_Vector3U26_t3464235976PFvvEPK10MethodInfoPvPS4_
r$g:__Z44InternalEnumerator_1_get_Current_m2128158355P32InternalEnumerator_1_t3855323497PK10MethodInfo
EEk:__Z59Enumerator_System_Collections_IEnumerator_Reset_m2355925297P22Enumerator_t3123848928PK10MethodInfo
UV:__ZN9ShaderLabL25StaticInitializeShaderLabEPv
Q:Math_max
sEh:__ZNK25ConfigHandler_t419243721620get_currentChannel_2Ev
Rfa:__ZN9Scripting11UnityEngine8LODProxy9InitProxyEv
EOf:__ZNK23Int16U5BU5D_t368684017814GetAtUncheckedEj
LBa:__ZNK13RenderTexture16ExtractImageImplEP14ImageReference13ImageBlitModebi
vJm:__ZN21X509Store_t277741528310set__crl_3Eb
W0f:__ZNK31Camera_t4157153871_StaticFields18get_onPostRender_6Ev
KRi:_StackTrace_get_trace_m1194606084
$tn:__Z26List_1_set_Item_m845928814P17List_1_t242016280iP32AudioSourceExtension_t3064908834PK10MethodInfo
t0j:_Single_CompareTo_m2785801815_AdjustorThunk
vFo:__ZN6il2cpp2os6Thread16GetCurrentThreadEv
wnf:__ZN31OpCodes_t126150456_StaticFields17set_Stelem_R8_158E17OpCode_t123070264
fNd:__Z60Component_GetComponents_TisBaseInput_t3630163547_m2590144445P21Component_t1923634451PK10MethodInfo
OJl:_Array_InternalArray__Insert_TisUILineInfo_t4195266810_m3191124053_gshared
Slc:__ZN10GameObject13ComponentPair15SetComponentPtrEPN5Unity9ComponentE
Ypn:__ZN32Vector3_t3722313464_StaticFields16set_zeroVector_5E19Vector3_t3722313464
FWh:__ZNK22StrongName_t409384937715get_publicKey_1Ev
p2e:__ZL75U3COnFinishSubmitU3Ec__Iterator0_t3413438900_CustomAttributesCacheGeneratorP21CustomAttributesCache
rHa:__ZN13sorted_vectorI4PPtrI11SpriteAtlasENSt3__24lessIS2_EE13stl_allocatorIS2_L18MemLabelIdentifier1ELi16EEE21sort_clear_duplicatesEv
qze:__ZL58ManualResetEvent_t451242010_CustomAttributesCacheGeneratorP21CustomAttributesCache
c3e:__ZL60FontData_t746620069_CustomAttributesCacheGenerator_m_MinSizeP21CustomAttributesCache
Pyn:__ZL25UnresolvedVirtualCall_183P12Il2CppObjectiiPK10MethodInfo
Hjn:__ZNK37VertexHelper_t2453304189_StaticFields22get_s_DefaultTangent_9Ev
NDc:__ZN9Scripting11UnityEngine15TextEditorProxy9InitProxyEv
h8h:_Char_System_IConvertible_ToDateTime_m3564102661
Fxn:__ZL25UnresolvedVirtualCall_119P12Il2CppObjectS0_S0_iiPK10MethodInfo
J7n:__ZN15dense_hashtableINSt3__24pairIK10KeyWrapperINS1_IPK9FieldInfoP11Il2CppClassEEEjEES9_17ReflectionMapHashIS8_EN14dense_hash_mapIS9_jSD_NS9_14EqualsComparerINS0_8equal_toIS8_EEEENS0_9allocatorISB_EEE9SelectKeyESI_SK_E16reset_thresholdsEv
Hx:__ZN13RuntimeStaticINSt3__26vectorI12WebCamDeviceNS0_9allocatorIS2_EEEELb0EE13StaticDestroyEPv
JFa:__ZN6Sprite17MainThreadCleanupEv
Axa:__ZN4PPtrI23ShaderVariantCollectionE8TransferI18StreamedBinaryReadEEvRT_
Lpe:__ZL55BinaryWriter_t3992595042_CustomAttributesCacheGeneratorP21CustomAttributesCache
f9o:_glBlendFuncSeparate__wrapper
eDl:_UIntPtr_System_Runtime_Serialization_ISerializable_GetObjectData_m1767630151
ZTe:__ZL116PlayerConnectionInternal_t3892293164_CustomAttributesCacheGenerator_PlayerConnectionInternal_SendMessage_m2378413408P21CustomAttributesCache
TC:__ZN10AudioMixer14UpdateMuteSoloEv
$Z:__Z17GetMonoManagerPtrv
fzk:__ZNK22Enumerator_t20172970767get_l_0Ev
gyk:__ZNK26KeyValuePair_2_t25302173199get_key_0Ev
Psa:__ZN12BaseRenderer25FlattenSharedMaterialDataILb0EEEbRKS_R22PerThreadPageAllocatorR10RenderNode
ZHj:__ZN24BinaryReader_t242807729316set_m_encoding_1EP20Encoding_t1523322056
Qqh:__Z28Enumerator__ctor_m2471152669P21Enumerator_t314722136P23Dictionary_2_t132545152PK10MethodInfo
Soa:__ZN9Transform35SetLocalPositionWithoutNotificationERKN4math7_float3Ey
PYe:__ZL87GUIUtility_t1868551600_CustomAttributesCacheGenerator_U3CguiIsExitingU3Ek__BackingFieldP21CustomAttributesCache
HLe:__ZL101MonoBehaviour_t3962482529_CustomAttributesCacheGenerator_MonoBehaviour_StartCoroutine_Auto_m594129169P21CustomAttributesCache
yc:_JS_Eval_ClearTimeout
hDe:__ZL64ThreadStaticAttribute_t3840787420_CustomAttributesCacheGeneratorP21CustomAttributesCache
lfb:__ZN7ApiGLES16SetPatchVerticesEi
hFo:__ZN6il2cpp5utils13dynamic_arrayIPNS_2os6ThreadELj4EE7reserveEj
tFn:__ZN38AnimatorControllerPlayable_t101576784114set_m_Handle_0E26PlayableHandle_t1095853803
dUm:_CharacterClass_Compile_m3296067317
pSd:__ZN38ExecuteEvents_t3484638744_StaticFields24set_s_BeginDragHandler_6EP27EventFunction_1_t1977848392
CEo:__ZN6il2cpp2gc16GarbageCollector16InvokeFinalizersEv
Ilh:__Z36KeyValuePair_2_get_Value_m3495598764P24KeyValuePair_2_t71524366PK10MethodInfo
j7h:_Byte_System_IConvertible_ToInt64_m285584218_AdjustorThunk
Pjg:_Rect_get_size_m477575021_AdjustorThunk
_Mn:__ZN6il2cpp2vm5Class20FromGenericParameterEPK22Il2CppGenericParameter
gP:__ZN19CloudServiceHandler11FlushEventsEv
Twf:__Z25Il2CppCodeGenWriteBarrierI25BooleanU5BU5D_t2897418192EvPPT_S2_
T5:__ZN15GlobalCallbacksC2Ev
IBm:__ZN21TlsStream_t236545396513set_canRead_1Eb
bPh:_MethodCall_System_Runtime_Remoting_Messaging_IInternalMessage_set_Uri_m1919576807
ZPf:__ZN25ObjectManager_t165306432517set__finalFixup_5Eb
lTc:__ZN7b2World10CreateBodyEPK9b2BodyDef
Lqa:__ZN6Camera8TransferI18StreamedBinaryReadEEvRT_
dlh:_Comparer_1_System_Collections_IComparer_Compare_m2016223770_gshared
Mig:__ZN20RangeInt_t209468461811set_start_0Ei
M7e:__ZL57BaseMeshEffect_t2440176439_CustomAttributesCacheGeneratorP21CustomAttributesCache
K5k:__Z74RuntimeInvoker_DateTime_t3738529785_DateTime_t3738529785_Int32_t2950945753PFvvEPK10MethodInfoPvPS4_
idd:_UNITY_FT_New_Memory_Face
fRl:_Collection_1_System_Collections_IList_IndexOf_m3271188411_gshared
_pb:__Z29Transfer_Blittable_ArrayFieldI19StreamedBinaryWriteyEvRT_R9ArrayInfoRK23StaticTransferFieldInfo
hdh:__Z69InternalEnumerator_1_System_Collections_IEnumerator_Reset_m1775752715P32InternalEnumerator_1_t3186646106PK10MethodInfo
Xda:__ZN9Scripting11UnityEngine19SetupCoroutineProxy9InitProxyEv
Pad:__ZN20TextRenderingPrivate21TextMeshGeneratorImpl5FlushEv
LJj:_MonoIO_GetFileStat_m678141354
U6d:__Z15CastclassSealedP12Il2CppObjectP11Il2CppClass
Dmc:__ZN15ApplicationInfo14GetSandboxTypeEv
Fkb:__Z18Transfer_BlittableI17RemapPPtrTransferLb1EhEvRK29SerializationCommandArgumentsR31RuntimeSerializationCommandInfo
iPi:_Decimal_IsZero_m4250358244_AdjustorThunk
MRj:_UnmanagedMemoryStream_get_CanRead_m3770815400
GZb:__ZN16ReflectionProbes40UpdateRealtimeReflectionProbesTimeslicedEv
ZFa:__ZN14SafeBinaryRead21TransferSTLStyleArrayI13dynamic_arrayI8Vector2fLj0EEEEvRT_17TransferMetaFlags
lsn:__ZN23InterfaceActionInvoker1IP24SingleU5BU5D_t1444911251E6InvokeEjP11Il2CppClassP12Il2CppObjectS1_
qCc:__ZNK4Grid11LocalToCellERKN4math7_float3E
xEi:_Decimal_u64_m3374804932
VYa:__ZNK30RuntimeInitializeOnLoadManager22GetTypeVirtualInternalEv
t1d:__Z33IndexedSet_1_get_Item_m1597760628P24IndexedSet_1_t3571286806iPK10MethodInfo
JWn:__ZN15dense_hashtableINSt3__24pairIK10KeyWrapperIN6il2cpp5utils13dynamic_arrayIPK10Il2CppTypeLj4EEEEPFvvEEESA_NS3_8metadata19Il2CppSignatureHashEN14dense_hash_mapISA_SD_SG_NSA_14EqualsComparerINSF_22Il2CppSignatureCompareEEENS0_9allocatorISE_EEE9SelectKeyESK_SM_E12resize_deltaEjj
ogc:__ZN16ReflectionProbes15InitializeClassEv
rM:__ZN13dynamic_arrayIN11UnityEngine15CloudWebService14DataErrorEvent15FileErrorDetailELj0EE18resize_initializedEj12ResizePolicy
Ble:__ZL71Enum_t4135868527_CustomAttributesCacheGenerator_Enum_Format_m2588135982P21CustomAttributesCache
oSc:__ZNK12b2WheelJoint17GetReactionTorqueEf
cog:_Sprite_GetTextureRect_Injected_m333481368
P_l:_ReadOnlyCollection_1_System_Collections_ICollection_CopyTo_m2527663815_gshared
_Oh:_MethodCall__ctor_m2820791328
ivo:__ZN6il2cpp2vm5Image9GetCorlibEv
Opn:_Vector3_get_left_m2428419009
LBo:__ZN6il2cpp2vm11MethodStack17GetStackFramesRawEv
wse:__ZL50Pointer_t2088917139_CustomAttributesCacheGeneratorP21CustomAttributesCache
SBn:__Z23List_1__ctor_m808270210P18List_1_t1547575848iPK10MethodInfo
Swj:__ZNK11Exception_t21get_inner_exception_1Ev
gVd:__ZN28PointerEventData_t380790109236set_U3ClastPressU3Ek__BackingField_4EP22GameObject_t1113636619
D3:__ZN16LightmapSettings11UnshareDataEv
gRd:_ExecuteEvents_Execute_m113814934
a1:__ZN13RuntimeStaticINSt3__23mapIN4core12basic_stringIcNS2_20StringStorageDefaultIcEEEES6_NS0_4lessIS6_EE13stl_allocatorINS0_4pairIKS6_S6_EEL18MemLabelIdentifier13ELi16EEEELb0EE13StaticDestroyEPv
b2f:_Coroutine_ReleaseCoroutine_m947702340
xlh:_Enumerator_System_Collections_IEnumerator_get_Current_m2979767597_AdjustorThunk
$9e:__Z33il2cpp_codegen_string_new_wrapperPKc
ncm:__ZN30GenericInterfaceActionInvoker1I17Color_t2555686324E6InvokeEPK10MethodInfoP12Il2CppObjectS0_
jZf:_MD5CryptoServiceProvider_ProcessFinalBlock_m2241588515
tLg:_ScrollRect_GetBounds_m449872505
P$d:__ZNK44U3COnFinishSubmitU3Ec__Iterator0_t341343890018get_U24disposing_4Ev
Nk:_glIsVertexArray
g0h:_SmallXmlParser_Read_m3485223434
OCg:__Z25Il2CppCodeGenWriteBarrierI17Func_2_t235587086EvPPT_S2_
Wbj:_Int16_Parse_m2276856944
t7g:_InternalEnumerator_1__ctor_m3443175323_AdjustorThunk
Jzk:__ZNK22Enumerator_t21464574877get_l_0Ev
$7m:__ZN34U3CWaitU3Ec__Iterator0_t149454639916set_U24current_1EP12Il2CppObject
Wre:__ZL131CustomAttributeData_t1084486650_CustomAttributesCacheGenerator_CustomAttributeData_t1084486650____ConstructorArguments_PropertyInfoP21CustomAttributesCache
ga:invoke_fff
YYo:_mbsinit
M2o:b14
bVn:__ZN14dense_hash_setI10KeyWrapperIPK19Il2CppGenericMethodEN6il2cpp8metadata23Il2CppGenericMethodHashENS4_14EqualsComparerINS6_26Il2CppGenericMethodCompareEEENSt3__29allocatorIS4_EEED2Ev
uLm:_RepeatContext_get_Expression_m255006542
Szc:__Z34RenderTexture_Get_Custom_PropWidthP12Il2CppObject
vaj:__ZN22MarkU5BU5D_t364542240221GetAddressAtUncheckedEj
wud:__ZN2UI6Canvas17MainThreadCleanupEv
K9:__ZN6prcoreL12RemapGenericI17TexFormatARGB155517TexFormatRGBA8888EEvPKNS_9InnerInfoE
kpj:__ZN23AssemblyName_t27093193817set_cultureinfo_6EP23CultureInfo_t4157843068
Qpf:_TypeBuilder_HasElementTypeImpl_m1871001960
maa:__ZL50__ManagedRegistrationHelperFunction_AllocatorProxyPv
wLl:_Array_Resize_TisVector2_t2156229523_m3382835435_gshared
P3:__ZN4core8hash_setINS_4pairIKiP16LightmapSettingsLb0EEENS_9hash_pairINS_4hashIiEES2_S4_EENS_10equal_pairINSt3__28equal_toIiEES2_S4_EEE4growEi
iao:__ZNK30dense_hashtable_const_iteratorINSt3__24pairIK10KeyWrapperINS1_IPK10MethodInfoP11Il2CppClassEEEjEES9_17ReflectionMapHashIS8_EN14dense_hash_mapIS9_jSD_NS9_14EqualsComparerINS0_8equal_toIS8_EEEENS0_9allocatorISB_EEE9SelectKeyESI_SK_EeqERKSN_
Gfb:__ZN7ApiGLES13CreateProgramEv
jzj:__ZN30DateTimeFormatInfo_t240585370126set_allLongDatePatterns_33EP24StringU5BU5D_t1281789340
emi:__ZNK25RSAParameters_t17284066138get_DQ_4Ev
fii:__ZNK30SymmetricAlgorithm_t425422308720get_BlockSizeValue_0Ev
DUd:__Z25Il2CppCodeGenWriteBarrierI28RaycastHitU5BU5D_t1690781147EvPPT_S2_
QLi:__ZN33DateTime_t3738529785_StaticFields16set_daysmonth_11EP22Int32U5BU5D_t385246372
DJa:__ZN4crnd12crn_unpackerD2Ev
xh:_emscripten_glTexImage2D
RCj:__ZNK30DateTimeFormatInfo_t240585370119get_amDesignator_11Ev
Tih:_Comparer_1_System_Collections_IComparer_Compare_m2537217645_gshared
Oua:__ZN16MeshVertexFormat20GetVertexDeclarationER9GfxDevice16VertexInputMasksPKS_
PW:__ZN18ScriptingArguments9AddStringEPKc
REh:__ZNK20TypeInfo_t320417835816get_Attributes_0Ev
g9h:_Char_ToString_m3588025615
CAj:__ZN27NumberFormatInfo_t43587713821set_perMilleSymbol_28EP8String_t
Pak:_SetPropertyUtility_SetStruct_TisAspectMode_t3417192999_m1565063249_gshared
lwm:_Collection_1_get_Count_m2853642267_gshared
QKi:__ZNK33CurrentSystemTimeZone_t399835225529get_m_CachedDaylightChanges_5Ev
b$l:_ReadOnlyCollection_1_System_Collections_IList_get_IsReadOnly_m375760151_gshared
yve:__ZL53IEnvoyInfo_t2180778907_CustomAttributesCacheGeneratorP21CustomAttributesCache
$Nf:_SerializationEntry_get_ObjectType_m1155580012
Uu:__ZN11UnityEngine9Animation30CreateAvatarBindingConstantOptER9TransformPKN7mecanim9animation14AvatarConstantER20RuntimeBaseAllocator
tIa:__ZL23stbir__resize_arbitraryPvPKviiiS_iiiffffPfiij14stbir_datatype12stbir_filterS4_10stbir_edgeS5_16stbir_colorspace
T5m:_Galaxy_Update_m3883530893
hR:__Z15strcpy_truncatePcPKcjj
ykc:__ZN19SpriteMeshGenerator4maskC2EP11ColorRGBA32iihj
Xmb:__Z18Transfer_BlittableI24GenerateTypeTreeTransferLb1E8Vector4fEvRK29SerializationCommandArgumentsR31RuntimeSerializationCommandInfo
Q2o:b18
pfe:__ZNK28GraphicRaycaster_t299969710920get_m_BlockingMask_7Ev
hm:_pthread_detach
pfa:__ZN9Scripting11UnityEngine9Playables18PlayableAssetProxy9InitProxyEv
_be:_FontUpdateTracker_UntrackText_m1981515690
Mlm:_List_1_System_Collections_ICollection_get_SyncRoot_m1937857346_gshared
zgb:__ZN11MonoManager8TransferI19StreamedBinaryWriteEEvRT_
J_e:__ZL64AnalyticsEventTracker_t2285229262_CustomAttributesCacheGeneratorP21CustomAttributesCache
c1g:__Z74InternalEnumerator_1_System_Collections_IEnumerator_get_Current_m180319738P31InternalEnumerator_1_t348664125PK10MethodInfo
fUo:__ZN6il2cpp8metadata24Il2CppGenericInstCompare7CompareERK10KeyWrapperIPK17Il2CppGenericInstES8_
MNh:_MethodResponse_InitMethodProperty_m3208531417
jtb:__ZNSt3__213__stable_sortIRN10vector_mapI17ScriptingClassPtrPKN5Unity4TypeENS_4lessIS2_EENS_9allocatorINS_4pairIS2_S6_EEEEE13value_compareENS_11__wrap_iterIPSB_EEEEvT0_SJ_T_NS_15iterator_traitsISJ_E15difference_typeEPNSM_10value_typeEi
uMk:_SimpleCollator_FillSurrogateSortKeyRaw_m725998232
mul:__ZN18Thread_t230083606911set_state_7Ei
Zmm:_List_1_AddEnumerable_m1284696147_gshared
__i:_IPAddress_Equals_m1823478787
FHh:_Context_CreateNewContext_m3053563976
kPn:__ZNK6il2cpp2vm17TypeNameParseInfo13assembly_nameEv
$7b:__ZN9ShaderLab25SerializedTextureProperty8TransferI24GenerateTypeTreeTransferEEvRT_
$yn:__ZL25UnresolvedVirtualCall_195P12Il2CppObject22UILineInfo_t4195266810S1_PK10MethodInfo
FNl:_Array_swap_TisVector2_t2156229523_TisVector2_t2156229523_m345092822_gshared
Avm:_Collection_1_get_Item_m1773274637_gshared
P9m:_U3CJumpingU3Ec__Iterator2__ctor_m777857582
dho:__ZN6il2cpp2gc19AppendOnlyGCHashMapINSt3__24pairIPK14Il2CppAssemblyP11Il2CppClassEEP24Il2CppReflectionAssembly17ReflectionMapHashIS9_ENS2_8equal_toIS9_EEEC2Ev
hjd:_tt_cmap14_char_next
Xwn:__ZL24UnresolvedVirtualCall_83P12Il2CppObjectPK10MethodInfo
Oej:__ZN27NumberFormatter_t118292462115set__infinity_9Eb
gha:__ZN9Scripting11UnityEngine12Experimental9Playables27MaterialEffectPlayableProxy12CleanupProxyEv
SP:__GLOBAL__sub_I_Runtime_Camera_RenderLoops_2_cpp
jhg:_PlayableOutputHandle_Equals_m2815498676_AdjustorThunk
E4f:_InvokableCall_remove_Delegate_m1376110510
Wx:__ZN20DiagnosticSwitchEnumI14FMODDebugTypesE20ApplyPersistentValueEv
XNo:_GC_block_was_dirty
wvl:__ZN16Timer_t71667102615set_period_ms_5Ex
crl:_UTF8Encoding_InternalGetByteCount_m771565606
UBi:__ZNK22SortedList_t242769464111get_inUse_1Ev
xuo:__ZNK15dense_hashtableINSt3__24pairIK10KeyWrapperIP14Il2CppIUnknownEjEES5_N6il2cpp5utils11PointerHashIS3_EEN14dense_hash_mapIS5_jSB_NS5_14EqualsComparerINS0_8equal_toIS4_EEEENS0_9allocatorIS7_EEE9SelectKeyESG_SI_E12test_deletedEj
WLc:__Z18Transfer_BlittableI8JSONReadLb1EyEvRK29SerializationCommandArgumentsR31RuntimeSerializationCommandInfo
SSk:__ZN43KeyPairPersistence_t2094547461_StaticFields15set__userPath_1EP8String_t
UKe:__ZL51GUILayer_t2783472903_CustomAttributesCacheGeneratorP21CustomAttributesCache
ioe:__ZL56IDictionary_2_t3177279192_CustomAttributesCacheGeneratorP21CustomAttributesCache
Qua:__ZN9GfxDevice20GetVertexDeclarationERK18VertexChannelsInfoNS_30VertexDeclarationMRUCacheIndexE
$bk:_Array_InternalArray__IEnumerable_GetEnumerator_TisUInt64_t4134040092_m1382862496_gshared
eh:_emscripten_glMatrixMode
EFg:_MaskableGraphic_UnityEngine_UI_IClippable_get_gameObject_m1739855597
JEj:_NumberFormatInfo_get_RawPercentGroupSizes_m97703232
s$j:_SecurityFrame_get_Assembly_m2874566710
aHj:_Guid__ctor_m3562600567_AdjustorThunk
b9m:__ZNK41U3CSpawnMeteorU3Ec__Iterator0_t316445981716get_U24current_4Ev
TAh:__ZN21RealProxy_t231205025321set__objectIdentity_5EP20Identity_t1873279371
qL:__ZN11UnityEngine15CloudWebService14DataDispatcher16PrepareDataBlockERNS0_16SessionContainerE
vJb:__ZN18GfxFramebufferGLES5ClearE13GfxClearFlagsRK10ColorRGBAffib
dVg:__ZN32InternalEnumerator_1_t42399320099set_idx_1Ei
k8m:_U3CWaitU3Ec__Iterator0_Reset_m3843485810
V8d:__Z60Dropdown_GetOrAddComponent_TisCanvas_t3310196443_m4191652643P12Il2CppObjectP22GameObject_t1113636619PK10MethodInfo
gRo:__ZN6il2cpp6icalls8mscorlib6System9Threading7Monitor4ExitEP12Il2CppObject
ffk:_MonoProperty_StaticGetterAdapterFrame_TisRuntimeObject_m4131530968_gshared
hca:__ZL53__ManagedRegistrationHelperFunction_MeshRendererProxyPv
t$l:_ReadOnlyCollection_1_System_Collections_Generic_IListU3CTU3E_get_Item_m4153579838_gshared
c5g:_InternalEnumerator_1_get_Current_m2316281569_gshared
WPb:__ZL12DepthPassJobPN21GfxDeviceAsyncCommand10ArgScratchEPKNS_3ArgE
t6b:__ZNSt3__26vectorIN9ShaderLab20SerializedSubProgram16TextureParameterENS_9allocatorIS3_EEE6assignINS_11__wrap_iterIPS3_EEEENS_9enable_ifIXaasr21__is_forward_iteratorIT_EE5valuesr16is_constructibleIS3_NS_15iterator_traitsISC_E9referenceEEE5valueEvE4typeESC_SC_
Jcg:_MonoBehaviour_IsInvoking_m3285132449
bwh:_Transform_1_EndInvoke_m1701794896_gshared
MOc:__ZN5Unity9rapidjson6WriterI16TempBufferWriterNS0_4UTF8IcEES4_13JSONAllocatorE11WriteDoubleEd
Vco:__ZNK30dense_hashtable_const_iteratorINSt3__24pairIK10KeyWrapperINS1_IPK9EventInfoP11Il2CppClassEEEjEES9_17ReflectionMapHashIS8_EN14dense_hash_mapIS9_jSD_NS9_14EqualsComparerINS0_8equal_toIS8_EEEENS0_9allocatorISB_EEE9SelectKeyESI_SK_EdeEv
KAd:__ZThn1172_N18UnityConnectClientD0Ev
Cul:_Thread_SetCachedCurrentUICulture_m1729523031
aeb:__ZN14GfxDeviceStats16CopyAllDrawStatsERKS_
Cyg:_InputField_get_minHeight_m2822964544
Ruh:__ZN23GenericVirtFuncInvoker1I27DictionaryEntry_t3123975638iE6InvokeEPK10MethodInfoP12Il2CppObjecti
X$e:__ZL70EventSystem_t1003666588_CustomAttributesCacheGenerator_m_FirstSelectedP21CustomAttributesCache
bo:FUNCTION_TABLE_iiiiiiiiiiii
wmm:_List_1_get_Item_m1686506901_gshared
Srh:_KeyCollection_System_Collections_Generic_IEnumerableU3CTKeyU3E_GetEnumerator_m1982109872_gshared
hIa:__ZN6prcore9BlitImageERK14ImageReferenceRS0_13ImageBlitMode
Hwa:__ZN16GraphicsSettingsD0Ev
FS:__Z12FormatBufferPciPKcz
Wso:__ZN6il2cpp6icalls8mscorlib6SystemL52FormatExceptionMessageForNonConstructableGenericTypeEPK10Il2CppTypeRKNSt3__26vectorIS5_NS6_9allocatorIS5_EEEE
wAm:__ZNK25SslStreamBase_t166741340731get_checkCertRevocationStatus_9Ev
ZAd:__ZNSt3__26__treeINS_12__value_typeIN4core12basic_stringIcNS2_20StringStorageDefaultIcEEEE14CallbackArray3IRKS6_R8JSONReadbEEENS_19__map_value_compareIS6_SD_NS_4lessIS6_EELb1EEE13stl_allocatorISD_L18MemLabelIdentifier6ELi16EEE7destroyEPNS_11__tree_nodeISD_PvEE
n:cttz_i8
jed:_UNITY_FT_GlyphLoader_Add
a$g:__Z75InternalEnumerator_1_System_Collections_IEnumerator_get_Current_m2742943179P31InternalEnumerator_1_t350626606PK10MethodInfo
F1h:_AppDomain_InternalPopDomainRef_m412593501
xlf:__ZN31OpCodes_t126150456_StaticFields15set_Bge_Un_S_51E17OpCode_t123070264
g2i:__ZN25OidCollection_t423476684411set__list_0EP21ArrayList_t2718874744
CDh:_ServerIdentity_OnLifetimeExpired_m3729485875
Ntn:_AudioListener_INTERNAL_CALL_ReadExtensionPropertyName_m330480156
Sbe:__Z30HashSet_1_Contains_m1017385675P20HashSet_1_t466832188P16Text_t1901882714PK10MethodInfo
CMl:_Array_qsort_TisRuntimeObject_TisRuntimeObject_m2939659920_gshared
pEg:__ZNK20MatEntry_t295710709218get_useAlphaClip_8Ev
c7e:__ZL78LayoutRebuilder_t541313304_CustomAttributesCacheGenerator_U3CU3Ef__mgU24cache0P21CustomAttributesCache
Tsn:__Z30Enumerator_Dispose_m3198901590P22Enumerator_t3959214805PK10MethodInfo
cAl:__ZN26TypedReference_t149110811921get_address_of_type_0Ev
_bo:__ZNK15dense_hashtableINSt3__24pairIK10KeyWrapperINS1_IPK12PropertyInfoP11Il2CppClassEEEjEES9_17ReflectionMapHashIS8_EN14dense_hash_mapIS9_jSD_NS9_14EqualsComparerINS0_8equal_toIS8_EEEENS0_9allocatorISB_EEE9SelectKeyESI_SK_E12bucket_countEv
G8k:__Z53RuntimeInvoker_Interval_t1802865632_Int32_t2950945753PFvvEPK10MethodInfoPvPS4_
BJi:_Convert_ToUInt16_m867476252
hi:_emscripten_glViewport
emc:__Z21GenerateTilingAreaJobP22GenerateTilingAreaInfoj
LLn:_NativeClassAttribute_set_Declaration_m1218368926
ZJo:__ZN6il2cpp6icalls8mscorlib6System15MonoCustomAttrs17IsDefinedInternalEP12Il2CppObjectP20Il2CppReflectionType
_Bk:_Enumerator__ctor_m40451936_AdjustorThunk
Ual:__Z53RuntimeInvoker_Vector3_t3722313464_Single_t1397266774PFvvEPK10MethodInfoPvPS4_
HGn:_SkeletonBone_t4134054672_marshal_pinvoke_back
Fue:__ZL115SynchronizationAttribute_t3946661254_CustomAttributesCacheGenerator_SynchronizationAttribute_IsContextOK_m324067792P21CustomAttributesCache
Jqj:_CustomAttributeData_get_Constructor_m489601093
$so:__Z18RegisterAllClassesv
Ffd:_cff_parse_font_bbox
AJk:_MSCompatUnicodeTable_Category_m1834196420
d7g:__Z44InternalEnumerator_1_get_Current_m1408339225P32InternalEnumerator_1_t2576641779PK10MethodInfo
x_k:__Z85RuntimeInvoker_Void_t1185182177_Int32_t2950945753_Int32_t2950945753_Int32_t2950945753PFvvEPK10MethodInfoPvPS4_
ASi:_Double_CompareTo_m3151899116
wVo:__ZN6il2cpp2os5Event5ResetEv
Tid:_tt_name_ascii_from_other
mRj:_TextWriter_Write_m2252948084
Zhn:_ToggleGroup__ctor_m3308114662
$oi:__ZN23CipherSuite_t341474457517set_clientHMAC_19EP29KeyedHashAlgorithm_t112861511
F$j:__ZN40SecurityManager_t3383402582_StaticFields16set__execution_2EP30SecurityPermission_t2954997752
kMl:_Array_Sort_TisUILineInfo_t4195266810_m3737783007_gshared
fgg:_PlayableAsset_Internal_CreatePlayable_m2550417712
nti:_Context_get_LastHandshakeMsg_m2730646725
$Ce:__ZL59ResolveEventArgs_t1779456501_CustomAttributesCacheGeneratorP21CustomAttributesCache
jdd:__ZN13dynamic_arrayIN4core17string_with_labelILi35EEELj0EE6insertEPS2_jRKS2_
JYe:__ZL64GUIUtility_t1868551600_CustomAttributesCacheGenerator_s_SkinModeP21CustomAttributesCache
WDj:_GregorianCalendar_GetMonth_m3359423849
COf:_ObjectWriter_BlockWrite_m827549826
ARm:__ZN31CompositeExpression_t125222980217set_expressions_0EP32ExpressionCollection_t1810289389
qZc:__ZN34b2SolveDiscreteIslandBodySleepTask7TaskJobEPS_j
jXh:_X509CertificateCollection__ctor_m3365535796
ytk:__Z25Il2CppCodeGenWriteBarrierI30EqualityComparer_1_t2365039146EvPPT_S2_
r9k:__Z50RuntimeInvoker_Ray_t3785851493_Vector3_t3722313464PFvvEPK10MethodInfoPvPS4_
J4f:__Z24List_1__ctor_m1425123358P18List_1_t4176035766PK10MethodInfo
Nvn:__ZL24UnresolvedVirtualCall_19P12Il2CppObject25DSAParameters_t1885824122PK10MethodInfo
Lwb:__Z25SetNeedToPerformRenderingb
Dco:__ZN14dense_hash_mapI10KeyWrapperINSt3__24pairIPK9EventInfoP11Il2CppClassEEEj17ReflectionMapHashIS8_ENS9_14EqualsComparerINS1_8equal_toIS8_EEEENS1_9allocatorINS2_IKS9_jEEEEE3endEv
L_o:__ZN10__cxxabiv116__shim_type_infoD2Ev
xpg:_Touch_get_phase_m214549210
lRm:_Alternation__ctor_m1629257642
rDd:__ZN8JSONRead12TransferPairINSt3__24pairIN4core12basic_stringIcNS3_20StringStorageDefaultIcEEEEN11UnityEngine9Analytics16LimitEventConfigEEEEEvRT_17TransferMetaFlagsPKN5Unity9rapidjson12GenericValueINSG_4UTF8IcEE13JSONAllocatorEE
aoa:__ZN10GameObjectD2Ev
iQb:__ZN14qsort_internal30FindAndMovePivotToLastPositionIP15RODataDepthPassi17ROSorterDepthPassEEvT_S4_T0_T1_
$Hm:__ZNK26X509Certificate_t48924302515get_m_keyalgo_6Ev
$7g:_InternalEnumerator_1_Dispose_m630370856_gshared
Gij:_MethodAccessException__ctor_m3411913042
lrn:__ZN32Vector4_t3319028937_StaticFields15set_oneVector_6E19Vector4_t3319028937
bjj:_MonoCustomAttrs__cctor_m4000462365
Xsk:_EqualityComparer_1__ctor_m1767308726_gshared
DYb:__ZN12CullingGroup10SendEventsEPK17CullingGroupEventj
k$b:__ZN19CustomRenderTexture4TickEf
rxn:__ZL25UnresolvedVirtualCall_105P12Il2CppObjectxixPK10MethodInfo
REj:_NumberFormatInfo_get_PerMilleSymbol_m1360140831
Mmi:_EncryptedData_get_EncryptionAlgorithm_m905084934
Jbk:_Array_InternalArray__IEnumerable_GetEnumerator_TisCustomAttributeTypedArgument_t2723150157_m1333528454_gshared
lWd:_PointerInputModule__ctor_m3728889932
XQa:__ZThn32_NK8Renderer8GetLayerEv
BKm:_X509Extension_Equals_m1779194186
HFh:__ZNK25ConfigHandler_t419243721622get_channelInstances_1Ev
kra:__ZN9Coroutine16CleanupCoroutineEPv
Kfd:_cff_parse_vsindex
nSd:__Z33EventFunction_1__ctor_m2223601609P27EventFunction_1_t1977848392P12Il2CppObjectiPK10MethodInfo
J_j:_SecurityException_GetObjectData_m1968030344
$ho:__ZNSt3__26vectorIiNS_9allocatorIiEEEC2ERKS3_
OKf:__ZN28MemberInfoU5BU5D_t130209443214SetAtUncheckedEjP12MemberInfo_t
hcj:_Int32_ValidDigit_m1059003769
fEl:__ZN19Version_t345687396012set__Minor_2Ei
C8o:_emscripten_glTexParameterfv__wrapper
tDe:__ZL54MemberFilter_t426314064_CustomAttributesCacheGeneratorP21CustomAttributesCache
SAg:_LayoutGroup_get_rectTransform_m442863741
nhb:__Z18Transfer_BlittableI14SafeBinaryReadLb1E9BoundsIntEvRK29SerializationCommandArgumentsR31RuntimeSerializationCommandInfo
tdc:__ZN2UI13RectTransform17GetLocalPositionZEv
quc:__Z57Register_UnityEngine_RectTransform_set_anchorMin_Injectedv
hko:_il2cpp_method_get_param_count
E0:__ZNK5Unity4Type21FindAllDerivedClassesER13dynamic_arrayIPKS0_Lj0EENS0_17TypeFilterOptionsE
yZl:_ReadOnlyCollection_1_System_Collections_Generic_IListU3CTU3E_get_Item_m3189289772_gshared
nco:__ZNK15dense_hashtableINSt3__24pairIK10KeyWrapperINS1_IPK12PropertyInfoP11Il2CppClassEEEjEES9_17ReflectionMapHashIS8_EN14dense_hash_mapIS9_jSD_NS9_14EqualsComparerINS0_8equal_toIS8_EEEENS0_9allocatorISB_EEE9SelectKeyESI_SK_E3endEv
w4l:__ZN28GenericInterfaceFuncInvoker2Ii39CustomAttributeNamedArgument_t287865710S0_E6InvokeEPK10MethodInfoP12Il2CppObjectS0_S0_
_Ol:_LayoutGroup_SetProperty_TisAxis_t3613393006_m3591044743_gshared
Z9g:__ZNK31InternalEnumerator_1_t7461369139get_idx_1Ev
qZh:__ZNK29X501_t1758824425_StaticFields16get_givenName_13Ev
Rle:__ZL69RuntimeArray_CustomAttributesCacheGenerator_Array_SetValue_m282347242P21CustomAttributesCache
tBd:__ZN22BaseUnityConnectClient14AppRunningTickEj
MAc:__Z40Transform_CUSTOM_TransformPoint_InjectedP12Il2CppObjectRK8Vector3fRS1_
B8j:_Array_InternalArray__ICollection_Contains_TisSByte_t1669577662_m926034270_gshared
Qmd:_ps_dimension_done
lPf:_MessageFormatter_GetExtraProperties_m305191653
_1k:__Z67RuntimeInvoker_GCHandle_t3351438187_RuntimeObject_Int32_t2950945753PFvvEPK10MethodInfoPvPS4_
R1a:__ZN12ScriptMapper23VirtualRedirectTransferER18StreamedBinaryRead
m9i:__ZNK24FactoryCache_t232711888714get_capacity_0Ev
WFh:__ZN41LifetimeServices_t3061370510_StaticFields25set__sponsorshipTimeout_3E19TimeSpan_t881159249
xEe:__ZL59HybridDictionary_t4070033136_CustomAttributesCacheGeneratorP21CustomAttributesCache
qPa:__ZN16LightmapSettings8TransferI14SafeBinaryReadEEvRT_
NDb:__ZN17BufferManagerGLES13ReleaseBufferEP14DataBufferGLES
Koi:_CipherSuite_Write_m1172814058
Don:__ZNK32Vector2_t2156229523_StaticFields16get_zeroVector_2Ev
PQj:_SynchronizedWriter_Write_m301917713
$Tm:_CapturingGroup_IsComplex_m4061114763
ENb:__ZN13ComputeBuffer9CopyCountEPS_S0_j
mih:__ZN21InterfaceFuncInvoker1Ii22UILineInfo_t4195266810E6InvokeEjP11Il2CppClassP12Il2CppObjectS0_
e0o:dynCall_dii
TLc:__Z18Transfer_BlittableI8JSONReadLb1EjEvRK29SerializationCommandArgumentsR31RuntimeSerializationCommandInfo
rrb:__Z18Transfer_BlittableI18StreamedBinaryReadLb1E5RectTIfEEvRK29SerializationCommandArgumentsR31RuntimeSerializationCommandInfo
CX:__ZNK27SharedObjectDeleteReleaseOpI10UnitySceneEclEPS0_10MemLabelId
BLf:_SerializationObjectManager_RaiseOnSerializedEvent_m272248422
i9e:__ZL75Player_t3266647312_CustomAttributesCacheGenerator_Player_Jumping_m552787119P21CustomAttributesCache
a3f:_Debug_LogWarning_m3752629331
TRd:__ZN38ExecuteEvents_t3484638744_StaticFields27set_s_PointerEnterHandler_0EP27EventFunction_1_t3995630009
XEg:__ZNK27MaskableGraphic_t383922155917get_m_Maskable_24Ev
A3l:_ReadOnlyCollection_1_System_Collections_Generic_IListU3CTU3E_RemoveAt_m4037795630_gshared
P3k:__Z117RuntimeInvoker_Void_t1185182177_RuntimeObject_Int32_t2950945753_Int32_t2950945753_Int32_t2950945753_Int32_t2950945753PFvvEPK10MethodInfoPvPS4_
xOa:__ZNK13ScreenManager17GetFullscreenModeEv
rE:__Z30GetAudioSpatializerDefinitionsR13dynamic_arrayIP29AudioEffectInternalDefinitionLj0EE31UnityAudioEffectDefinitionFlags
gug:__ZN22InputField_t376291743134get_address_of_m_CaretBlinkRate_37Ev
s4e:__ZL81U3CMouseDragOutsideRectU3Ec__Iterator1_t3909241878_CustomAttributesCacheGeneratorP21CustomAttributesCache
X$d:_U3COnFinishSubmitU3Ec__Iterator0_Reset_m3632769946
pp:stackSave
Qxj:__ZNK20Calendar_t166112156918get_m_isReadOnly_0Ev
aO:__ZN5Unity9rapidjson15GenericDocumentINS0_4UTF8IcEE13JSONAllocatorNS0_12CrtAllocatorEE6StringEPKcjb
_3d:_ColorTween_get_targetColor_m1724075482_AdjustorThunk
jnd:_ps_dimension_end
vyc:__Z41Register_UnityEngine_Mesh_Internal_Createv
v9a:__ZN16MemoryFileSystem5TouchER13FileEntryData
gTa:__ZN14SpriteRenderer23VirtualRedirectTransferER24GenerateTypeTreeTransfer
mth:__Z30Transform_1_Invoke_m1839683782P23Transform_1_t3690794193iP12Il2CppObjectPK10MethodInfo
QWc:__ZNSt3__27__sort3IRN18Overlap2DQueryBase29ColliderHitsByDepthComparitorEPP10Collider2DEEjT0_S7_S7_T_
Api:__ZN16VirtFuncInvoker1IP22ByteU5BU5D_t4116647657P8String_tE6InvokeEjP12Il2CppObjectS3_
Rml:__Z35RuntimeInvoker_UriScheme_t722425697PFvvEPK10MethodInfoPvPS4_
LEk:_Enumerator_Dispose_m2498245804_AdjustorThunk
Rdj:__ZN27NumberFormatter_t118292462112set__val3_21Ej
cif:__ZNK26AssemblyBuilder_t35988525023get_corlib_enum_type_37Ev
JDi:_Console_Open_m3077673205
aJm:_X509StoreManager_get_CurrentUser_m4040993045
k_b:__ZN6Camera9SetAspectEf
Fdk:_Array_InternalArray__IndexOf_TisDateTime_t3738529785_m2463359116_gshared
Sb:invoke_viiffiii
GTo:__ZN6il2cpp2os13FastMutexImpl6UnlockEv
s2g:_InternalEnumerator_1_MoveNext_m4138204635_gshared
wrb:__Z18Transfer_BlittableI18StreamedBinaryReadLb0E11ColorRGBA32EvRK29SerializationCommandArgumentsR31RuntimeSerializationCommandInfo
L5o:_emscripten_glBindVertexArray__wrapper
pWd:__ZN30PointerInputModule_t345317374019set_m_MouseState_15EP21MouseState_t384203932
yCo:__ZN6il2cpp6icalls8mscorlib6System4Enum19get_underlying_typeEP20Il2CppReflectionType
cSm:_Parser_IsECMAScript_m674158805
zy:__ZN10ObjectPoolIN4FMOD3DSPENS0_4DSPIEE7GetFreeEi
$zh:_CADMessageBase_UnmarshalArgument_m2058572696
_oa:__ZN9Transform37InitializeTransformHierarchyRecursiveER18TransformHierarchyRii
Rfb:__ZN26SinglePassStereoSupportExt23SetupStereoMatrixParamsE21MonoOrStereoscopicEye24BuiltinShaderMatrixParamRK10Matrix4x4f
KHh:_ContextCallbackObject__ctor_m3499682402
vLl:_Array_Resize_TisVector2_t2156229523_m1564542050_gshared
Ocb:__ZN9GfxDevice23CreateAsyncReadbackDataEv
RYo:_fscanf
qId:__ZNK25UnityWebRequestJavaScript16GetUploadedBytesEv
CH:__Z46AudioListener_CUSTOM_GetNumExtensionPropertiesP12Il2CppObject
v2n:__ZN6il2cpp6icalls8mscorlib6SystemL16CheckMemberMatchI9FieldInfoNS_5utils10functional6FilterINSt3__212basic_stringIcNS8_11char_traitsIcEENS8_9allocatorIcEEEENS5_13VmStringUtils23CaseInsensitiveComparerEEEEEbPKT_PK11Il2CppClassSN_iRKT0_
cWd:__ZNK28PointerEventData_t380790109220get_m_PointerPress_3Ev
Aqi:__ZN19Context_t397123470715set_sessionId_1EP22ByteU5BU5D_t4116647657
odh:__Z75InternalEnumerator_1_System_Collections_IEnumerator_get_Current_m2424959150P32InternalEnumerator_1_t3186646106PK10MethodInfo
dPi:_Decimal_GetHashCode_m2838600885
x9k:__Z84RuntimeInvoker_RuntimeObject_RayU26_t3515555043_Single_t1397266774_Int32_t2950945753PFvvEPK10MethodInfoPvPS4_
XCa:__ZN19ShaderPropertySheet38CopyTextureWithAuxiliaryPropertiesFromERKN9ShaderLab16FastPropertyNameERKS_
Sdk:_Array_InternalArray__IndexOf_TisMonoResource_t4103430009_m1351751258_gshared
Gac:__ZN9Scripting39GetScriptingArrayObjectElementNoRefImplE17ScriptingArrayPtri
dXj:__ZN26X509Certificate_t71313162218set_subject_name_4EP8String_t
XPm:_Regex_Init_m289933770
CCb:__ZN13GfxDeviceGLES26SetRandomWriteTargetBufferEi15ComputeBufferID
COo:_GC_split_block
qLl:_Array_Resize_TisUICharInfo_t75501106_m3903846016_gshared
$$l:_ReadOnlyCollection_1_System_Collections_Generic_ICollectionU3CTU3E_get_IsReadOnly_m3887826072_gshared
bco:__ZNK15dense_hashtableINSt3__24pairIK10KeyWrapperINS1_IPK12PropertyInfoP11Il2CppClassEEEjEES9_17ReflectionMapHashIS8_EN14dense_hash_mapIS9_jSD_NS9_14EqualsComparerINS0_8equal_toIS8_EEEENS0_9allocatorISB_EEE9SelectKeyESI_SK_E8min_sizeEjj
bLb:__ZZ23InitPlayerLoopCallbacksvEN49EarlyUpdateResetFrameStatsAfterPresentRegistrator7ForwardEv
$Df:__ZN32ContextLevelActivator_t97522336521set_m_NextActivator_0EP12Il2CppObject
uZo:_poll
c0l:_ReadOnlyCollection_1_System_Collections_IEnumerable_GetEnumerator_m1671097018_gshared
WCl:_UInt64_ToString_m1529093114_AdjustorThunk
EDh:__ZNK26ServerIdentity_t234220860817get__serverSink_9Ev
qDf:_TypeLibImportClassAttribute__ctor_m2302178978
XNk:_Escape_t3294788190_marshal_pinvoke
J9f:_Material__ctor_m1662457592
sxg:_InputField_OnUpdateSelected_m1118869681
ovo:__ZN6il2cpp2vmL36AddNestedTypesToNametoClassHashTableEP40Il2CppNameToTypeDefinitionIndexHashTablePKcRKNSt3__212basic_stringIcNS5_11char_traitsIcEENS5_9allocatorIcEEEEP11Il2CppClass
Ccm:__Z31UnityAction_1_Invoke_m610765085P25UnityAction_1_t274106566419Vector2_t2156229523PK10MethodInfo
HQf:_SerializationException__ctor_m3131447373
HJa:__ZN4crnd12crn_unpacker11unpack_dxt1EPPhjjj
mJj:_BinaryWriter_Write_m3577537050
pac:__ZNK11ICallString6ToUTF8Ev
Iml:__Z39RuntimeInvoker_MonoResource_t4103430009PFvvEPK10MethodInfoPvPS4_
jNn:__ZN15dense_hashtableINSt3__24pairIK10KeyWrapperIPK22Il2CppGenericParameterEP11Il2CppClassEES6_N6il2cpp5utils11PointerHashIS4_EEN14dense_hash_mapIS6_S9_SE_NS6_14EqualsComparerINS0_8equal_toIS5_EEEENS0_9allocatorISA_EEE9SelectKeyESJ_SL_E15insert_noresizeERKSA_
kuh:_Transform_1_Invoke_m2468053724_gshared
l2k:__Z51RuntimeInvoker_Void_t1185182177_TimeSpan_t881159249PFvvEPK10MethodInfoPvPS4_
jQb:__ZNSt3__211__sift_downIR17ROSorterDepthPassP15RODataDepthPassEEvT0_S5_T_NS_15iterator_traitsIS5_E15difference_typeES5_
eEa:__ZN18UnityPropertySheet11UnityTexEnvC2Ev
N2h:_ArgumentException__ctor_m3200406061
$Od:__Z27List_1_RemoveAt_m4240524546P18List_1_t2475741330iPK10MethodInfo
q$:__ZN12FileAccessor4ReadEyyPvPy
ALg:__ZNK22ScrollRect_t413785581432get_m_HorizontalScrollbarRect_36Ev
pxi:__Z25Il2CppCodeGenWriteBarrierI25AsyncCallback_t3962456242EvPPT_S2_
yom:_List_1_set_Capacity_m2777925136_gshared
NQc:__ZN9Scripting11UnityEngine14Physics2DProxy9InitProxyEv
pzc:__Z46Register_UnityEngine_RectOffset_InternalCreatev
$ce:__Z31Dictionary_2_Remove_m3648904610P24Dictionary_2_t2296117448P18Canvas_t3310196443PK10MethodInfo
Jxa:__ZN4PPtrI8MaterialE8TransferI19StreamedBinaryWriteEEvRT_
PZb:__ZN13RenderTexture9SetHeightEi
mF:__ZN11AudioSource26KillActiveProviderChannelsEv
VZ:__ZN17PersistentManager25PreallocateObjectThreadedEiNS_9LockFlagsE
yKe:__ZL59LightmapBakeType_t1497855756_CustomAttributesCacheGeneratorP21CustomAttributesCache
$pi:_CipherSuiteCollection_get_IsFixedSize_m3127823890
wwa:__ZN16LevelGameManager8TransferI24GenerateTypeTreeTransferEEvRT_
Sgh:_InternalEnumerator_1_System_Collections_IEnumerator_get_Current_m3537550566_gshared
gLg:_Scrollbar_UpdateVisuals_m2492252165
Uga:__ZN9Scripting11UnityEngine12Experimental10PlayerLoop18PreLateUpdateProxy12CleanupProxyEv
bHm:_PKCS12_get_Keys_m2165478388
aro:__ZN6il2cpp6icalls8mscorlib6System2IO6MonoIO17GetFileAttributesEP12Il2CppStringPi
WXf:_HMACMD5__ctor_m3008609295
Awe:__ZL61X509KeyStorageFlags_t441861693_CustomAttributesCacheGeneratorP21CustomAttributesCache
Dyf:__ZNK20NameOrId_t236469464210get_name_0Ev
OXo:_hexfloat
Mjd:_tt_cmap8_char_index
zjc:__Z14tessMeshDeleteP8TESSmeshP12TESShalfEdge
eVf:__Z25Il2CppCodeGenWriteBarrierI24UInt32U5BU5D_t2770800703EvPPT_S2_
mX:__Z24scripting_class_get_name17ScriptingClassPtr
JQo:__ZNSt3__26__treeINS_12__value_typeIPvPN6il2cpp2os10FileHandleEEENS_19__map_value_compareIS2_S7_NS_4lessIS2_EELb1EEENS_9allocatorIS7_EEEC2ERKSB_
e1i:_Oid__ctor_m911618594
Sjn:_VerticalLayoutGroup_CalculateLayoutInputHorizontal_m1404590745
Lxf:_TypeDelegator_get_TypeHandle_m1498852405
y1:__ZN13RuntimeStaticI15GUIEventManagerLb0EE13StaticDestroyEPv
Qvi:__ZNK31TlsServerKeyExchange_t69946915115get_rsaParams_9Ev
wkj:_ShortComparer_Compare_m1881262465
bjb:__Z29Transfer_Blittable_ArrayFieldI14SafeBinaryReadjEvRT_R9ArrayInfoRK23StaticTransferFieldInfo
WFk:_Enumerator_Dispose_m2367589020_gshared
lml:__Z53RuntimeInvoker_Keyframe_t4206410242_Int32_t2950945753PFvvEPK10MethodInfoPvPS4_
si:_emscripten_set_keydown_callback
q6j:_EncoderReplacementFallback__ctor_m1483565116
cbj:_Interpreter_IsWordChar_m2858055765
zRd:__ZNK38ExecuteEvents_t3484638744_StaticFields22get_s_EndDragHandler_8Ev
b4h:__ZNK33Comparer_t1912461351_StaticFields13get_Default_0Ev
hfi:_Hashtable_CopyTo_m2905447224
y$:__ZN12FileAccessorC2Ev
zEm:__ZNK37BasicConstraintsExtension_t246219527823get_pathLenConstraint_4Ev
mll:__Z96RuntimeInvoker_Void_t1185182177_BooleanU5BU5DU26_t3454195888_Int32_t2950945753_Int32_t2950945753PFvvEPK10MethodInfoPvPS4_
DUe:__ZL58ContactFilter2D_t3805203441_CustomAttributesCacheGeneratorP21CustomAttributesCache
Usk:_EqualityComparer_1_System_Collections_IEqualityComparer_Equals_m3855544238_gshared
kRa:__ZNK8Renderer29FlattenPerMaterialCustomPropsER22PerThreadPageAllocatorR10RenderNode
h0d:__ZN24CanvasScaler_t276797995524set_m_PrevScaleFactor_16Ef
E9i:__Z25Il2CppCodeGenWriteBarrierI17Group_t2468205786EvPPT_S2_
Q9l:_EventFunction_1_Invoke_m2429482587_gshared
zwi:__ZNK29HttpsClientStream_t116055256115get__request_20Ev
q0n:_CertificateHandler_Dispose_m2100863831
A4c:__ZN23ColliderTilingExtensionC2Ev
Shf:_ModuleBuilder_set_wrappers_type_m2998401134
gdn:__ZN32StandardEventPayload_t162989125512set_m_Name_5EP8String_t
w4n:__ZN6il2cpp2vm7Runtime12GetConfigDirEv
EWl:_Collection_1_SetItem_m794903769_gshared
_oi:_SecurityParameters_get_ClientWriteMAC_m225554750
xWc:__ZNSt3__27__sort3IR22InverseDepthComparitorP8DepthHitEEjT0_S5_S5_T_
QBk:_Enumerator_MoveNext_m1177880931_AdjustorThunk
XYc:__ZN14qsort_internal18QSortSingleJobDataIPN25b2SynchronizeFixturesTask14b2DeferredMoveEiPFbRKS2_S5_EE7SortJobEPS8_
mng:_SendMouseEvents_SetMouseMoved_m2822596724
gXe:__ZL82Event_t2956885303_CustomAttributesCacheGenerator_Event_get_commandName_m4275147343P21CustomAttributesCache
kCn:_TextGenerator_Populate_m194003733
ySm:__ZN29PositionAssertion_t33392880619set_pos_0Et
yCi:_Enumerator_MoveNext_m635366482
Otj:_DerivedType_get_FullName_m1025358827
RTf:_CryptoConfig_MapNameToOID_m2044758263
mJg:__ZN22ScrollRect_t413785581426set_m_ScrollSensitivity_11Ef
Rr:__ZN13ConstraintJob23ConstraintComponentDataC2ERKS0_
_3e:__ZL70InputField_t3762917431_CustomAttributesCacheGenerator_m_OnValueChangedP21CustomAttributesCache
tvb:__Z39WriteQueueForTransferSignatureIntoCacheRK31TransferFunctionScriptingTraitsRK24TransferRequestSignature17ScriptingClassPtrR23CachedSerializationDataRb
w$a:__ZN13RenderManager18UpdateAllRenderersEv
m7j:_Encoding_get_UTF8UnmarkedUnsafe_m320312322
Sul:_Thread_Thread_free_internal_m333849022
FIc:__Z35Transfer_Blittable_FixedBufferFieldI9JSONWritexEvRK29SerializationCommandArgumentsR31RuntimeSerializationCommandInfo
qQc:__ZN20PerformanceReporting17PlayerLoopHandlerEv
Gkj:__Z25Il2CppCodeGenWriteBarrierI24ConstructorInfo_t5769829EvPPT_S2_
nMa:__ZN15QualitySettings23VirtualRedirectTransferER19StreamedBinaryWrite
AAd:__ZN22BaseUnityConnectClient30OnEnteringStatePausedOrStoppedEv
O0c:__ZN10ClipperLib7Clipper18SwapPositionsInAELEPNS_5TEdgeES2_
Eek:_Array_compare_TisCustomAttributeNamedArgument_t287865710_m2877346442_gshared
qTl:_Collection_1_ConvertItem_m1556170494_gshared
dtc:__Z25scripting_raise_exception21ScriptingExceptionPtr
KFi:_DateTime_ToUniversalTime_m1945318289
TRi:_DllNotFoundException__ctor_m1156705135
uai:_ArrayList_ToArray_m3827492363
qQg:_Slider_get_stepSize_m1423227661
cXo:_wctomb
RCl:_UInt64_Parse_m819899889
AVj:_SymmetricAlgorithm_set_IV_m3196220308
ldf:_GenericTypeParameterBuilder_GetHashCode_m852224381
TJi:_Convert_ToUInt32_m1453583008
MAj:_CompareInfo_Compare_m894311506
Goa:__Z24MergeTransformComponentsR9TransformS0_b
zVn:__ZNK15dense_hashtableI10KeyWrapperIPK19Il2CppGenericMethodES4_N6il2cpp8metadata23Il2CppGenericMethodHashEN14dense_hash_setIS4_S7_NS4_14EqualsComparerINS6_26Il2CppGenericMethodCompareEEENSt3__29allocatorIS4_EEE8IdentityESB_SE_E10test_emptyEj
D8e:__ZL163U3CWaitU3Ec__Iterator0_t1494546399_CustomAttributesCacheGenerator_U3CWaitU3Ec__Iterator0_System_Collections_Generic_IEnumeratorU3CobjectU3E_get_Current_m1819184974P21CustomAttributesCache
tNd:_EventSystem_UpdateModules_m3643806022
zEo:__ZN6il2cpp2gc16GarbageCollector10StartWorldEv
a$m:__ZNK35GUIContent_t3050628031_StaticFields17get_s_TextImage_5Ev
XVc:__ZN15b2CircleContactD0Ev
qFn:_AnimationOffsetPlayable__cctor_m1029460816
fbm:_InvokableCall_1__ctor_m2610016537_gshared
xYj:_Evidence_get_SyncRoot_m2835084965
wka:__ZN19StreamedBinaryWrite5AlignEv
Oak:_SetPropertyUtility_SetStruct_TisTouchScreenKeyboardType_t1530597702_m2455393348_gshared
Fli:__ZNK22RSAManaged_t175709382019get_KeyGenerated_14Ev
Lwa:__ZN16GraphicsSettings23VirtualRedirectTransferER19StreamedBinaryWrite
rnk:_DefaultComparer__ctor_m2280347240_gshared
axe:__ZL59ICryptoTransform_t2733259762_CustomAttributesCacheGeneratorP21CustomAttributesCache
j8l:__ZN23GenericVirtFuncInvoker1Ib40CustomAttributeTypedArgument_t2723150157E6InvokeEPK10MethodInfoP12Il2CppObjectS0_
uno:__ZNK6il2cpp8metadata19SZArrayClassCompareclEPK11Il2CppClassS4_
mje:__ZN30Image_t2670269651_StaticFields11set_s_Xy_44EP25Vector3U5BU5D_t1718750761
fsj:__ZNK24MonoResource_t410343000914get_filename_2Ev
hEi:_Convert_ToBoolean_m2833489984
Sva:__Z37GetBarycentricCoordinatesForOuterCellPPK8Vector3fRK13dynamic_arrayIS_Lj0EERS0_RK11TetrahedronR8Vector4f
fi:_emscripten_glVertexAttribPointer
i$o:__ZNSt11logic_errorD0Ev
lyb:__ZN14PreloadManager26UpdatePreloadingSingleStepENS_21UpdatePreloadingFlagsEi
rln:_TweenRunner_1__ctor_m340723704_gshared
DMg:_ScrollRect_SetLayoutHorizontal_m3078869633
_4i:__ZN20X509Chain_t19491740821set_max_path_length_5Ei
TPe:__ZL98RenderTextureDescriptor_t1974534975_CustomAttributesCacheGenerator_U3CmemorylessU3Ek__BackingFieldP21CustomAttributesCache
vYn:__ZN24dense_hashtable_iteratorI10KeyWrapperIPK19Il2CppGenericMethodES4_N6il2cpp8metadata23Il2CppGenericMethodHashEN14dense_hash_setIS4_S7_NS4_14EqualsComparerINS6_26Il2CppGenericMethodCompareEEENSt3__29allocatorIS4_EEE8IdentityESB_SE_EC2EPK15dense_hashtableIS4_S4_S7_SG_SB_SE_EPS4_SM_b
ONo:_GC_cond_register_dynamic_libraries
KJi:_Convert_ToUInt16_m1480956416
eaa:__ZN6prcoreL25inner_stretch_i8_bilinearEPKNS_9InnerInfoE
H7c:__ZN10SpriteMask14OnChangeSpriteEv
_0a:__ZL30RegisterFilteredObjectCallbackPP12Il2CppObjectiPv
$vo:__ZN15dense_hashtableINSt3__24pairIK10KeyWrapperINS1_IPKcS4_EEEiEES6_24NamespaceAndNamePairHashN14dense_hash_mapIS6_iS9_NS6_14EqualsComparerI26NamespaceAndNamePairEqualsEENS0_9allocatorIS8_EEE9SelectKeyESD_SF_E16reset_thresholdsEv
W2l:_ReadOnlyCollection_1_System_Collections_Generic_IListU3CTU3E_RemoveAt_m3317217538_gshared
QWe:__ZL54AudioSource_t3935305588_CustomAttributesCacheGeneratorP21CustomAttributesCache
DTc:__ZN16PhysicsManager2D19ApplyParticleForcesER13dynamic_arrayI21BatchedColliderResultLj0EE
tpd:__ZL49__ManagedRegistrationHelperFunction_TileDataProxyPv
YL:__ZN11UnityEngine15CloudWebService16SessionContainer24GetSessionHeaderJsonDataERKN4core12basic_stringIcNS2_20StringStorageDefaultIcEEEERNS2_13StringBuilderE
rtj:_DerivedType_GetEvent_m4157575360
Q0:__ZN13RuntimeStaticI21AssetReferenceStorageLb0EE13StaticDestroyEPv
Ute:__ZL56_MethodBuilder_t600455149_CustomAttributesCacheGeneratorP21CustomAttributesCache
RIj:_BinaryWriter__cctor_m874809665
Wdi:_Comparer__ctor_m2831654082
SMe:__ZL54PhysicsUpdate_t81124440_CustomAttributesCacheGeneratorP21CustomAttributesCache
OEl:__ZN25WeakReference_t133488671614set_gcHandle_1E20GCHandle_t3351438187
Qfl:__Z72RuntimeInvoker_Bounds_t2266837910_RuntimeObject_Matrix4x4U26_t3606180965PFvvEPK10MethodInfoPvPS4_
_Vi:__ZN36NameObjectCollectionBase_t209184736423set_equality_comparer_9EP12Il2CppObject
K6l:__ZN28GenericInterfaceFuncInvoker2IbiiE6InvokeEPK10MethodInfoP12Il2CppObjectii
WGa:__ZN18StreamedBinaryRead16TransferTypelessEPjPKc17TransferMetaFlags
Efm:__ZN17List_1_t25721361014set__version_3Ei
Sdd:_cf2_builder_moveTo
bzf:__ZN26ResourceReader_t330049263930get_address_of_resource_ver_10Ev
pKh:__ZN16VirtFuncInvoker1I19TimeSpan_t881159249P12Il2CppObjectE6InvokeEjS2_S2_
sNf:__ZN27ClrTypeMetadata_t388585303518set_InstanceType_2EP6Type_t
SFg:_Navigation_set_selectOnUp_m827629728_AdjustorThunk
EBe:__ZL79Convert_t2465617642_CustomAttributesCacheGenerator_Convert_ToUInt32_m3188121845P21CustomAttributesCache
JYk:__Z48RuntimeInvoker_RuntimeObject_Decimal_t2948259380PFvvEPK10MethodInfoPvPS4_
mvl:_ThreadStart_EndInvoke_m3768045394
Pvj:__ZN22FileStream_t429218306516set_buf_length_9Ei
m8k:__Z103RuntimeInvoker_Void_t1185182177_Int16_t2552820387_SByte_t1669577662_SByte_t1669577662_SByte_t1669577662PFvvEPK10MethodInfoPvPS4_
V3a:__ZNK17FileSystemHandler10IsReadOnlyERK13FileEntryData
Yxc:__Z34Quaternion_CUSTOM_Inverse_InjectedRK11QuaternionfRS_
qeg:__Z34Enumerator_get_Current_m2612064142P22Enumerator_t2017297076PK10MethodInfo
gRf:_StreamingContext__ctor_m2604757771_AdjustorThunk
snb:__Z18Transfer_BlittableI24GenerateTypeTreeTransferLb1EjEvRK29SerializationCommandArgumentsR31RuntimeSerializationCommandInfo
ORl:__ZN24Collection_1_t230466276714set_syncRoot_1EP12Il2CppObject
b$d:__ZNK29AspectRatioFitter_t331240708323get_m_DelayedSetDirty_7Ev
Lao:__ZNK15dense_hashtableINSt3__24pairIK10KeyWrapperINS1_IPK11Il2CppImageP11Il2CppClassEEEjEES9_17ReflectionMapHashIS8_EN14dense_hash_mapIS9_jSD_NS9_14EqualsComparerINS0_8equal_toIS8_EEEENS0_9allocatorISB_EEE9SelectKeyESI_SK_E10test_emptyERK30dense_hashtable_const_iteratorISB_S9_SD_SM_SI_SK_E
gNn:__ZN6il2cpp2os12FastAutoLockD2Ev
zre:__ZL68AssemblyCopyrightAttribute_t836190902_CustomAttributesCacheGeneratorP21CustomAttributesCache
Yun:_AudioSampleProvider_InvokeSampleFramesAvailable_m3478252833
Owm:_Collection_1_Add_m1736908447_gshared
Yfd:_cff_vstore_done
ymk:__ZNK23Dictionary_2_t13254515225get_serialization_info_13Ev
Ana:__ZN18StreamedBinaryRead21TransferSTLStyleArrayI13dynamic_arrayI17SortingLayerEntryLj0EEEEvRT_17TransferMetaFlags
U8k:__Z68RuntimeInvoker_Void_t1185182177_UInt16_t2177724958_SByte_t1669577662PFvvEPK10MethodInfoPvPS4_
zDl:__ZN25GenericVirtActionInvoker2IP12Il2CppObjectP39UnhandledExceptionEventArgs_t2886101344E6InvokeEPK10MethodInfoS1_S1_S3_
r_g:_InternalEnumerator_1_get_Current_m3008260692_AdjustorThunk
MYf:_MACTripleDES_HashFinal_m3613553534
hCl:_UInt64_System_IConvertible_ToChar_m2074245892
bWn:__ZN6il2cpp5utils11collections13ArrayValueMapIPK10Il2CppType17Il2CppInteropData26InteropDataToTypeConverterNS_8metadata14Il2CppTypeLessENS8_26Il2CppTypeEqualityComparerEE12SortComparerC2ES7_S9_
Mr:__ZN4core8hash_setIPN5Unity9ComponentENS_4hashIS3_EENSt3__28equal_toIS3_EEE4growEi
zAa:__ZN13RenderTexture6CreateERK12ObjectHandleI17RenderSurface_TagP17RenderSurfaceBaseES6_NS_11CreateFlagsE
grl:_UTF8Encoding_InternalGetBytes_m1965760031
uf:_emscripten_glClearDepth
rec:__ZNK8GUILayer22GetTypeVirtualInternalEv
tMa:__ZN14SafeBinaryRead21TransferSTLStyleArrayINSt3__26vectorIN15QualitySettings14QualitySettingENS1_9allocatorIS4_EEEEEEvRT_17TransferMetaFlags
ETn:__ZNK14dense_hash_mapI10KeyWrapperIPK19Il2CppGenericMethodEPK26Il2CppGenericMethodIndicesN6il2cpp8metadata23Il2CppGenericMethodHashENS4_14EqualsComparerINS9_26Il2CppGenericMethodCompareEEENSt3__29allocatorINSE_4pairIKS4_S7_EEEEE9SelectKeyclERKSI_
ubn:__ZN37U3CJumpingU3Ec__Iterator1_t232676431818set_U24disposing_3Eb
Qbm:_UnityAction_1__ctor_m3007623985_gshared
YTj:__ZNK23SHA384Managed_t741585759get_H5_12Ev
vrh:_KeyCollection__ctor_m2388548663_gshared
mil:__Z56RuntimeInvoker_Boolean_t97287965_ILTokenInfo_t2325775114PFvvEPK10MethodInfoPvPS4_
EYa:__ZNSt3__26vectorINS_4pairIPKN5Unity4TypeE7Hash128EENS_9allocatorIS7_EEE8__appendEj
HMc:__ZN8JSONRead21TransferSTLStyleArrayI13dynamic_arrayIaLj0EEEEvRT_17TransferMetaFlags
$fd:_cff_font_load
JCg:__Z24Func_2__ctor_m4101054726P17Func_2_t235587086P12Il2CppObjectiPK10MethodInfo
lsc:__Z13IsPathCreatedRKN4core12basic_stringIcNS_20StringStorageDefaultIcEEEE
L2e:__ZL99Dropdown_t2274391225_CustomAttributesCacheGenerator_Dropdown_DelayedDestroyDropdownList_m2082128994P21CustomAttributesCache
c3f:_Debug_LogWarningFormat_m2535776735
zIa:__ZL22stbir__encode_scanlineP11stbir__infoiPvPfiii
Wvn:__ZL24UnresolvedVirtualCall_28P12Il2CppObjectS0_iiPK10MethodInfo
cCf:_ExternalException__ctor_m2877839282
M8c:__ZN20QuadTreeNodeRenderer13StaticDestroyEPv
UM:__ZN11UnityEngine15CloudWebService20WebRequestRestClient5AbortEv
YTl:_Collection_1_InsertItem_m954500348_gshared
aDm:__Z25Il2CppCodeGenWriteBarrierI22RSAManaged_t1757093820EvPPT_S2_
rcc:__ZN9Transform12CleanupClassEv
Syn:__ZL25UnresolvedVirtualCall_186P12Il2CppObject22Navigation_t3049316579S1_PK10MethodInfo
_2e:__ZL57FontData_t746620069_CustomAttributesCacheGenerator_m_FontP21CustomAttributesCache
Z9f:_Mathf_Sin_m3411839043
Yca:__ZL55__ManagedRegistrationHelperFunction_SetupCoroutineProxyPv
znj:_OperatingSystem_Clone_m1122165140
qQl:_GameObject_AddComponent_TisRuntimeObject_m3469369570_gshared
uEg:__Z28List_1_get_Count_m2576555402P18List_1_t3275726873PK10MethodInfo
fWe:__ZL81AudioListenerExtension_t3242956547_CustomAttributesCacheGenerator_m_audioListenerP21CustomAttributesCache
kAe:__ZL59AttributeTargets_t1784037988_CustomAttributesCacheGeneratorP21CustomAttributesCache
sVn:__ZNK15dense_hashtableI10KeyWrapperIPK19Il2CppGenericMethodES4_N6il2cpp8metadata23Il2CppGenericMethodHashEN14dense_hash_setIS4_S7_NS4_14EqualsComparerINS6_26Il2CppGenericMethodCompareEEENSt3__29allocatorIS4_EEE8IdentityESB_SE_E8min_sizeEjj
YNe:__ZL61ThreadedLoadingDebug_t53594427_CustomAttributesCacheGeneratorP21CustomAttributesCache
WCn:_Canvas_add_willRenderCanvases_m1234571137
Okh:__Z25Il2CppCodeGenWriteBarrierI22Comparer_1_t3655984405EvPPT_S2_
Jgf:__ZN25ParameterInfo_t186105659814set_NameImpl_3EP8String_t
fkm:_List_1_RemoveAll_m3165362277_gshared
ytl:__ZN32RegisteredWaitHandle_t152953845421set__callsInProcess_8Ei
Iyl:_Type_type_is_subtype_of_m1406623598
Htm:__Z32Enumerator_get_Current_m42805805P22Enumerator_t1142515742PK10MethodInfo
XHh:__ZN19Context_t328544694415set_datastore_6EP24ObjectU5BU5D_t2843939325
Iw:__ZN9Scripting11UnityEngine2XR5Tango29MeshReconstructionServerProxy9InitProxyEv
dck:_Array_InternalArray__IEnumerable_GetEnumerator_TisRaycastResult_t3360306849_m3650537473_gshared
uek:_Array_InternalArray__IndexOf_TisVector2_t2156229523_m424149457_gshared
W0j:_String_System_IConvertible_ToByte_m4057316234
G4d:__Z31UnityEvent_1_Invoke_m3884411426P24UnityEvent_1_t343734582817Color_t2555686324PK10MethodInfo
_ag:__ZNK21Matrix4x4_t18179018439get_m01_4Ev
ssl:_Thread_get_CurrentThread_m4142136012
dva:__Z30ProcessDynamicBatchGeometryJobP25DynamicVBOGeometryJobDataj
e7b:__ZNSt3__26__treeINS_12__value_typeI11ShaderTagIDS2_EENS_19__map_value_compareIS2_S3_NS_4lessIS2_EELb1EEENS_9allocatorIS3_EEE12__find_equalIS2_EERPNS_16__tree_node_baseIPvEENS_21__tree_const_iteratorIS3_PNS_11__tree_nodeIS3_SD_EEiEERPNS_15__tree_end_nodeISF_EESG_RKT_
OQb:__ZNSt3__27__sort4IRNS_6__lessI11CulledLightS2_EEPS2_EEjT0_S6_S6_S6_T_
Dho:__ZN6il2cpp2vm14TypeNameParser26ParseArrayModifierOptionalEv
O$l:_ReadOnlyCollection_1_GetEnumerator_m3522987773_gshared
FY:__Z26scripting_object_get_class18ScriptingObjectPtr
Wpo:__ZN6il2cpp6icalls8mscorlib6System10Reflection8Assembly13get_code_baseEP24Il2CppReflectionAssemblyb
pZc:__ZN34b2SolveDiscreteIslandBodySleepTaskD0Ev
vZa:__ZNSt3__26vectorIN4core12basic_stringIcNS1_20StringStorageDefaultIcEEEE13stl_allocatorIS5_L18MemLabelIdentifier13ELi16EEE7reserveEj
NWf:_DSASignatureDeformatter__ctor_m2889130126
b7i:_X509ChainElementCollection_Clear_m2271223414
vrf:__ZN16VirtFuncInvoker0IP27UnmanagedMarshal_t984015687E6InvokeEjP12Il2CppObject
fec:__ZNK28MonoBehaviourPropertyBinding15GenerateBindingERKN4core12basic_stringIcNS0_20StringStorageDefaultIcEEEEbRN11UnityEngine9Animation14GenericBindingE
Epm:_List_1_set_Item_m35836043_gshared
r5e:__ZL70ScrollRect_t4137855814_CustomAttributesCacheGenerator_m_OnValueChangedP21CustomAttributesCache
z7i:_X509ChainElementCollection__ctor_m3424079155
zIm:__ZN39X509Certificate_t489243025_StaticFields30set_U3CU3Ef__switchU24map11_25EP24Dictionary_2_t2736202052
abh:__ZN32InternalEnumerator_1_t35075654099set_idx_1Ei
qYf:_HMACSHA512__cctor_m4155933671
aNm:_LinkStack_Push_m3081279930
tGj:__ZN6Guid_t8set__b_1Es
GIk:__Z25Il2CppCodeGenWriteBarrierI29Level2MapComparer_t1716225294EvPPT_S2_
$Ad:__Z33GetUnityAnalyticsScriptingClassesv
nph:_Enumerator_MoveNext_m1107569389_gshared
Pen:__ZN27AnalyticsTracker_t73102137815set_m_Trigger_8Ei
qvl:_Timer_Init_m891735195
G2n:__ZNSt3__26vectorIP9FieldInfoNS_9allocatorIS2_EEE26__swap_out_circular_bufferERNS_14__split_bufferIS2_RS4_EE
kkn:_UnityEvent_3_GetDelegate_m1156357290_gshared
TGo:__ZN6il2cpp6icalls8mscorlib6System11Environment15internalGetHomeEv
A6g:_InternalEnumerator_1__ctor_m4200721464_gshared
kbg:_Matrix4x4_GetHashCode_m4034747639_AdjustorThunk
Jxn:__ZL25UnresolvedVirtualCall_123P12Il2CppObjectiPK10MethodInfo
Oha:__ZN9Scripting11UnityEngine12CubemapProxy12CleanupProxyEv
hQd:__Z25Il2CppCodeGenWriteBarrierI18List_1_t2475741330EvPPT_S2_
BAf:_ResourceCacheItem_t51292791_marshal_pinvoke_cleanup
M5m:_U3CSunAnimationU3Ec__Iterator0_Reset_m1209266175
wja:__ZNK5Unity9Component7GetNameEv
y3n:__ZNSt3__214__split_bufferIN6il2cpp6icalls8mscorlib6System12PropertyPairERNS_9allocatorIS5_EEEC2EjjS8_
L_b:__Z23FindMonoScriptFromClass17ScriptingClassPtr
DVj:_SymmetricAlgorithm_get_KeySize_m4185004893
Uhm:_List_1_GetEnumerator_m232588170_gshared
Rin:__Z24List_1_Clear_m3097985365P17List_1_t899420910PK10MethodInfo
LBg:_U3CDelayedSetDirtyU3Ec__Iterator0_Reset_m160466733
B0c:__ZNSt3__26vectorIPN10ClipperLib6OutRecENS_9allocatorIS3_EEE21__push_back_slow_pathIRKS3_EEvOT_
ruj:_DynamicMethod_ToString_m2710486086
mIk:__Z25Il2CppCodeGenWriteBarrierI28TableRangeU5BU5D_t2913440125EvPPT_S2_
oPg:__ZN18Slider_t390372890223set_m_OnValueChanged_25EP23SliderEvent_t3180273144
Onm:_List_1_System_Collections_IList_Remove_m1070694895_gshared
H_m:_LayoutCache__ctor_m3885940174
aOa:__ZN13ScreenManagerD0Ev
fFn:_AnimationMotionXToDeltaPlayable_GetHandle_m1319190040_AdjustorThunk
LPn:_Tile_GetTileData_m1811823766
MRc:__ZNK11b2RopeJoint16GetReactionForceEf
sLo:__ZN6il2cpp6icalls8mscorlib6System11DiagnosticsL39IsCalledFromSystemDiagnosticsStackTraceERKNSt3__26vectorI20Il2CppStackFrameInfoNS4_9allocatorIS6_EEEE
fDm:_TlsServerSettings__ctor_m373357120
gCl:_UInt64_System_IConvertible_ToByte_m1501504925_AdjustorThunk
axi:__ZN49RSASslSignatureFormatter_t2709678514_StaticFields29set_U3CU3Ef__switchU24map16_2EP24Dictionary_2_t2736202052
Xtl:__ZN30GenericInterfaceActionInvoker2IP12Il2CppObjectbE6InvokeEPK10MethodInfoS1_S1_b
Wjh:__ZN16VirtFuncInvoker2Ii22OrderBlock_t1585977831S0_E6InvokeEjP12Il2CppObjectS0_S0_
Vui:_TlsClientHello_ProcessAsTls1_m2549285167
Aba:__ZL50__ManagedRegistrationHelperFunction_PreUpdateProxyPv
SXi:__ZN25FtpWebRequest_t157781830511set_proxy_7EP12Il2CppObject
K0l:_ReadOnlyCollection_1_System_Collections_IList_Clear_m3591436538_gshared
RJg:_ScrollRect_set_decelerationRate_m723367336
DSd:__Z33EventFunction_1__ctor_m3477300752P27EventFunction_1_t2886331738P12Il2CppObjectiPK10MethodInfo
qvg:__Z75SetPropertyUtility_SetStruct_TisCharacterValidation_t4051914437_m1041518770P12Il2CppObjectPiiPK10MethodInfo
S_g:__Z38InternalEnumerator_1__ctor_m3456047704P31InternalEnumerator_1_t350626606P11Il2CppArrayPK10MethodInfo
a6j:_EncoderExceptionFallback_Equals_m2760188920
Tbh:_InternalEnumerator_1__ctor_m43405049_AdjustorThunk
Unf:__ZN31OpCodes_t126150456_StaticFields15set_Mul_Ovf_182E17OpCode_t123070264
Aw:__ZL65__ManagedRegistrationHelperFunction_MeshReconstructionConfigProxyPv
Ioe:__ZL94Hashtable_t1853889766_CustomAttributesCacheGenerator_Hashtable_t1853889766____hcp_PropertyInfoP21CustomAttributesCache
$jl:__Z47RuntimeInvoker_Void_t1185182177_Link_t544317964PFvvEPK10MethodInfoPvPS4_
HB:__ZN4FMOD6System7releaseEv
kik:__ZNK15Link_t54431796410get_Next_1Ev
A6h:_Boolean_CompareTo_m3665076258
u1j:_String_Split_m3580120853
hUk:_PrivateKeyInfo__ctor_m2811023496
V_:__Z18PathToAbsolutePathRKN4core12basic_stringIcNS_20StringStorageDefaultIcEEEE
YUe:__ZL95Rigidbody2D_t939494601_CustomAttributesCacheGenerator_Rigidbody2D_AddForce_m1099013366____mode1P21CustomAttributesCache
o0m:_GUILayoutUtility_LayoutFromEditorWindow_m2914699782
Tfi:_BigInteger_SetBit_m1723423691
wVg:__Z41InternalEnumerator_1_MoveNext_m4138845038P32InternalEnumerator_1_t4239932009PK10MethodInfo
LUj:__ZNK25SHA512Managed_t17873363398get_H2_9Ev
Zgl:__Z78RuntimeInvoker_RuntimeObject_ObjectU26_t2146539884_RuntimeObject_RuntimeObjectPFvvEPK10MethodInfoPvPS4_
bDj:__ZNK30DateTimeFormatInfo_t240585370123get_shortTimePattern_17Ev
nTm:__ZNK22AnchorInfo_t338701115111get_width_4Ev
C2c:__ZThn160_N17PolygonCollider2D5ResetEv
rWi:__ZNK27_KeysEnumerator_t424666643216get_m_position_1Ev
Lfe:__ZN40GraphicRegistry_t3479976429_StaticFields17set_s_EmptyList_2EP18List_1_t3132410353
$Bg:__ZNK39LayoutRebuilder_t541313304_StaticFields26get_U3CU3Ef__amU24cache0_4Ev
oyc:__Z22Mesh_CUSTOM_HasChannelP12Il2CppObject30InternalScriptingShaderChannel
Pon:__ZN32Vector2_t2156229523_StaticFields14set_upVector_4E19Vector2_t2156229523
YFa:__Z14resize_trimmedINSt3__26vectorI13dynamic_arrayI8Vector2fLj0EENS0_9allocatorIS4_EEEEEvRT_j
LKl:_Array_InternalArray__set_Item_TisColor32_t2600501292_m1891325855_gshared
hyn:__ZL25UnresolvedVirtualCall_149P12Il2CppObject25PlayableGraph_t3515989261S0_PK10MethodInfo
Ttb:__ZN10MonoScript23VirtualRedirectTransferER17RemapPPtrTransfer
tQl:_GameObject_GetComponentInChildren_TisRuntimeObject_m1310240902_gshared
XTi:_Locale_GetText_m2640320736
RKm:__ZN20IntStack_t218932768712set_values_0EP22Int32U5BU5D_t385246372
FQe:__ZL69PersistentCall_t3407714124_CustomAttributesCacheGenerator_m_ArgumentsP21CustomAttributesCache
gJa:__ZN29SerializeTraitsForStringTypesIN4core12basic_stringIcNS0_20StringStorageDefaultIcEEEEE8TransferI24GenerateTypeTreeTransferEEvRS4_RT_
R8:__ZN6prcoreL21StretchRGB9e5BilinearEPKNS_9InnerInfoE
fza:__ZN16ReflectionProbes28GetMinBakedCubemapResolutionEv
Upo:__ZN6il2cpp6icalls8mscorlib6System10Reflection8Assembly22load_with_partial_nameEP12Il2CppStringP40mscorlib_System_Security_Policy_Evidence
HUa:__ZN14BlendShapeData8TransferI14SafeBinaryReadEEvRT_
eHg:__Z25Il2CppCodeGenWriteBarrierI17List_1_t651996883EvPPT_S2_
J7c:__ZN10SpriteMask17GetSortingGroupIDEj
lwh:_Enumerator__ctor_m1849900510_gshared
CJo:__GLOBAL__sub_I_String_cpp
hNn:__ZN15dense_hashtableINSt3__24pairIK10KeyWrapperIPK22Il2CppGenericParameterEP11Il2CppClassEES6_N6il2cpp5utils11PointerHashIS4_EEN14dense_hash_mapIS6_S9_SE_NS6_14EqualsComparerINS0_8equal_toIS5_EEEENS0_9allocatorISA_EEE9SelectKeyESJ_SL_E6insertERKSA_
IBh:_CADMessageBase_MarshalArguments_m1927937746
Fxg:_InputField_GenerateCaret_m1459647218
kzf:__ZN26ResourceReader_t330049263912set_hashes_6EP22Int32U5BU5D_t385246372
HDb:__ZN14DataBufferGLES16RecreateWithDataEjPKv
Tja:__Z29GetGlobalAllowNameConversionsv
OIl:_Array_InternalArray__Insert_TisTableRange_t3332867892_m558285859_gshared
KFk:__Z34Enumerator_VerifyState_m3479732886P22Enumerator_t2788664787PK10MethodInfo
C$b:__ZN8Material8SetColorEN9ShaderLab16FastPropertyNameERK10ColorRGBAf
qYi:__ZN26HttpWebRequest_t166943651517set_webHeaders_14EP31WebHeaderCollection_t1942268960
wGh:__ZNK32Context_t3285446944_StaticFields18get_global_count_9Ev
s0e:__ZL77ExecuteEvents_t3484638744_CustomAttributesCacheGenerator_U3CU3Ef__mgU24cacheFP21CustomAttributesCache
Yyj:__ZN20TextInfo_t381042552221get_address_of_data_8Ev
Jpk:__ZN43EqualityComparer_1_t1249878500_StaticFields14set__default_0EP30EqualityComparer_1_t1249878500
pRj:__ZNK22TextWriter_t347818923617get_CoreNewLine_0Ev
oGk:_Enumerator_System_Collections_IEnumerator_Reset_m3754523291_gshared
Cna:__ZN15SerializeTraitsI13dynamic_arrayI17SortingLayerEntryLj0EEE8TransferI19StreamedBinaryWriteEEvRS2_RT_
o8o:_glUniform3uiv__wrapper
vAe:__ZL77Convert_t2465617642_CustomAttributesCacheGenerator_Convert_ToByte_m2375887898P21CustomAttributesCache
m7i:_X509CertificateEnumerator__ctor_m943731472
ZUj:_SHA512Managed_processLength_m2162821715
Pig:_RangeInt_get_end_m4128831787
dbm:_InvokableCall_1_Find_m1741895083_gshared
T0o:dynCall_iiifiii
wHd:__Z25GetUnityConnectModuleSpecv
xmm:_List_1_set_Item_m2082115010_gshared
c7j:_Encoding_GetBytes_m3735967069
k$c:__ZN23ColliderTilingExtension5ResetEv
l4h:_Array_Initialize_m3004991267
_Gb:__ZN14GfxContextGLES43AddRenderSurfaceToDeferredFBOInvalidateListEPK17RenderSurfaceGLES
Fqo:__ZN6il2cpp6icalls8mscorlib6System9Threading6Thread15Thread_internalEP12Il2CppThreadP14Il2CppDelegate
qma:__ZN11NamedObject23VirtualRedirectTransferER14SafeBinaryRead
Iee:__ZN19Graphic_t166033561130set_m_OnDirtyLayoutCallback_14EP23UnityAction_t3245792599
mef:__Z25Il2CppCodeGenWriteBarrierI24LocalBuilder_t3562264111EvPPT_S2_
$cd:__ZNSt3__26vectorIN20TextRenderingPrivate8FontImpl13CharacterInfoE13stl_allocatorIS3_L18MemLabelIdentifier1ELi16EEE6insertENS_11__wrap_iterIPKS3_EERS9_
t_a:__ZN23PreloadManagerOperation6IsDoneEv
UUh:__ZNK46RemotingConfiguration_t4113740665_StaticFields16get__errorMode_5Ev
F7g:_InternalEnumerator_1_Dispose_m469889800_gshared
V4n:__ZN6il2cpp2vm7Runtime15InvokeWithThrowEPK10MethodInfoPvPS5_
Nci:__ZNK29BitArrayEnumerator_t89349621814get__current_1Ev
U7m:_U3CStartingCutsceneU3Ec__Iterator1_System_Collections_IEnumerator_get_Current_m385025245
$ba:__ZL44__ManagedRegistrationHelperFunction_LODProxyPv
cTn:__ZNK15dense_hashtableINSt3__24pairIK10KeyWrapperIP9FieldInfoEiEES5_N6il2cpp5utils11PointerHashIS3_EEN14dense_hash_mapIS5_iSB_NS5_14EqualsComparerINS0_8equal_toIS4_EEEENS0_9allocatorIS7_EEE9SelectKeyESG_SI_E3endEv
B5c:__ZN10Effector2D10EndContactEP9b2Contact
GIo:__ZN6il2cpp5utils11StringUtils11Utf16ToUtf8ERKNSt3__212basic_stringIDsNS2_11char_traitsIDsEENS2_9allocatorIDsEEEE
f4l:_Comparison_1__ctor_m2649066178_gshared
Jji:_MD4Managed_Decode_m4273685594
Y4k:__Z50RuntimeInvoker_Int64_t3736567304_Int16_t2552820387PFvvEPK10MethodInfoPvPS4_
XLn:_UnityEngineModuleAssembly__ctor_m242195730
yci:__ZN20BitArray_t408788350914set__version_2Ei
pal:__Z57RuntimeInvoker_Quaternion_t2301928331_Vector3_t3722313464PFvvEPK10MethodInfoPvPS4_
e0a:__ZN21LightProbeProxyVolume18HasHardwareSupportEv
$Vc:__ZNK20b2SeparationFunction17FindMinSeparationEPiS0_f
nhj:_IntPtr__ctor_m620280096
daa:__ZN6prcoreL31inner_stretch_argb8888_bilinearEPKNS_9InnerInfoE
rcn:_TitleScreen_Update_m3843499550
qkd:_UNITY_FT_Outline_Decompose
ggj:_Int64_System_IConvertible_ToChar_m1509243576_AdjustorThunk
Gih:__ZNK35Comparer_1_t1597042847_StaticFields14get__default_0Ev
YEm:_GeneralNames_get_IPAddresses_m4242915644
dBk:_Enumerator_Dispose_m3500272053_AdjustorThunk
SWn:__ZNSt3__24pairIK10KeyWrapperIN6il2cpp5utils13dynamic_arrayIPK10Il2CppTypeLj4EEEEPFvvEEC2ERKSD_
rWe:__ZL84AudioSampleProvider_t3950279772_CustomAttributesCacheGenerator_sampleFramesAvailableP21CustomAttributesCache
S1g:__ZNK32InternalEnumerator_1_t398717028111get_array_0Ev
xra:__Z20scripting_object_new17ScriptingClassPtr
Rfe:__ZN27GridLayoutGroup_t304622046119set_m_Constraint_16Ei
lme:__ZL69RuntimeArray_CustomAttributesCacheGenerator_Array_Reverse_m3714848183P21CustomAttributesCache
TUk:_KeyGeneratedEventHandler_Invoke_m2527485594
ZPj:__ZNK24StreamWriter_t126637890414get_byte_buf_5Ev
cje:_Image_get_layoutPriority_m1290204116
t7n:__ZN24dense_hashtable_iteratorINSt3__24pairIK10KeyWrapperINS1_IPK9FieldInfoP11Il2CppClassEEEjEES9_17ReflectionMapHashIS8_EN14dense_hash_mapIS9_jSD_NS9_14EqualsComparerINS0_8equal_toIS8_EEEENS0_9allocatorISB_EEE9SelectKeyESI_SK_E30advance_past_empty_and_deletedEv
RUm:_Repetition_get_Expression_m2673886232
Epj:__ZN23AssemblyName_t27093193814set_revision_5Ei
pOi:_Decimal__ctor_m1925875020_AdjustorThunk
xKf:_SerializationCallbacks__ctor_m3863304525
D8c:__GLOBAL__sub_I_TerrainScriptingClasses_cpp
jx:__ZN23PreloadManagerOperation21MustCompleteNextFrameEv
zSm:__ZN18Parser_t243050938310set_caps_2EP21ArrayList_t2718874744
nwe:__ZL59SerializationInfo_t950877179_CustomAttributesCacheGeneratorP21CustomAttributesCache
MPn:__ZNK16Tile_t137892977314get_m_Sprite_4Ev
rSh:_ReturnMessage_get_Exception_m3375728265
d8k:__Z44RuntimeInvoker_X509KeyUsageFlags_t1431795504PFvvEPK10MethodInfoPvPS4_
L:Math_exp
Cpn:_Vector3_Min_m1803158933
Gn:FUNCTION_TABLE_iiifi
Eji:__ZNK21MD4Managed_t95754006311get_state_4Ev
C4c:__ZN13BoxCollider2D15InitializeClassEv
dQj:_StreamWriter_LowLevelWrite_m1081676583
yDm:_TlsServerSettings_set_CertificateTypes_m2047242411
_2m:_SymmetricTransform_OFB_m3690147804
$eh:_InternalEnumerator_1_MoveNext_m3713722659_AdjustorThunk
Jzn:__ZL25UnresolvedVirtualCall_231P12Il2CppObject19TimeSpan_t881159249S1_PK10MethodInfo
zMd:__Z64ExecuteEvents_Execute_TisIDeselectHandler_t393712923_m2480832291P12Il2CppObjectP22GameObject_t1113636619P25BaseEventData_t3903027533P27EventFunction_1_t3373214253PK10MethodInfo
Qub:__ZN13MonoBehaviour9SetScriptERK4PPtrI10MonoScriptE18ScriptingObjectPtr
cEi:__ZN19Decimal_t29482593808set_hi_6Ej
trb:__Z18Transfer_BlittableI18StreamedBinaryReadLb1E5RectTIiEEvRK29SerializationCommandArgumentsR31RuntimeSerializationCommandInfo
nKn:_RaycastHit2D_get_collider_m1549426026
_go:__ZN14dense_hash_mapI10KeyWrapperINSt3__24pairIPK9FieldInfoP11Il2CppClassEEEj17ReflectionMapHashIS8_ENS9_14EqualsComparerINS1_8equal_toIS8_EEEENS1_9allocatorINS2_IKS9_jEEEEED2Ev
Qkb:__Z18Transfer_BlittableI17RemapPPtrTransferLb0E8Vector2fEvRK29SerializationCommandArgumentsR31RuntimeSerializationCommandInfo
kuo:__ZNSt3__218uninitialized_copyIPNS_4pairIK10KeyWrapperIP14Il2CppIUnknownEjEES8_EET0_T_SA_S9_
n_j:__ZN40SecurityElement_t1046076091_StaticFields29set_invalid_attr_name_chars_6EP22CharU5BU5D_t3528271667
Skh:__ZNK35Comparer_1_t3655984405_StaticFields14get__default_0Ev
jHl:__ZNK40RSAPKCS1KeyExchangeFormatter_t276109610112get_random_1Ev
$Zh:_PKCS12_get_RNG_m2649456600
U5a:__ZNK10FileSystem16LastErrorMessageEv
BKj:__ZN32FileNotFoundException_t22539102515set_fileName_11EP8String_t
oGe:__ZL104NativeClassAttribute_t2601352714_CustomAttributesCacheGenerator_U3CQualifiedNativeNameU3Ek__BackingFieldP21CustomAttributesCache
SPa:__ZN4PPtrI11LightProbesE8TransferI18StreamedBinaryReadEEvRT_
EHn:_CustomEventData_Internal_Destroy_m3916992396
hRn:__ZN15dense_hashtableINSt3__24pairIK10KeyWrapperIPK11Il2CppClassEPKcEES6_N6il2cpp5utils11PointerHashIS3_EEN14dense_hash_mapIS6_S9_SE_NS6_14EqualsComparerINS0_8equal_toIS5_EEEENS0_9allocatorISA_EEE9SelectKeyESJ_SL_E14squash_deletedEv
XPd:_EventSystem_Update_m1662072334
y4j:_SystemException__ctor_m4132668650
AJd:__ZN22UnityWebRequestManager10InitializeEv
i_a:__ZNSt3__26__treeINS_12__value_typeIN4core12basic_stringIcNS2_20StringStorageDefaultIcEEEE4PPtrI6ObjectEEENS_19__map_value_compareIS6_SA_NS_4lessIS6_EELb1EEE13stl_allocatorISA_L18MemLabelIdentifier52ELi16EEE15__emplace_multiIJRNS_4pairIS6_S9_EEEEENS_15__tree_iteratorISA_PNS_11__tree_nodeISA_PvEEiEEDpOT_
YPo:__ZN6il2cpp6icalls8mscorlib6System10Reflection4Emit13ModuleBuilder20create_modified_typeEP27Il2CppReflectionTypeBuilderP12Il2CppString
SLo:__ZN6il2cpp8metadataL7CompareIhEEiRKT_S4_
wcd:_raccess_guess_darwin_newvfs
AQa:__ZN8Renderer23VirtualRedirectTransferER18StreamedBinaryRead
Alb:__ZL26Transfer_SimpleNativeClassI17RemapPPtrTransfer8GradientLb1EEvRK29SerializationCommandArgumentsR31RuntimeSerializationCommandInfo
MOd:_RaycasterManager_RemoveRaycasters_m3057093063
plc:__ZN12CachedWriter9InitWriteER15CacheWriterBase
loc:__Z21UnsignedInt64ToStringy
ijn:__Z26List_1_set_Item_m658432263P17List_1_t899420910i19Vector3_t3722313464PK10MethodInfo
DIg:_GetRaycastNonAllocCallback_BeginInvoke_m3984885848
t2g:_InternalEnumerator_1_MoveNext_m4138204635_AdjustorThunk
QOm:_PatternCompiler_BeginLink_m1295557963
s3j:__ZN33Encoding_t1523322056_StaticFields24set_isoLatin1Encoding_23EP20Encoding_t1523322056
r6e:__ZL70CanvasScaler_t2767979955_CustomAttributesCacheGenerator_m_PhysicalUnitP21CustomAttributesCache
yLc:__Z18Transfer_BlittableI8JSONReadLb1E5RectTIfEEvRK29SerializationCommandArgumentsR31RuntimeSerializationCommandInfo
NGj:_GuidParser_ThrowFormatException_m3223388534
vUm:_Group_GetAnchorInfo_m3730312864
m3e:__ZL50Graphic_t1660335611_CustomAttributesCacheGeneratorP21CustomAttributesCache
bgh:__Z44InternalEnumerator_1_get_Current_m2297647799P32InternalEnumerator_1_t2261582729PK10MethodInfo
PCg:__ZNK38LayoutUtility_t2745813735_StaticFields26get_U3CU3Ef__amU24cache0_0Ev
jOg:__Z66SetPropertyUtility_SetStruct_TisNavigation_t3049316579_m1469939781P12Il2CppObjectP22Navigation_t3049316579S1_PK10MethodInfo
Lxl:_TimeSpan_op_LessThanOrEqual_m300470010
TVe:__ZL139AnimatorOverrideController_t3582062219_CustomAttributesCacheGenerator_AnimatorOverrideController_OnInvalidateOverrideController_m3380737075P21CustomAttributesCache
bIh:_ContextAttribute_Freeze_m3288175579
Npf:_TypeBuilder_DefineMethodOverride_m2703939108
Tdg:__Z76Enumerable_SingleOrDefault_TisMessageTypeSubscribers_t1684935770_m2109312684P12Il2CppObjectS0_P18Func_2_t2172606577PK10MethodInfo
eUn:__ZNSt3__218uninitialized_fillIPNS_4pairIK10KeyWrapperIPK19Il2CppGenericMethodEPK26Il2CppGenericMethodIndicesEESB_EEvT_SD_RKT0_
A4:__ZZN15DirectorManager15InitializeClassEvEN41FixedUpdateDirectorFixedUpdateRegistrator7ForwardEv
ceo:__ZN6il2cpp2vmL10IsAssemblyEP12Il2CppObject
iNj:_MemoryStream_get_Position_m3733941202
kSo:__ZN6il2cpp2os9MutexImpl7TryLockEjb
Imn:_ListPool_1_Clear_m2587502754_gshared
xWm:__ZN27Uri_t100236324_StaticFields30set_U3CU3Ef__switchU24map16_32EP24Dictionary_2_t2736202052
ZNo:_GC_clear_fl_links
j_k:__Z58RuntimeInvoker_RuntimeTypeHandle_t3027515415_RuntimeObjectPFvvEPK10MethodInfoPvPS4_
BYj:__ZN20Evidence_t200814414826set_assemblyEvidenceList_2EP21ArrayList_t2718874744
B3b:__ZL10KeyHandleriPK23EmscriptenKeyboardEventPv
gAi:_Slot_t3975888750_marshal_pinvoke
u5o:_glLinkProgram__wrapper
l4a:__ZN18ScriptingArguments8AddInt64Ex
o9:__ZN6prcoreL12RemapGenericI17TexFormatARGB888815TexFormatBGR888EEvPKNS_9InnerInfoE
Lfb:__ZN26SinglePassStereoSupportExt19SaveStereoConstantsEv
Y5:__ZNSt3__26vectorIP10MemoryPool13stl_allocatorIS2_L18MemLabelIdentifier76ELi16EEE21__push_back_slow_pathIRKS2_EEvOT_
gGj:_TextInfo_get_ListSeparator_m1628160079
ako:_il2cpp_unity_liveness_calculation_from_root
j0e:__ZL77ExecuteEvents_t3484638744_CustomAttributesCacheGenerator_U3CU3Ef__mgU24cache6P21CustomAttributesCache
MOg:_Selectable_OnCanvasGroupChanged_m472903475
lkn:_UnityEvent_4__ctor_m831487108_gshared
xBh:__ZNK32CADMethodReturnMessage_t2812984718get__returnValue_4Ev
Hqi:_ClientContext_get_SslStream_m1583577309
kto:__ZN6il2cpp6icalls8mscorlib6System13Globalization11CultureInfo35construct_internal_locale_from_nameEP17Il2CppCultureInfoP12Il2CppString
e$l:_ReadOnlyCollection_1_System_Collections_IList_set_Item_m4015530489_gshared
uIn:__ZL18incMultConstant128PyS_ii
Hnb:__ZL22Transfer_ManagedObjectI24GenerateTypeTreeTransferLb1EEvRK29SerializationCommandArgumentsR31RuntimeSerializationCommandInfo
GXk:__Z100RuntimeInvoker_Boolean_t97287965_RuntimeObject_Int32_t2950945753_RuntimeObject_UInt16U26_t2814738322PFvvEPK10MethodInfoPvPS4_
_ll:__Z56RuntimeInvoker_ILTokenInfo_t2325775114_Int32_t2950945753PFvvEPK10MethodInfoPvPS4_
gXf:_HMAC_get_BlockSizeValue_m455678067
lOb:__ZN15RenderNodeQueueC2E10MemLabelId
Q0n:__ZN6il2cpp2vm21ThreadPoolCompartment20SpawnNewWorkerThreadEv
mAf:_ResourceEnumerator_FillCache_m1661715061
M0l:_ReadOnlyCollection_1_System_Collections_IList_IndexOf_m3664838805_gshared
Qtd:__ZL17CleanupModule_TLSv
qye:__ZL72SecuritySafeCriticalAttribute_t3505979402_CustomAttributesCacheGeneratorP21CustomAttributesCache
wi:_emscripten_set_main_loop_timing
x8e:__ZL83GameManager_t1536523654_CustomAttributesCacheGenerator_GameManager_Wait_m3539664118P21CustomAttributesCache
DJi:_Convert_ToUInt16_m3523269149
G$f:_Bounds_get_center_m1418449258
WAo:__ZN24dense_hashtable_iteratorINSt3__24pairIK10KeyWrapperIP12Il2CppObjectEN6il2cpp2gc9CachedCCWEEES5_NS7_5utils11PointerHashIS3_EEN14dense_hash_mapIS5_S9_SD_NS5_14EqualsComparerINS0_8equal_toIS4_EEEENS0_9allocatorISA_EEE9SelectKeyESI_SK_EC2EPK15dense_hashtableISA_S5_SD_SM_SI_SK_EPSA_SS_b
z2d:__ZNK19Vector3_t37223134647get_y_3Ev
_Eb:__ZN14DataBufferGLES12RecordRenderEv
yRd:_ExecuteEvents_get_endDragHandler_m2879610446
k9m:__ZN18Player_t326664731210set_down_8Ei
qlj:__ZNK34DefaultMemberAttribute_t327509242217get_member_name_0Ev
g$b:__ZN14ImageReference10FlipImageYEv
VLn:_UsedByNativeCodeAttribute__ctor_m2647015777
f8:__ZN6prcoreL17RGBAFloatToRGB9e5EPKNS_9InnerInfoE
eum:__ZN19Stack_1_t392349561923get_address_of__array_0Ev
Reh:__Z44InternalEnumerator_1_get_Current_m3792939945P31InternalEnumerator_1_t982565223PK10MethodInfo
fqa:__ZN21ScalableBufferManager20GetHeightScaleFactorEv
E6b:__ZNSt3__26vectorIN9ShaderLab20SerializedSubProgram15VectorParameterENS_9allocatorIS3_EEE8__appendEj
xy:__ZN4FMOD3DSP9setBypassEb
r3b:__Z19NormalizeWheelInputf
bee:_Graphic_DoMeshGeneration_m3548487693
q2b:__Z29StdTemplateConversionFunctionIsaEbPvR14SafeBinaryRead
wv:__ZN11KeyframeTplIfE8TransferI14SafeBinaryReadEEvRT_
kv:__ZNK4PPtrI13MonoBehaviourEcvPS0_Ev
oRm:_Repetition__ctor_m1672362629
WNc:__Z29Transfer_Blittable_ArrayFieldI8JSONReadhEvRT_R9ArrayInfoRK23StaticTransferFieldInfo
C$j:_SecurityFrame_ToString_m339310712_AdjustorThunk
Oae:__ZN19FontData_t74662006917set_m_FontStyle_2Ei
xac:__ZN11MonoManager25GetImageFromAssemblyIndexEi
g_g:_InternalEnumerator_1_get_Current_m3008260692_gshared
$Uo:__ZN6il2cpp2os20ThreadLocalValueImpl8SetValueEPv
EKo:__ZN6il2cpp2os11Environment17GetProcessorCountEv
qHi:_Decimal_op_Implicit_m2299919277
HIc:__Z18Transfer_BlittableI9JSONWriteLb1EtEvRK29SerializationCommandArgumentsR31RuntimeSerializationCommandInfo
Csj:__ZNK30ConstructorBuilder_t281352410816get_parameters_3Ev
Xkf:__ZN31OpCodes_t126150456_StaticFields15set_Ldc_I4_1_23E17OpCode_t123070264
FRj:_UnexceptionalStreamReader_ReadToEnd_m920589220
pMi:_DateTime_System_IConvertible_ToType_m1242864300
W1j:_String_IndexOf_m1298810678
Ce:___syscall85
yvd:__ZN2UI14CanvasRenderer18UpdateTRSHierarchyEb
Wbo:__ZNK24dense_hashtable_iteratorINSt3__24pairIK10KeyWrapperINS1_IPK12PropertyInfoP11Il2CppClassEEEjEES9_17ReflectionMapHashIS8_EN14dense_hash_mapIS9_jSD_NS9_14EqualsComparerINS0_8equal_toIS8_EEEENS0_9allocatorISB_EEE9SelectKeyESI_SK_EdeEv
OQl:_Mesh_GetAllocArrayFromChannel_TisVector3_t3722313464_m2332439905_gshared
Too:__ZN6il2cpp5utils10StringViewIDsE5EmptyEv
qOb:__ZNSt3__26__sortIRPFbP10GUIElementS2_EPS2_EEvT0_S7_T_
Hfh:__Z44InternalEnumerator_1_get_Current_m1534474313P31InternalEnumerator_1_t669594426PK10MethodInfo
y3j:_EncoderFallback_get_ReplacementFallback_m818398284
GFo:__ZN6il2cpp2os6Thread19DetachCurrentThreadEv
IQd:_EventTrigger_OnBeginDrag_m4203438710
BDh:_ClientActivatedIdentity_OnLifetimeExpired_m635240647
sgb:__ZN11MonoManager23VirtualRedirectTransferER24GenerateTypeTreeTransfer
VNl:_Dictionary_2_Do_CopyTo_TisRuntimeObject_TisRuntimeObject_m2344529027_gshared
Ynj:__Z25Il2CppCodeGenWriteBarrierI30ResolveEventHolder_t2120639521EvPPT_S2_
zQc:__GLOBAL__sub_I_Modules_Physics2D_0_cpp
g7f:_SupportedRenderingFeatures_set_active_m3446087961
IKf:__ZN24TypeMetadata_t313952326017set_MemberTypes_1EP22TypeU5BU5D_t3940880105
$ml:__Z37RuntimeInvoker_UILineInfo_t4195266810PFvvEPK10MethodInfoPvPS4_
D2f:_CullingGroup_Dispose_m782801025
Tlk:_Dictionary_2_System_Collections_IDictionary_GetEnumerator_m529247385_gshared
YVg:__Z38InternalEnumerator_1__ctor_m3349908318P32InternalEnumerator_1_t1004352082P11Il2CppArrayPK10MethodInfo
UL:__ZN11UnityEngine15CloudWebService14DataDispatcher15SetupWebRequestEv
wsk:_EqualityComparer_1_get_Default_m1038871402_gshared
ICd:__ZN11UnityEngine15PlatformWrapper13GetShaderCapsEv
$jj:__ZN37MonoEnumInfo_t3694469084_StaticFields18set_global_cache_5EP21Hashtable_t1853889766
rWb:__ZNSt3__211__sift_downIR26RenderDeferredObjectSorterP16RenderObjectDataEEvT0_S5_T_NS_15iterator_traitsIS5_E15difference_typeES5_
E_e:__ZL99CertificateHandler_t2739891000_CustomAttributesCacheGenerator_CertificateHandler_Release_m648790222P21CustomAttributesCache
EWf:__ZN16VirtFuncInvoker1IP22ByteU5BU5D_t4116647657S1_E6InvokeEjP12Il2CppObjectS1_
Scf:_GenericTypeParameterBuilder_IsDefined_m98179866
mUe:__ZL82Physics2D_t1528932956_CustomAttributesCacheGenerator_Physics2D_Raycast_m1377762210P21CustomAttributesCache
NSk:_KeyPairPersistence_get_MachinePath_m3812267291
kDi:_Stack_Peek_m2216191248
cMi:_DateTime_System_IConvertible_ToDecimal_m1044850612_AdjustorThunk
kic:__ZN21FixedBehaviourManager6UpdateEv
dsc:__ZN9Transform9SetParentEPS_NS_15SetParentOptionE
pJo:__ZN6il2cpp2vm13ComObjectBase16GetWeakReferenceEPP20Il2CppIWeakReference
pua:__ZN19ShaderPropertySheet8SetFloatEN9ShaderLab16FastPropertyNameEfNS_8SetFlagsE
Hlh:__Z34KeyValuePair_2_get_Key_m1839753989P24KeyValuePair_2_t71524366PK10MethodInfo
qSm:__ZN25CharacterClass_t83912086014set_pos_cats_3EP20BitArray_t4087883509
X_a:__ZN19RuntimeSceneManager24BeginIntegrateMainThreadEP10UnityScene
Iwf:__ZNK25ParameterInfo_t186105659815get_marshalAs_6Ev
Axd:__ZN2UI17SystemProfilerApi9EndSampleENS0_10SampleTypeE
xco:__ZNK30dense_hashtable_const_iteratorINSt3__24pairIK10KeyWrapperINS1_IPK12PropertyInfoP11Il2CppClassEEEjEES9_17ReflectionMapHashIS8_EN14dense_hash_mapIS9_jSD_NS9_14EqualsComparerINS0_8equal_toIS8_EEEENS0_9allocatorISB_EEE9SelectKeyESI_SK_EptEv
$ui:_TlsServerCertificate_ProcessAsSsl3_m1306583193
HGo:__ZNSt3__2plIcNS_11char_traitsIcEENS_9allocatorIcEEEENS_12basic_stringIT_T0_T1_EERKS9_S6_
pQj:_StringReader_CheckObjectDisposedException_m3796163530
sBl:_UInt32_System_IConvertible_ToInt16_m1659441601
ASg:__ZN30GenericInterfaceActionInvoker2IP12Il2CppObjectS1_E6InvokeEPK10MethodInfoS1_S1_S1_
O6b:__ZN9ShaderLab20SerializedSubProgramaSERKS0_
_$o:_roundf
n7h:_Byte_System_IConvertible_ToSingle_m324484566_AdjustorThunk
Y5n:__ZNK14dense_hash_mapI10KeyWrapperINSt3__24pairIPK14Il2CppAssemblyP11Il2CppClassEEEj17ReflectionMapHashIS8_ENS9_14EqualsComparerINS1_8equal_toIS8_EEEENS1_9allocatorINS2_IKS9_jEEEEE9SelectKeyclERKSI_
tga:__ZN9Scripting11UnityEngine12Experimental3U2D15SpriteBoneProxy9InitProxyEv
wEi:_Decimal_op_Explicit_m2848387298
NMk:__ZN25SortKeyBuffer_t294527527014set_options_21Ei
kxk:_KeyValuePair_2_ToString_m1238786018_gshared
Drj:__ZN26AssemblyBuilder_t35988525013set_access_24Ej
gJg:__ZN22ScrollRect_t413785581418set_m_Horizontal_5Eb
KNn:__ZN6il2cpp2vmL24SetupTypeHierarchyLockedEP11Il2CppClassRKNS_2os12FastAutoLockE
aNf:__ZNK31OpCodes_t126150456_StaticFields11get_Box_137Ev
m1j:_String_Clone_m3573869765
xUj:__ZN25SHA512Managed_t178733633911set_wOff_17Ei
C3b:__ZL11TextHandleriPK23EmscriptenKeyboardEventPv
FTb:__Z20CalculateLightMatrixRK15SharedLightDataP10Matrix4x4f
FKb:__ZNSt3__26vectorIP17FileSystemHandlerNS_9allocatorIS2_EEE21__push_back_slow_pathIRKS2_EEvOT_
ncd:_destroy_face
vQk:_ASN1_get_Length_m1923878580
YNm:__ZNK17Regex_t365730985314get_roptions_8Ev
FPf:_SerializableTypeMetadata_WriteTypeData_m1099030367
D6o:_glBlendEquationSeparate__wrapper
CDd:__ZNSt3__26vectorIPN11UnityEngine15CloudWebService14CloudEventInfoE13stl_allocatorIS4_L18MemLabelIdentifier88ELi16EEE21__push_back_slow_pathIS4_EEvOT_
lCj:__ZN36CultureInfo_t4157843068_StaticFields23set_shared_by_number_36EP21Hashtable_t1853889766
nRo:__ZN6il2cpp6icalls8mscorlib6System8Security12Cryptography24RNGCryptoServiceProvider13RngInitializeEP11Il2CppArray
sPf:_CodeGenerator__cctor_m3167429173
$Fe:__ZL68UsedByNativeCodeAttribute_t1703770351_CustomAttributesCacheGeneratorP21CustomAttributesCache
UNm:_Regex_get_RightToLeft_m2317867572
mB:__ZN20SoundChannelInstance7setMuteEb
OXk:__Z81RuntimeInvoker_Void_t1185182177_RuntimeObject_Int32_t2950945753_Int32_t2950945753PFvvEPK10MethodInfoPvPS4_
ISh:__ZNK33ServerObjectReplySink_t296604298615get__identity_1Ev
tMi:_DateTimeUtils_ToString_m1782212840
rim:_List_1__cctor_m972674764_gshared
Wmj:_NumberFormatter_NumberToString_m3906556024
sOo:_set_bits
TRe:__ZL85Logger_t274032455_CustomAttributesCacheGenerator_Logger_set_filterLogType_m3622751173P21CustomAttributesCache
zAn:__ZL25UnresolvedVirtualCall_275P12Il2CppObject20UICharInfo_t75501106PK10MethodInfo
c5c:__ZN7b2World18SetContactListenerEP17b2ContactListener
nFb:__ZN18GfxFramebufferGLES22MakeCurrentFramebufferENS_7BuiltinE
LKo:__ZN6il2cpp2vm12MarshalAlloc4FreeEPv
fso:__ZN6il2cpp5utils13dynamic_arrayIP12Il2CppObjectLj4EE8allocateEj
fBo:__ZNK24dense_hashtable_iteratorINSt3__24pairIK10KeyWrapperIP12Il2CppObjectEN6il2cpp2gc9CachedCCWEEES5_NS7_5utils11PointerHashIS3_EEN14dense_hash_mapIS5_S9_SD_NS5_14EqualsComparerINS0_8equal_toIS4_EEEENS0_9allocatorISA_EEE9SelectKeyESI_SK_EeqERKSN_
IOg:__ZN22Selectable_t325002844143set_U3CisPointerInsideU3Ek__BackingField_14Eb
Gya:__ZN12CachedReader4ReadEPvj
VHg:__Z25Il2CppCodeGenWriteBarrierI49GetRayIntersectionAllNonAllocCallback_t2311174851EvPPT_S2_
IUh:__ZN46RemotingConfiguration_t4113740665_StaticFields28set_wellKnownClientEntries_6EP21Hashtable_t1853889766
nyf:_TypeFilter_EndInvoke_m998903841
VYd:_StandaloneInputModule_ProcessMouseEvent_m2923582521
Lmc:__Z18RegisterUnityClassI11GameManagerEvPKc
Wlf:__ZN31OpCodes_t126150456_StaticFields14set_Ldind_I_76E17OpCode_t123070264
QZe:__ZL49Canvas_t3310196443_CustomAttributesCacheGeneratorP21CustomAttributesCache
fvf:_MonoMethod_ShouldPrintFullName_m1607666412
cCg:__Z27List_1_RemoveAll_m156087608P18List_1_t3395709193P23Predicate_1_t2748928575PK10MethodInfo
pBi:__ZNK35SortedList_t2427694641_StaticFields18get_INITIAL_SIZE_0Ev
SSb:__Z24CalculateLightShadowFadeRK6CamerafffR8Vector4f
Lff:__ZN25MethodBuilder_t280731675311set_rtype_1EP6Type_t
wX:__ZN19RuntimeSceneManagerD2Ev
Bdg:_PlayerConnectionInternal__ctor_m2406218802
Cgn:__Z25Il2CppCodeGenWriteBarrierI17Object_t631007953EvPPT_S2_
l$m:__ZNK20GUIStyle_t395690151115get_m_Margin_11Ev
Jxj:_CCGregorianCalendar_GetMonth_m1547203696
tpl:_StringBuilder_get_Chars_m1819843468
urb:__Z18Transfer_BlittableI18StreamedBinaryReadLb0E10Matrix4x4fEvRK29SerializationCommandArgumentsR31RuntimeSerializationCommandInfo
Aok:_DefaultComparer__ctor_m1019370711_gshared
SWm:__ZN27Uri_t100236324_StaticFields20set_UriSchemeNews_24EP8String_t
SJm:__ZN19X509Crl_t114876738816set_nextUpdate_3E20DateTime_t3738529785
YBo:__ZN6il2cpp2osL23ConvertAccessModeToUnixEi
Gum:_Collection_1_IndexOf_m934463944_gshared
c3c:__ZN13BoxCollider2DD0Ev
eEi:__ZN19Decimal_t29482593808set_lo_7Ej
cLi:__ZNK33CurrentSystemTimeZone_t399835225522get_utcOffsetWithDLS_8Ev
dfe:__ZN28GraphicRaycaster_t299969710914set_m_Canvas_8EP18Canvas_t3310196443
fyf:_TypeDelegator_IsPrimitiveImpl_m2362421338
ygg:_CreateOutputMethod_BeginInvoke_m3202548900
Qpe:__ZL51Directory_t828876208_CustomAttributesCacheGeneratorP21CustomAttributesCache
S4h:_SimpleEnumerator_Reset_m2182001888
Jia:__ZN9Scripting11UnityEngine16ApplicationProxy9InitProxyEv
Sjl:__Z86RuntimeInvoker_Int32_t2950945753_Vector2_t2156229523_Vector2_t2156229523_RuntimeObjectPFvvEPK10MethodInfoPvPS4_
yek:_Array_LastIndexOf_TisRuntimeObject_m1677937501_gshared
BGj:__ZN6Guid_t8set__j_9Eh
RH:__ZN11AudioSource18IsPlayingScriptingEv
sSk:_KeyBuilder_IV_m2230195376
lSc:__ZNK12b2WheelJoint10GetAnchorAEv
s9o:_glShaderSource__wrapper
J7a:__ZN25MultiBlocksMemoryFileData17AdjustBlocksCountEj
kqo:__ZNSt3__214__split_bufferIN6il2cpp2vm22EmbeddedResourceRecordERNS_9allocatorIS3_EEED2Ev
jFo:__ZN6il2cpp5utils13dynamic_arrayIPNS_2os6ThreadELj4EE10reallocateEPS4_j
C0c:__ZN10ClipperLib14PointInPolygonERKNS_8IntPointEPNS_5OutPtE
mHj:__ZNK6Guid_t8get__d_3Ev
tad:__ZN13TextRendering4Font8TransferI24GenerateTypeTreeTransferEEvRT_
mcb:__ZN9GfxDevice15EndProfileEventEPN9profiling6MarkerE
djh:_Comparer_1__ctor_m319670016_gshared
al:_glStencilMask
pGo:__ZN6il2cpp2os10ThreadImpl16GetCurrentThreadEv
SWi:_TypeConverterAttribute_GetHashCode_m948291090
GOg:__ZN22Selectable_t325002844132get_address_of_m_Interactable_10Ev
t3b:__ZN15GUIEventManager10QueueEventERK10InputEvent
pga:__ZN9Scripting11UnityEngine15GameObjectProxy9InitProxyEv
yZm:__ZNK26GUILayoutGroup_t215778969515get_isWindow_15Ev
awm:_Collection_1_Clear_m1300437781_gshared
yQn:_AnalyticsEvent_OnValidationFailed_m2609604624
sXe:__ZL62EventType_t3528516131_CustomAttributesCacheGenerator_mouseMoveP21CustomAttributesCache
zBf:_DecimalConstantAttribute__ctor_m3583301917
Aea:__ZN9Scripting11UnityEngine9Rendering18CommandBufferProxy12CleanupProxyEv
ZX:__ZNSt3__227__insertion_sort_incompleteIRPFbRKN18AwakeFromLoadQueue4ItemES4_EPS2_EEbT0_S9_T_
F8m:__ZN25MeteorSpawner_t225680215714set_waitTime_5Ef
p2m:__ZN22TextEditor_t275985536624set_m_DblClickInitPos_12Ei
nPh:_MethodCallDictionary__ctor_m2167303393
HAe:__ZL80Convert_t2465617642_CustomAttributesCacheGenerator_Convert_ToDecimal_m2858622624P21CustomAttributesCache
Aag:__ZNK37MathfInternal_t624072491_StaticFields22get_FloatMinDenormal_1Ev
$Ta:__Z31DrawSpriteDeformedFromNodeQueueRK15RenderNodeQueuej16VertexInputMasksi
Rac:__Z44Register_UnityEngine_RenderTexture_set_depthv
Dqh:__Z59Enumerator_System_Collections_IEnumerator_Reset_m4278714428P21Enumerator_t185561725PK10MethodInfo
GGm:__ZNK26X509Certificate_t48924302521get_m_keyalgoparams_7Ev
S1f:_Component_GetComponentInParent_m779177818
cZn:__ZN15dense_hashtableINSt3__24pairIK10KeyWrapperIPK11Il2CppClassEPKcEES6_N6il2cpp5utils11PointerHashIS3_EEN14dense_hash_mapIS6_S9_SE_NS6_14EqualsComparerINS0_8equal_toIS5_EEEENS0_9allocatorISA_EEE9SelectKeyESJ_SL_E13clear_deletedER30dense_hashtable_const_iteratorISA_S6_SE_SN_SJ_SL_E
vEh:__ZN21InterfaceFuncInvoker1IP8String_tS1_E6InvokeEjP11Il2CppClassP12Il2CppObjectS1_
ptd:_unitytls_x509_export_der
Hqb:__Z18Transfer_BlittableI18StreamedBinaryReadLb1EiEvRK29SerializationCommandArgumentsR31RuntimeSerializationCommandInfo
Qhj:_InvalidOperationException__ctor_m1685032583
nqo:__ZNKSt3__26vectorIcNS_9allocatorIcEEE8max_sizeEv
uBo:__ZN6il2cpp2vm12GenericClass17GetTypeDefinitionEP18Il2CppGenericClass
zJg:__ZN22ScrollRect_t413785581415set_m_Content_4EP25RectTransform_t3704657025
ijk:_Dictionary_2_System_Collections_ICollection_get_SyncRoot_m2069913662_gshared
j_d:_UIBehaviour_IsDestroyed_m3033055982
oxi:__Z25Il2CppCodeGenWriteBarrierI28HandshakeMessage_t3696583168EvPPT_S2_
E7k:__Z109RuntimeInvoker_Void_t1185182177_RuntimeObject_RuntimeObject_SByte_t1669577662_Int32_t2950945753_RuntimeObjectPFvvEPK10MethodInfoPvPS4_
Amm:__ZN18List_1_t137237425612set__items_1EP28UILineInfoU5BU5D_t1655937503
Rqg:_Enumerator_Reset_m39541243
Ezc:__Z33Register_UnityEngine_Random_Rangev
rvg:_InputField_get_readOnly_m3111985574
sza:__ZN14RenderSettings27UpdateIndirectSpecularColorEv
LKe:__ZL59RectOffset_t1369453676_CustomAttributesCacheGenerator_m_PtrP21CustomAttributesCache
eu:__ZN9Scripting11UnityEngine10Animations27AnimationMixerPlayableProxy9InitProxyEv
V2n:__ZN6il2cpp6icalls8mscorlib6System8MonoType16GetMethodsByNameEP20Il2CppReflectionTypeP12Il2CppStringibS5_
Cve:__ZL73ObjRef_t2141158884_CustomAttributesCacheGenerator_U3CU3Ef__switchU24map26P21CustomAttributesCache
fjn:__Z26List_1_get_Item_m783205072P17List_1_t496136383iPK10MethodInfo
h1e:__ZL102PointerEventData_t3807901092_CustomAttributesCacheGenerator_PointerEventData_set_pointerId_m1888344330P21CustomAttributesCache
bAn:__ZL25UnresolvedVirtualCall_251P12Il2CppObjectPK10MethodInfo
HWe:__ZL88AudioClip_t3680889665_CustomAttributesCacheGenerator_AudioClip_get_ambisonic_m3815052287P21CustomAttributesCache
oBg:_U3CDelayedSetDirtyU3Ec__Iterator0__ctor_m3936335621
NWo:_strncmp
xRa:__ZN4PPtrI10GameObjectE8TransferI14SafeBinaryReadEEvRT_
oIm:__ZNK26X509Certificate_t48924302515get_m_subject_9Ev
Wrn:_AudioClipPlayable_Equals_m3705880618_AdjustorThunk
tRe:__ZL106PlayableAsset_t3219022681_CustomAttributesCacheGenerator_PlayableAsset_Internal_CreatePlayable_m2550417712P21CustomAttributesCache
gBe:__ZL78Convert_t2465617642_CustomAttributesCacheGenerator_Convert_ToSByte_m2486156346P21CustomAttributesCache
ONm:__Z25Il2CppCodeGenWriteBarrierI17Match_t3408321083EvPPT_S2_
pIl:_RijndaelTransform__cctor_m2439033240
vzb:__ZNSt3__27__sort3IRNS_4lessIN22BuiltinResourceManager8ResourceEEEPS3_EEjT0_S7_S7_T_
Evb:__Z23TransferScriptingObjectI19StreamedBinaryWriteEvRT_18ScriptingObjectPtr17ScriptingClassPtrPK15MonoScriptCache
Ome:__ZL175U3CGetEnumeratorU3Ec__Iterator0_t1202911786_CustomAttributesCacheGenerator_U3CGetEnumeratorU3Ec__Iterator0_System_Collections_Generic_IEnumeratorU3CTU3E_get_Current_m322251035P21CustomAttributesCache
Ivn:__ZL24UnresolvedVirtualCall_14P12Il2CppObject25RSAParameters_t1728406613PK10MethodInfo
Ymd:_ps_hints_t2mask
bPl:_LayoutGroup_SetProperty_TisVector2_t2156229523_m2721164497_gshared
A9j:_Array_InternalArray__ICollection_Remove_TisMonoResource_t4103430009_m238733686_gshared
Ahj:_IntPtr_ToString_m1831665121
SZk:__Z74RuntimeInvoker_Int32_t2950945753_RuntimeObject_RuntimeObject_RuntimeObjectPFvvEPK10MethodInfoPvPS4_
zQg:_Slider_Set_m1476104429
wyf:__ZN28GenericInterfaceFuncInvoker1IP10Assembly_tP28ResolveEventArgs_t1779456501E6InvokeEPK10MethodInfoP12Il2CppObjectS3_
She:_Image_set_fillClockwise_m2210525152
Mmc:__Z18RegisterUnityClassI12ScriptMapperEvPKc
Reb:__ZNSt3__26vectorIN20GpuProgramParameters14ConstantBufferENS_9allocatorIS2_EEE21__push_back_slow_pathIRKS2_EEvOT_
rLl:_Array_Resize_TisUILineInfo_t4195266810_m2197625248_gshared
u6f:_PlayerLoopSystem_t105772105_marshal_pinvoke
Teg:_PlayerConnection_DisconnectedCallback_m1697017309
JWa:__Z19GetTimeSinceStartupv
J$f:__ZNK18Bounds_t226683791014get_m_Center_0Ev
Mie:_Image_AddQuad_m2161647989
_Xj:__ZNK40SecurityElement_t1046076091_StaticFields30get_invalid_attr_value_chars_7Ev
oOd:_BaseInputModule_DeactivateModule_m856719157
dGo:__ZN6il2cpp2os10ThreadImpl11SetPriorityENS0_14ThreadPriorityE
JFk:_Enumerator_System_Collections_IEnumerator_Reset_m2953002685_gshared
HZk:__Z50RuntimeInvoker_Int64_t3736567304_Int32_t2950945753PFvvEPK10MethodInfoPvPS4_
hge:__ZNK27GridLayoutGroup_t304622046116get_m_Spacing_15Ev
XNd:__Z25List_1_Remove_m4063777476P18List_1_t2585711361P22GameObject_t1113636619PK10MethodInfo
smd:_TT_Load_Composite_Glyph
aql:_UTF32Encoding_GetDecoder_m3364062151
lSa:__ZN10DynamicVBOD2Ev
qcb:__ZN9GfxDevice16DeleteTimerQueryEP13GfxTimerQuery
rqm:_List_1_Insert_m1695211546_gshared
eph:__Z37Enumerator_get_CurrentKey_m3735262888P22Enumerator_t2086727927PK10MethodInfo
Xdl:__Z49RuntimeInvoker_Void_t1185182177_Color_t2555686324PFvvEPK10MethodInfoPvPS4_
lba:__ZL51__ManagedRegistrationHelperFunction_UnityEventProxyPv
eDa:__ZN9ShaderLab11shaderprops9GetTexEnvEPK19ShaderPropertySheetS3_NS_16FastPropertyNameE16TextureDimensionb
ikm:_List_1_Sort_m3232912161_gshared
g0m:_GUILayoutGroup_CalcHeight_m1669391299
fRb:__ZN29RenderNodeQueuePrepareContextC2Ev
Vjo:_il2cpp_gc_disable
e9m:__ZN41U3CSpawnMeteorU3Ec__Iterator0_t316445981718set_U24disposing_5Eb
X7b:__ZN9ShaderLab20SerializedSubProgram16TextureParameter8TransferI24GenerateTypeTreeTransferEEvRT_
v2o:dynCall_viiiiiiiiiiiii
BOf:__ZN18VirtActionInvoker1I19Decimal_t2948259380E6InvokeEjP12Il2CppObjectS0_
QWf:_DSASignatureDeformatter_SetKey_m2999549245
rrd:__ZN15TilemapRenderer23VirtualRedirectTransferER17RemapPPtrTransfer
SRo:__ZN6il2cpp2os11MutexHandle4WaitEb
kab:__ZN9GfxDevice19SaveStereoConstantsEv
RRo:__ZN6il2cpp2os11MutexHandle4WaitEj
Psc:__ZL34GetComponentsImplementationRecurseILb1ELi1ELi1EEbR10GameObjectbRK17CompareParametersRK39GetComponentsImplementation_ReturnValue
O9e:__ZL149U3CJumpingU3Ec__Iterator1_t2326764318_CustomAttributesCacheGenerator_U3CJumpingU3Ec__Iterator1_System_Collections_IEnumerator_get_Current_m3465965374P21CustomAttributesCache
jsj:_AssemblyBuilder_GetTypes_m3415680380
y8:__ZN6prcoreL17RemapGenericFloatI15TexFormatRGHalf18TexFormatARGBFloatEEvPKNS_9InnerInfoE
Lrk:__ZNK43EqualityComparer_1_t3632197202_StaticFields14get__default_0Ev
Ecn:_AnalyticsEventParam_get_groupID_m569309506
tRi:_StackFrame_GetMethod_m1395840764
Rro:__ZN6il2cpp6icalls8mscorlib6SystemL10AssignRealIfEEvNS2_17WidenedValueUnionEPv14Il2CppTypeEnumjj
EBa:__ZNK13RenderTexture13GetDataHeightEv
exb:__Z18SimulateMouseInputi
LMb:__ZN13RenderManager23AddRemoveCamerasDelayedEv
ofl:__Z119RuntimeInvoker_Void_t1185182177_RuntimeObject_Single_t1397266774_Single_t1397266774_SByte_t1669577662_Int32_t2950945753PFvvEPK10MethodInfoPvPS4_
hda:__ZL51__ManagedRegistrationHelperFunction_Vector2IntProxyPv
gx:__ZN23PreloadManagerOperation11GetPriorityEv
tAg:_LayoutElement_OnEnable_m1760066426
iFd:__ZN11UnityEngine9Analytics15AnalyticsConfigC2Ev
Nnj:_OverflowException__ctor_m4029085969
I5h:_BitConverter__cctor_m3841343255
Idh:__ZNK32InternalEnumerator_1_t196306608311get_array_0Ev
BMm:_IntervalCollection_GetMetaCollection_m4029522214
Jt:__ZN9Scripting11UnityEngine13AnimatorProxy12CleanupProxyEv
DQd:_EventTrigger_OnDeselect_m1919608102
$Bn:_TextGenerator_get_characterCount_m864136654
jbh:__ZNK32InternalEnumerator_1_t35075654099get_idx_1Ev
h5i:__ZN33X509Chain_t194917408_StaticFields29set_U3CU3Ef__switchU24mapB_12EP24Dictionary_2_t2736202052
GYj:__ZN30EvidenceEnumerator_t170816666714set_hostEnum_1EP12Il2CppObject
OZb:__ZN13RenderTexture8SetWidthEi
Kcc:__ZNK28RectTransformPropertyBinding12SetPPtrValueERKN11UnityEngine9Animation10BoundCurveEi
Izb:__ZN18FrameTimingManager18GetVSyncsPerSecondEv
B6j:__ZN44EncoderReplacementFallbackBuffer_t186318716217set_replacement_0EP8String_t
FSa:__ZN10MeshFilterD0Ev
umd:_UNITY_FT_GlyphLoader_CheckSubGlyphs
PYg:_InternalEnumerator_1__ctor_m1341209356_AdjustorThunk
Uci:__ZN35CaseInsensitiveComparer_t367003580013set_culture_2EP23CultureInfo_t4157843068
eIn:_RemoteSettings_RemoteSettingsUpdateCompleted_m2956290507
mAm:__ZN31InternalAsyncResult_t350428282013set__buffer_9EP22ByteU5BU5D_t4116647657
Oul:__ZN18Thread_t230083606916set_ec_to_set_37EP28ExecutionContext_t1748372627
nxm:_Collection_1_System_Collections_ICollection_CopyTo_m1516601228_gshared
O1:__ZN23DefaultMeshVertexFormatC2E18VertexChannelsInfo
HHg:__Z34Enumerator_get_Current_m1834618397P22Enumerator_t1509756096PK10MethodInfo
uym:_Collection_1_CopyTo_m4278237485_gshared
HSh:_ServerObjectReplySink_SyncProcessMessage_m512968558
KJn:_Physics2D_Raycast_m2082490717
sbj:_Int16_System_IConvertible_ToDouble_m1661805412
ZSl:_Collection_1_Add_m3860636938_gshared
Hii:__ZNK23ARC4Managed_t26418584528get_y_15Ev
D4c:__ZZN13BoxCollider2D15InitializeClassEvEN41FunctorImpl_40kSpriteTilingPropertyChange4CallEPviR11MessageData
mBh:__ZN18ObjRef_t214115888417set__serverType_5EP6Type_t
Tem:_List_1_Insert_m4050947056_gshared
ZU:__ZN9ShaderLab16FastPropertyName4InitEPKc
r5g:_InternalEnumerator_1__ctor_m39232262_AdjustorThunk
tTi:__ZNK37MonoEnumInfo_t3694469084_StaticFields20get_short_comparer_8Ev
jJk:__ZNK24TailoringInfo_t86643365420get_TailoringCount_2Ev
Aze:__ZL61Thread_t2300836069_CustomAttributesCacheGenerator_local_slotsP21CustomAttributesCache
ECa:__ZN6ObjectC2E10MemLabelId18ObjectCreationMode
QWl:_Collection_1_System_Collections_IEnumerable_GetEnumerator_m3596816767_gshared
a_m:__Z25Il2CppCodeGenWriteBarrierI26GUILayoutGroup_t2157789695EvPPT_S2_
V6g:_InternalEnumerator_1_get_Current_m3911557813_AdjustorThunk
hMc:__ZN8JSONRead21TransferSTLStyleArrayI31ArrayOfManagedObjectsTransfererEEvRT_17TransferMetaFlags
e8h:_Char_System_IConvertible_ToByte_m2347554595_AdjustorThunk
h5f:__ZN26PersistentCall_t340771412417set_m_CallState_4Ei
hOe:__ZL59TooltipAttribute_t3957072629_CustomAttributesCacheGeneratorP21CustomAttributesCache
fVe:__ZL99TextGenerator_t3211863866_CustomAttributesCacheGenerator_TextGenerator_Internal_Destroy_m1142896160P21CustomAttributesCache
cBa:__ZN13RenderTexture9SetMipMapEb
KRn:__ZN15dense_hashtableINSt3__24pairIK10KeyWrapperIPK11Il2CppClassEPKcEES6_N6il2cpp5utils11PointerHashIS3_EEN14dense_hash_mapIS6_S9_SE_NS6_14EqualsComparerINS0_8equal_toIS5_EEEENS0_9allocatorISA_EEE9SelectKeyESJ_SL_E13set_empty_keyERKSA_
D$h:__ZN26SecurityParser_t412448007711set_root_13EP27SecurityElement_t1046076091
K7i:__ZN27X509ChainPolicy_t242692287013set_timeout_5E19TimeSpan_t881159249
$4:__Z18GetDirectorManagerv
Twm:_Collection_1_GetEnumerator_m1824095167_gshared
pWj:__ZN29TripleDESTransform_t9641690609set_E3_14EP24DESTransform_t4088905499
LEm:__ZN50ExtendedKeyUsageExtension_t3929363080_StaticFields29set_U3CU3Ef__switchU24map14_4EP24Dictionary_2_t2736202052
pJa:__Z18UploadAsyncTextureR7Texturej
Ofj:_Int32_Equals_m2976157357_AdjustorThunk
cma:__ZN11NamedObject8TransferI19StreamedBinaryWriteEEvRT_
NSe:__ZL99SceneManager_t2787271929_CustomAttributesCacheGenerator_SceneManager_LoadScene_m2298600132____mode1P21CustomAttributesCache
ubl:__Z73RuntimeInvoker_Single_t1397266774_Vector2_t2156229523_Vector2_t2156229523PFvvEPK10MethodInfoPvPS4_
BXg:__ZN32InternalEnumerator_1_t411633109011set_array_0EP11Il2CppArray
YSh:_SoapAttribute_get_XmlNamespace_m859394681
KNg:__Z27List_1_get_Count_m124153205P17List_1_t427135887PK10MethodInfo
btd:__ZN7Tilemap7SetTileERKN4math12int3_storageERK8TileData
d3j:__ZN33Encoding_t1523322056_StaticFields33set_utf8EncodingWithoutMarkers_21EP20Encoding_t1523322056
FKm:_X509ExtensionCollection_System_Collections_IEnumerable_GetEnumerator_m1475785462
IDb:__ZN7ApiGLES19UploadBufferSubDataEjN2gl12BufferTargetEllPKv
NGn:_SkeletonBone_t4134054672_marshal_pinvoke_cleanup
r7:__ZNSt3__216__rotate_forwardINS_11__wrap_iterIPN4core12basic_stringIcNS2_20StringStorageDefaultIcEEEEEEEET_S9_S9_S9_
V8l:__Z30Predicate_1_Invoke_m2932303859P22Predicate_1_t72559363822UILineInfo_t4195266810PK10MethodInfo
kV:__ZdaPv
Owg:_Navigation_get_mode_m1766451275
Myg:__ZNK40U3CCaretBlinkU3Ec__Iterator0_t258988903813get_U24this_2Ev
_$h:_SmallXmlParserException__ctor_m1976648878
PRf:__ZN31RuntimeMethodHandle_t113392498422get_address_of_value_0Ev
nbe:__ZNK19FontData_t74662006915get_m_MaxSize_5Ev
$xg:__ZNK22InputField_t376291743131get_m_HasDoneFocusTransition_62Ev
Uwg:_Selectable_get_isPointerDown_m3518318267
ndg:__ZN40PlayerEditorConnectionEvents_t341178751324set_disconnectionEvent_2EP33ConnectionChangeEvent_t3251856151
EVj:_SymmetricAlgorithm_set_KeySize_m3805756466
Wvk:__Z30Enumerator_Dispose_m1204547613P22Enumerator_t3350232909PK10MethodInfo
j$e:__ZL70ValueProperty_t1868393739_CustomAttributesCacheGenerator_m_CustomValueP21CustomAttributesCache
zti:__ZNK19Context_t397123470725get_readSequenceNumber_17Ev
$ia:__ZN9Scripting5Unity11Collections8LowLevel6Unsafe47NativeDisableUnsafePtrRestrictionAttributeProxy9InitProxyEv
r7h:_Byte_System_IConvertible_ToUInt32_m1049546902_AdjustorThunk
odg:__Z25Il2CppCodeGenWriteBarrierI33ConnectionChangeEvent_t3251856151EvPPT_S2_
I8k:__Z53RuntimeInvoker_Double_t594665363_Interval_t1802865632PFvvEPK10MethodInfoPvPS4_
hLg:__ZN21Scrollbar_t149444723327get_address_of_m_Tracker_26Ev
zKh:_LeaseSink_RenewLease_m578578728
p1b:__Z21InitializeBatchedJobsv
CDn:_CanvasGroup_get_blocksRaycasts_m1805542303
FSj:_SHA1Internal_ProcessBlock_m1991889327
Jib:__Z19TransferField_ArrayI14SafeBinaryRead27Converter_SimpleNativeClassI8GUIStyleEEvRK23StaticTransferFieldInfoR31RuntimeSerializationCommandInfoRT0_
aAn:__ZL25UnresolvedVirtualCall_250P12Il2CppObjectPK10MethodInfo
ium:__ZN24Collection_1_t333661117914set_syncRoot_1EP12Il2CppObject
_sb:__ZN18StreamedBinaryRead21TransferSTLStyleArrayI13dynamic_arrayIN4math12int3_storageELj0EEEEvRT_17TransferMetaFlags
HLl:_Array_Sort_TisRuntimeObject_TisRuntimeObject_m1685639929_gshared
yRo:__ZN6il2cpp5utils10MemoryPoolC2Ev
pVh:_RemotingServices_SetMessageTargetIdentity_m4083751943
Nya:__ZN14RenderSettings5ResetEv
Xha:__ZN9Scripting11UnityEngine15ColorGamutProxy9InitProxyEv
BHc:__ZN5Unity9rapidjson12GenericValueINS0_4UTF8IcEE13JSONAllocatorE10FindMemberIS4_EENS0_21GenericMemberIteratorILb0ES3_S4_EERKNS1_IS3_T_EE
oim:__ZN18List_1_t305805257312set__items_1EP28OrderBlockU5BU5D_t2389202590
N6g:_InternalEnumerator_1_System_Collections_IEnumerator_get_Current_m3892960115_AdjustorThunk
iac:__ZN9ShaderLabL18AddPropertyToArrayERK19ShaderPropertySheetR13dynamic_arrayIiLj0EERKNS_8FloatValE
lpo:__ZNSt3__212basic_stringIDsNS_11char_traitsIDsEENS_9allocatorIDsEEE6appendEPKDsj
P2m:_SymmetricTransform_Finalize_m4129642865
Z8i:_CaptureCollection_CopyTo_m3566922817
Wtf:_MonoEventInfo_t346866618_marshal_pinvoke_cleanup
NXf:_HMAC_HashCore_m3684104066
A5l:__ZN28GenericInterfaceFuncInvoker2Ii20UIVertex_t4057497605S0_E6InvokeEPK10MethodInfoP12Il2CppObjectS0_S0_
uOc:__ZN5Unity9rapidjson13GenericReaderINS0_4UTF8IcEES3_13JSONAllocatorE11ParseNumberILj1ENS0_25GenericInsituStringStreamIS3_EENS0_15GenericDocumentIS3_S4_S4_EEEEvRT0_RT1_
fL:__ZN11UnityEngine15CloudWebService14DataDispatcherD0Ev
Efi:__ZNK22BigInteger_t290290509012get_length_0Ev
kTa:__ZN14SpriteRenderer14OnChangeSpriteEv
tJm:__ZN22X509Stores_t137393623714set__trusted_1EP21X509Store_t2777415283
uSl:_Collection_1_RemoveItem_m2911050674_gshared
$Rf:_RuntimeTypeHandle_GetHashCode_m3999856879
gSk:__ZN22DSAManaged_t280026018216set_j_missing_12Eb
EXk:__Z79RuntimeInvoker_UInt16_t2177724958_RuntimeObject_Int32_t2950945753_RuntimeObjectPFvvEPK10MethodInfoPvPS4_
YFo:__ZN6il2cpp2os10ThreadImplD2Ev
XNe:__ZL56ResetInputAxis_t866062302_CustomAttributesCacheGeneratorP21CustomAttributesCache
$Sc:__ZN12b2MouseJoint23InitVelocityConstraintsERK12b2SolverData
QHc:__ZN8Gradient8TransferI9JSONWriteEEvRT_
Fxc:__Z51Register_UnityEngine_Sprite_GetTextureRect_Injectedv
Hun:_AudioSource_set_clip_m31653938
kZe:__ZL81TextEditor_t2759855366_CustomAttributesCacheGenerator_TextEditor__ctor_m242049450P21CustomAttributesCache
iEi:_Convert_ToBoolean_m2833621053
yma:__ZNK12TLSAllocatorI14StackAllocatorE22GetAllocatedMemorySizeEv
myn:__ZL25UnresolvedVirtualCall_154P12Il2CppObject21Vector3Int_t741115188S0_S0_PK10MethodInfo
CD:__ZN11AudioSource23VirtualRedirectTransferER18StreamedBinaryRead
PEe:__ZL62WebHeaderCollection_t1942268960_CustomAttributesCacheGeneratorP21CustomAttributesCache
lka:__ZN17RemapPPtrTransfer12PushMetaFlagE17TransferMetaFlags
KMk:__ZN19Context_t174453113024set_QuickCheckPossible_7Eb
rrk:_EqualityComparer_1_System_Collections_IEqualityComparer_GetHashCode_m2138064395_gshared
RE:__ZNK7WeakPtrI20SoundChannelInstanceE10SharedData9GetRawPtrEv
D4a:__ZN12HandlerChain4NameEv
U4d:_FloatTween_t1274330004_marshal_pinvoke
vKl:_Array_InternalArray__set_Item_TisMonoWin32Resource_t1904229483_m4042549565_gshared
x0i:__ZN20WebProxy_t201676054227set_useDefaultCredentials_4Eb
Fbj:_Int16_System_IConvertible_ToType_m3672347013_AdjustorThunk
pkb:__Z29Transfer_Blittable_ArrayFieldI14SafeBinaryReadN4math12int3_storageEEvRT_R9ArrayInfoRK23StaticTransferFieldInfo
K_j:_SecurityException_ToString_m3228070608
Wej:_Int16_ToString_m2013897809
Yyl:_Type_GetType_m1766533001
ojl:__Z60RuntimeInvoker_Int32_t2950945753_ResourceCacheItem_t51292791PFvvEPK10MethodInfoPvPS4_
sYg:__ZN31InternalEnumerator_1_t4544632379set_idx_1Ei
Nym:__ZN28SslHandshakeHash_t21075817729set_md5_4EP25HashAlgorithm_t1432317219
N_j:_String_Substring_m2848979100
PGo:__ZN6il2cpp5utils10StringViewIDsEC2ILj2EEERAT__KDs
Cyd:__Z44Register_UnityEngine_CanvasRenderer_get_cullv
eMn:__ZN15dense_hashtableINSt3__24pairIK10KeyWrapperIPK22Il2CppGenericParameterEP11Il2CppClassEES6_N6il2cpp5utils11PointerHashIS4_EEN14dense_hash_mapIS6_S9_SE_NS6_14EqualsComparerINS0_8equal_toIS5_EEEENS0_9allocatorISA_EEE9SelectKeyESJ_SL_ED2Ev
xQl:_ScriptableObject_CreateInstance_TisRuntimeObject_m1552711675_gshared
D_j:_SecurityException_get_PermissionType_m2237538728
S2b:__Z29StdTemplateConversionFunctionIbbEbPvR14SafeBinaryRead
Atm:__Z28Enumerator__ctor_m3419056812P22Enumerator_t1142515742P19Stack_1_t3923495619PK10MethodInfo
gIo:__ZNK15dense_hashtableINSt3__24pairIK10KeyWrapperIPK19Il2CppGenericMethodEP10MethodInfoEES6_N6il2cpp8metadata23Il2CppGenericMethodHashEN14dense_hash_mapIS6_S9_SD_NS6_14EqualsComparerINSC_26Il2CppGenericMethodCompareEEENS0_9allocatorISA_EEE9SelectKeyESH_SJ_E12test_deletedEj
Mgb:__Z44InitializeTransferFunctionScriptingTraitsForI17RemapPPtrTransferEvR31TransferFunctionScriptingTraits
zAj:__ZN27NumberFormatInfo_t43587713829set_percentNegativePattern_25Ei
hJg:__ZN22ScrollRect_t413785581416set_m_Vertical_6Eb
G_j:__ZNK28SecurityException_t97554447315get__granted_13Ev
aan:__ZNK18Player_t326664731215get_fastFall_21Ev
zcc:__ZNSt3__26vectorI16MessageForwarder13stl_allocatorIS1_L18MemLabelIdentifier7ELi8EEE6resizeEj
L6i:_X509Chain_SelectBestFromCollection_m1068759221
vFg:__ZN22RectMask2D_t347488943718set_m_ForceClip_10Eb
b3m:_SymmetricTransform_TransformBlock_m851059707
Udo:__ZN6il2cpp2vm10Reflection27GetCustomAttributesCacheForEP11Il2CppClass
_ke:__ZL68IntPtr_t_CustomAttributesCacheGenerator_IntPtr_ToPointer_m4157623054P21CustomAttributesCache
VMh:__ZNK34MethodCall_t861078140_StaticFields30get_U3CU3Ef__switchU24map1F_11Ev
Qwh:_Enumerator_Dispose_m4166166038_gshared
bXa:__Z11StringToKeyRKN4core12basic_stringIcNS_20StringStorageDefaultIcEEEE
FSm:_Regex_System_Runtime_Serialization_ISerializable_GetObjectData_m4061390789
wsm:_Enumerator_System_Collections_IEnumerator_Reset_m2261065994_AdjustorThunk
aLg:_ScrollRect_get_verticalNormalizedPosition_m3693218937
B8m:_Meteor_Update_m834952910
W_a:__ZN18LoadSceneOperation21MustCompleteNextFrameEv
BQg:_Slider_UpdateDrag_m1102107039
ltf:_MonoMethodInfo_get_method_info_m88651774
yH:__ZNK12AudioManager16GetAudioListenerEv
p1f:_Color_Equals_m4060997379_AdjustorThunk
mjk:_Dictionary_2_System_Collections_Generic_ICollectionU3CSystem_Collections_Generic_KeyValuePairU3CTKeyU2CTValueU3EU3E_CopyTo_m331407443_gshared
sGo:__ZN6il2cpp2osL23CleanupThreadIfCanceledEPv
rao:__ZNK14dense_hash_mapI10KeyWrapperINSt3__24pairIPK11Il2CppImageP11Il2CppClassEEEj17ReflectionMapHashIS8_ENS9_14EqualsComparerINS1_8equal_toIS8_EEEENS1_9allocatorINS2_IKS9_jEEEEE4sizeEv
VRf:_RuntimeTypeHandle__ctor_m3315980708_AdjustorThunk
s9i:__ZNK15Key_t272552300113get_options_1Ev
Vxe:__ZL69IIdentityPermissionFactory_t3268650966_CustomAttributesCacheGeneratorP21CustomAttributesCache
iDn:_Canvas_set_overrideSorting_m4088794420
rZb:__ZNSt3__26vectorI11CameraStackNS_9allocatorIS1_EEE8__appendEj
_nk:_DefaultComparer_Equals_m2585095694_gshared
bea:__ZN9Scripting11UnityEngine13Serialization34FormerlySerializedAsAttributeProxy9InitProxyEv
k3f:_Logger_set_filterLogType_m3622751173
sKf:__ZN25GenericVirtActionInvoker1I28StreamingContext_t3711869237E6InvokeEPK10MethodInfoP12Il2CppObjectS0_
Wdm:_UnityEvent_1_GetDelegate_m25714567_gshared
Yvl:_Scheduler_ShrinkIfNeeded_m820085397
IFd:__ZN11UnityEngine9Analytics15UserCustomEvent12CustomParams6InsertEPKcRNS1_11CustomValueE
bxm:_Collection_1_set_Item_m3534473787_gshared
Yzd:__ZL55__ManagedRegistrationHelperFunction_RemoteSettingsProxyPv
$_:__Z13GetFileSystemv
Pun:_AudioSourceExtension_ExtensionUpdate_m2790353999
x1:__ZN13RuntimeStaticI15GUIEventManagerLb0EE16StaticInitializeEPv
Mcg:_MonoBehaviour_IsObjectMonoBehaviour_m2134950949
jxg:_InputField_MoveDown_m4006004038
aRh:__ZNK29MonoMethodMessage_t280763694422get_methodSignature_10Ev
wEl:_Version_CompareTo_m3146217210
PTc:__ZN24RigidbodyMovementState2D21ResetAngularMoveStateEv
oTa:__ZThn32_N14SpriteRenderer15AddAsRenderNodeER15RenderNodeQueueRK20DeprecatedSourceData
ugk:_Array_InternalArray__ICollection_CopyTo_TisKeyValuePair_2_t71524366_m1056941380_gshared
ppn:_Vector3_Equals_m906392898_AdjustorThunk
uyl:_Type_get_IsClass_m589177581
VGe:__ZL62NativeTypeAttribute_t2250406315_CustomAttributesCacheGeneratorP21CustomAttributesCache
g8d:__ZNK20Dropdown_t227439122518get_m_ItemImage_22Ev
lpj:__Z25Il2CppCodeGenWriteBarrierI29StrongNameKeyPair_t3411219591EvPPT_S2_
Zfb:__ZN19ShaderPropertySheet9SetMatrixEN9ShaderLab16FastPropertyNameERK10Matrix4x4fNS_8SetFlagsE
Kcm:__Z32UnityAction_2_Invoke_m2304474703P25UnityAction_2_t3283971887P12Il2CppObjectS2_PK10MethodInfo
Jmi:__ZNK25EncryptedData_t357754873326get__encryptionAlgorithm_2Ev
BLa:__Z29GetTextureSizeAllowedMultiple13TextureFormat
r$n:__ZN6il2cpp2os6Atomic22CompareExchangePointerI21CustomAttributesCacheEEPT_PVS5_S5_S5_
cPi:_Decimal_Subtract_m835601464
WKb:__ZZ23InitPlayerLoopCallbacksvEN52InitializationAsyncUploadTimeSlicedUpdateRegistrator7ForwardEv
Pbc:__Z46CleanupSpriteRendererAnimationBindingInterfacev
S7k:__Z73RuntimeInvoker_Boolean_t97287965_RuntimeObject_IPv6AddressU26_t3285609463PFvvEPK10MethodInfoPvPS4_
R7f:__ZNK21SpriteBone_t30332009616get_m_Position_1Ev
h8i:_X509ExtensionCollection_get_IsSynchronized_m2607599544
ywl:_TimeSpan__ctor_m3689759052_AdjustorThunk
jVo:__ZNK6il2cpp8metadata19Il2CppSignatureHashclERKNS_5utils13dynamic_arrayIPK10Il2CppTypeLj4EEE
djo:_il2cpp_array_element_size
Iij:_MissingMemberException__ctor_m2571045846
qKd:__ZN9Scripting19UnityEngineInternal5Video21VideoPixelFormatProxy12CleanupProxyEv
Bkm:_List_1_System_Collections_IEnumerable_GetEnumerator_m1824431956_gshared
sna:__ZNSt3__26__treeINS_12__value_typeIN4core12basic_stringIcNS2_20StringStorageDefaultIcEEEEjEENS_19__map_value_compareIS6_S7_NS_4lessIS6_EELb1EEE13stl_allocatorIS7_L18MemLabelIdentifier7ELi16EEE25__emplace_unique_key_argsIS6_JNS_4pairIS6_jEEEEENSH_INS_15__tree_iteratorIS7_PNS_11__tree_nodeIS7_PvEEiEEbEERKT_DpOT0_
HZe:__ZL84TileBase_t3985733243_CustomAttributesCacheGenerator_TileBase_GetTileData_m1994442890P21CustomAttributesCache
gj:_glCheckFramebufferStatus
nQo:__ZN6il2cpp2os11EventHandle4WaitEv
gTg:_U3CGetEnumeratorU3Ec__Iterator0_System_Collections_Generic_IEnumeratorU3CTU3E_get_Current_m9057020_gshared
d5j:__ZN19Decoder_t220418272521set_fallback_buffer_1EP33DecoderFallbackBuffer_t2402303981
hX:__Z43scripting_class_get_method_from_name_filter17ScriptingClassPtrPKciN24ScriptingMethodFiltering18MethodSearchFilterEPK16ScriptingTypePtr
_Gn:_CustomEventData__ctor_m4146403782
g7n:__ZN24dense_hashtable_iteratorINSt3__24pairIK10KeyWrapperINS1_IPK9FieldInfoP11Il2CppClassEEEjEES9_17ReflectionMapHashIS8_EN14dense_hash_mapIS9_jSD_NS9_14EqualsComparerINS0_8equal_toIS8_EEEENS0_9allocatorISB_EEE9SelectKeyESI_SK_EC2EPK15dense_hashtableISB_S9_SD_SM_SI_SK_EPSB_SS_b
Vee:_GraphicRaycaster__ctor_m646559428
joi:_CipherSuite_get_CipherAlgorithmType_m137858741
XIm:__ZNK20X509Chain_t86378360013get__status_4Ev
gTc:__ZNK15b2DistanceJoint17GetReactionTorqueEf
Kci:_BitArrayEnumerator_get_Current_m4220391712
Koj:__Z37il2cpp_codegen_get_executing_assemblyPK10MethodInfo
b$o:__ZN10__cxxabiv112_GLOBAL__N_110construct_Ev
Jwc:__Z104Register_UnityEngine_Experimental_Rendering_GraphicsFormatUtility_GetGraphicsFormat_Native_TextureFormatv
ipl:__ZNK15StringBuilder_t18get__maxCapacity_4Ev
MY:__ZN4core8hash_setINS_4pairIKi17ThreadedAwakeDataLb0EEENS_9hash_pairINS_4hashIiEES2_S3_EENS_10equal_pairINSt3__28equal_toIiEES2_S3_EEE4growEi
abl:__Z48RuntimeInvoker_OperatingSystemFamily_t1868066375PFvvEPK10MethodInfoPvPS4_
l3a:__ZN9Transform23VirtualRedirectTransferER17RemapPPtrTransfer
l4m:__ZNK24AesTransform_t295712361118get_expandedKey_12Ev
S_i:_IPAddress_get_ScopeId_m4237202723
tQn:_TileData_set_gameObject_m4268609905_AdjustorThunk
Aig:_Quaternion_Equals_m2038868948_AdjustorThunk
D1g:_InternalEnumerator_1_MoveNext_m3520556285_AdjustorThunk
FRm:_ExpressionCollection_get_Item_m3510736379
e3e:__ZL62FontData_t746620069_CustomAttributesCacheGenerator_m_AlignmentP21CustomAttributesCache
jYd:_StandaloneInputModule_get_inputActionsPerSecond_m3946624274
lrl:_UTF8Encoding_InternalGetCharCount_m82458470
Mon:_Vector2__cctor_m2108982652
BRd:__ZNK38ExecuteEvents_t3484638744_StaticFields19get_s_DropHandler_9Ev
Veg:_U3CBlockUntilRecvMsgU3Ec__AnonStorey2_U3CU3Em__0_m2225790220
bTd:__ZN38ExecuteEvents_t3484638744_StaticFields22set_s_CancelHandler_16EP27EventFunction_1_t2658898854
tdh:_InternalEnumerator_1_MoveNext_m2734554195_AdjustorThunk
Ito:__ZN14dense_hash_mapI10KeyWrapperIP14Il2CppIUnknownEjN6il2cpp5utils11PointerHashIS1_EENS3_14EqualsComparerINSt3__28equal_toIS2_EEEENS9_9allocatorINS9_4pairIKS3_jEEEEE15set_deleted_keyERSF_
_rb:__ZL22Transfer_ManagedObjectI18StreamedBinaryReadLb0EEvRK29SerializationCommandArgumentsR31RuntimeSerializationCommandInfo
Okc:__ZN19SpriteMeshGenerator12path_segment12max_distanceENSt3__26vectorINS_6vertexENS1_9allocatorIS3_EEEEii
owi:__ZN27SslClientStream_t391462466126set_ClientCertSelection_17EP40CertificateSelectionCallback_t3743405224
jlo:__ZN6il2cpp2gc9AllocatorIP12Il2CppThreadE10deallocateEPvj
Zni:__ZN23CipherSuite_t341474457518set_keyBlockSize_9Ei
oeo:__ZN13Il2CppHashMapIPK14Il2CppAssemblyPK22Il2CppMonoAssemblyNameN6il2cpp5utils11PointerHashIS1_EENSt3__28equal_toIS2_EENSA_9allocatorINSA_4pairIK10KeyWrapperIS2_ES5_EEEEEC2EjRKS9_RKSC_
fKh:_RenewalDelegate_BeginInvoke_m1180839451
p2h:_DelegatePInvokeWrapper_AppDomainInitializer_t682969308
Q7o:b100
CSe:__ZL141SupportedRenderingFeatures_t353898663_CustomAttributesCacheGenerator_SupportedRenderingFeatures_IsMixedLightingModeSupportedByRef_m2282093837P21CustomAttributesCache
u7m:__ZNK46U3CStartingCutsceneU3Ec__Iterator1_t282802777211get_U24PC_7Ev
d_:__ZN8Remapper6RemoveEi
pdm:_UnityEvent_1__ctor_m3777630589_gshared
Exo:___cxx_global_var_init_45306
Bqn:_Vector3Int_ToString_m3033835977
f8a:__ZN10MemoryFile4ReadEyPvPy
b7j:_Encoding_GetBytes_m3148649984
otc:__ZN9Scripting27CreateArgumentNullExceptionEPKc
hdd:__ZL36CleanupTextRenderingScriptingClassesv
LZb:__ZN15ReflectionProbe17UseRendererResultEP13ProbeRenderer
TAo:__ZNK24dense_hashtable_iteratorINSt3__24pairIK10KeyWrapperIP12Il2CppObjectEN6il2cpp2gc9CachedCCWEEES5_NS7_5utils11PointerHashIS3_EEN14dense_hash_mapIS5_S9_SD_NS5_14EqualsComparerINS0_8equal_toIS4_EEEENS0_9allocatorISA_EEE9SelectKeyESI_SK_EptEv
pyc:__Z34Mesh_CUSTOM_SetArrayForChannelImplP12Il2CppObject30InternalScriptingShaderChannel34InternalScriptingVertexChannelTypeiP11Il2CppArrayi
mCl:_UInt64_System_IConvertible_ToDecimal_m806594027_AdjustorThunk
a$j:__ZNK36RuntimeDeclSecurityEntry_t314446915610get_size_1Ev
dem:_UnityEvent_1_GetDelegate_m274387680_gshared
dMn:__ZN14dense_hash_mapI10KeyWrapperIPK22Il2CppGenericParameterEP11Il2CppClassN6il2cpp5utils11PointerHashIS2_EENS4_14EqualsComparerINSt3__28equal_toIS3_EEEENSC_9allocatorINSC_4pairIKS4_S6_EEEEED2Ev
nhm:_List_1__ctor_m3395838871_gshared
AXl:_Collection_1_IsFixedSize_m3698021882_gshared
bXh:__ZNK22StrongName_t409384937720get_tokenAlgorithm_3Ev
cWi:__ZNK36NameObjectCollectionBase_t209184736419get_m_NullKeyItem_1Ev
aok:_DefaultComparer_GetHashCode_m2651362016_gshared
Zbf:__ZNK24FieldBuilder_t262704999310get_type_1Ev
bli:__ZN25RSAParameters_t172840661314set_InverseQ_5EP22ByteU5BU5D_t4116647657
gLl:_Array_Resize_TisCustomAttributeNamedArgument_t287865710_m885566878_gshared
e0:__ZN17TransformInternal19FreeTransformThreadER18TransformHierarchyjj
cbh:__Z37InternalEnumerator_1__ctor_m539509188P32InternalEnumerator_1_t3507565409P11Il2CppArrayPK10MethodInfo
N5k:__Z85RuntimeInvoker_RuntimeObject_RuntimeObject_SByte_t1669577662_ExceptionU26_t3600731591PFvvEPK10MethodInfoPvPS4_
Mmk:_DefaultComparer__ctor_m2556554241_gshared
Fu:__ZN11UnityEngine9Animation28GenericAnimationBindingCache25RegisterIAnimationBindingEPKN5Unity4TypeEiP17IAnimationBinding
yFh:_FormatterData__ctor_m3990517908
aKj:_DirectoryInfo__ctor_m481305441
EAg:__Z24List_1__ctor_m3408116030P17List_1_t881764471PK10MethodInfo
Wda:__ZN9Scripting11UnityEngine11SpriteProxy12CleanupProxyEv
i8i:_X509ExtensionCollection_get_SyncRoot_m2667861032
zNn:__ZN6il2cpp2vm5Class15GetElementClassEP11Il2CppClass
Zkc:__ZNK6Sprite15GenerateOutlineEfhbRNSt3__26vectorI13dynamic_arrayI8Vector2fLj0EENS0_9allocatorIS4_EEEEi
WU:__ZN10MemoryPoolC2E10MemLabelIdbPKciii
v9m:__Z25Il2CppCodeGenWriteBarrierI22Rigidbody2D_t939494601EvPPT_S2_
oTl:_Collection_1_SetItem_m941095285_gshared
eqk:__ZNK42EqualityComparer_1_t892922493_StaticFields14get__default_0Ev
sEd:__ZN14UnityAnalytics25UnregisterGlobalCallbacksEv
Ohl:__Z80RuntimeInvoker_Boolean_t97287965_ColorBlockU26_t337120346_ColorBlock_t2139031574PFvvEPK10MethodInfoPvPS4_
bYb:__Z40ProcessCameraIndexListIsNodeVisibleInOutRK22SceneCullingParametersPK9SceneNodePK4AABBR9IndexList
E0m:_GUIScrollGroup_SetHorizontal_m291416666
vxa:__ZN16GraphicsSettings8TransferI17RemapPPtrTransferEEvRT_
kwd:__ZN2UI6Canvas13UpdateBatchesEb
n2i:_X509BasicConstraintsExtension_Decode_m120598446
e0i:__ZNK44WebHeaderCollection_t1942268960_StaticFields20get_allowed_chars_16Ev
yQi:_Delegate_Remove_m334097152
Yal:__Z49RuntimeInvoker_Boolean_t97287965_Rect_t2360479859PFvvEPK10MethodInfoPvPS4_
fLf:_ObjectReader_ReadObjectGraph_m340866276
yHn:_CustomEventData_t317522481_marshal_pinvoke
s5k:__Z51RuntimeInvoker_UInt32_t2560061978_Int16_t2552820387PFvvEPK10MethodInfoPvPS4_
TAb:__ZNK13GfxDeviceGLES12GetWireframeEv
V9g:__Z68InternalEnumerator_1_System_Collections_IEnumerator_Reset_m872612294P31InternalEnumerator_1_t746136913PK10MethodInfo
p3m:_DelegatePInvokeWrapper_Action_t1264377477
hU:__ZN24ProfilerCallbacksHandlerC2E10MemLabelId
h$h:__ZNK25X509Extension_t317339365218get_extnCritical_1Ev
Q9i:__ZNK25GroupCollection_t697704849get_gap_1Ev
zXe:__ZL64EventType_t3528516131_CustomAttributesCacheGenerator_dragUpdatedP21CustomAttributesCache
beg:__Z25Il2CppCodeGenWriteBarrierI24MessageEvent_t1491597365EvPPT_S2_
tki:_PKCS1_Verify_v15_m4192025173
mbb:__ZN9GfxDevice18AllocRenderSurfaceEb
S7h:_Char__cctor_m2787437263
elc:__ZN10TagManager32GetSortingLayerUniqueIDFromValueEi
N_d:_AspectRatioFitter_get_rectTransform_m2996235303
Tff:__ZNK25MethodBuilder_t280731675316get_parameters_2Ev
Bna:__ZN10TagManager8TransferI19StreamedBinaryWriteEEvRT_
NEj:_NumberFormatInfo_get_PercentPositivePattern_m1800841633
Qee:_Graphic_UnregisterDirtyMaterialCallback_m2707090617
Oeg:__ZN28MessageEventArgs_t117057578410set_data_1EP22ByteU5BU5D_t4116647657
zkh:_Comparer_1_System_Collections_IComparer_Compare_m1313384821_gshared
ybn:__ZN34U3CWaitU3Ec__Iterator2_t357216655611set_U24PC_3Ei
H3n:__ZN6il2cpp6icalls8mscorlib6SystemL16CheckMemberMatchI12PropertyInfoNS_5utils10functional6FilterINSt3__212basic_stringIcNS8_11char_traitsIcEENS8_9allocatorIcEEEENS5_13VmStringUtils23CaseInsensitiveComparerEEEEEbPKT_PK11Il2CppClassSN_iRKT0_
vCg:_LayoutRebuilder_GetHashCode_m1943075341
ndf:_GenericTypeParameterBuilder_MakeGenericType_m3048165991
qTa:__ZThn356_N14SpriteRenderer14OnChangeSpriteEv
i8o:_glUniform1uiv__wrapper
WUc:__ZNK14b2PolygonShape5CloneEP16b2BlockAllocator
mFj:__ZNK22RegionInfo_t109027022617get_englishName_6Ev
e_:__ZN17PersistentManager26GetStreamNameSpaceInternalEi
Cxg:__ZN22InputField_t376291743128set_m_CachedInputRenderer_45EP26CanvasRenderer_t2598313366
zE:__ZN4FMOD6System11createSoundEPKcjP22FMOD_CREATESOUNDEXINFOPPNS_5SoundE
q9o:_glRenderbufferStorage__wrapper
Jn:FUNCTION_TABLE_iiifiiii
Ydh:_InternalEnumerator_1_System_Collections_IEnumerator_Reset_m1451164462_AdjustorThunk
U8c:__ZN13SpeedTreeWind20AdvanceWithoutUpdateEd
N7d:__Z24List_1__ctor_m2163569220P18List_1_t2924027637PK10MethodInfo
d$f:__ZN46AttributeHelperEngine_t2735742303_StaticFields28set__requireComponentArray_2EP34RequireComponentU5BU5D_t2245623724
FGm:__ZNK37X509CertificateEnumerator_t351593469816get_enumerator_0Ev
bMi:_DateTime_System_IConvertible_ToDecimal_m1044850612
Tgm:_List_1_IndexOf_m2206067159_gshared
jpo:__ZN6il2cpp2vm9Exception11FromNameMsgEPK11Il2CppImagePKcS6_RKNS_5utils10StringViewIDsEEi
aYg:_InternalEnumerator_1_System_Collections_IEnumerator_Reset_m1318888374_AdjustorThunk
fW:__ZN9ShaderLab19CommonPropertyNames13StaticCleanupEPv
k2n:__ZN6il2cpp5utils10functional6FilterINSt3__212basic_stringIcNS3_11char_traitsIcEENS3_9allocatorIcEEEENS0_13VmStringUtils23CaseInsensitiveComparerEED2Ev
Ssf:_Module_IsResource_m553227372
tZ:__Z31scripting_method_get_returntype18ScriptingMethodPtr
dyi:__ZNK36ReceiveRecordAsyncResult_t368090765722get__resultingBuffer_5Ev
Fzh:__Z25Il2CppCodeGenWriteBarrierI30LogicalCallContext_t3342013719EvPPT_S2_
KPa:__ZN15SerializeTraitsI12LightmapDataE8TransferI24GenerateTypeTreeTransferEEvRS0_RT_
PXj:_SecurityElement_AddAttribute_m311510562
ych:__Z74InternalEnumerator_1_System_Collections_IEnumerator_get_Current_m605068928P31InternalEnumerator_1_t818507063PK10MethodInfo
u9o:_glStencilOpSeparate__wrapper
SQl:__ZNK38ExecuteEvents_t3484638744_StaticFields30get_s_InternalTransformList_18Ev
Xpc:__ZN4Mesh5SetUvEiPKfjj
MMa:__ZN7Texture13SetAnisoLimitENS_20AnisotropicFilteringE
fzn:__ZL25UnresolvedVirtualCall_201P12Il2CppObjectaPK10MethodInfo
BI:__ZN11AudioModule16SetListenerPauseEb
Ohg:_PropertyName_Equals_m3623975820
cqh:__Z28Enumerator__ctor_m1320896511P22Enumerator_t1626871233P24Dictionary_2_t1444694249PK10MethodInfo
s5h:_Attribute_IsDefined_m4069052474
Cf:_emscripten_glCompressedTexSubImage2D
PGb:__ZN13GfxDeviceGLES22MemoryBarrierImmediateEyN2gl17MemoryBarrierTypeE
vFn:__ZN38AnimatorControllerPlayable_t101576784125get_address_of_m_Handle_0Ev
Xyg:_U3CCaretBlinkU3Ec__Iterator0_Dispose_m860898205
d9:__ZN6prcoreL26RemapGenericFloatToIntegerI18TexFormatARGBFloat17TexFormatARGB8888EEvPKNS_9InnerInfoE
zYc:__ZN14qsort_internal5QSortIPN35b2SynchronizeContinuousFixturesTask14b2DeferredMoveEiPFbRKS2_S5_EEEvT_S8_T0_T1_
Cqm:_List_1_set_Capacity_m1977188119_gshared
Prc:__Z46GetShaderModelNumericValueFromRequirementsMask18ShaderRequirements
Igd:_cff_ps_has_glyph_names
kji:__ZNK22MD2Managed_t137710153511get_state_4Ev
Sne:__ZL86MSCompatUnicodeTable_t1453885583_CustomAttributesCacheGenerator_U3CU3Ef__switchU24map2P21CustomAttributesCache
rmk:_Dictionary_2_Resize_m3287623642_gshared
bMo:_GC_write
Ybl:__Z98RuntimeInvoker_Boolean_t97287965_PlayableOutputHandle_t4208053793_PlayableOutputHandle_t4208053793PFvvEPK10MethodInfoPvPS4_
BTh:_SoapTypeAttribute_SetReflectionObject_m1691526413
l9i:__ZNK24FactoryCache_t232711888714get_mru_list_2Ev
Y6m:_U3CEndingCutsceneU3Ec__Iterator2_System_Collections_IEnumerator_get_Current_m4214313259
nee:_Graphic_OnPopulateMesh_m767318148
Gr:__ZN17ConstraintManagerD2Ev
nYf:_HMACSHA512_set_ProduceLegacyHmacValues_m3961135292
jwn:__ZL24UnresolvedVirtualCall_43P12Il2CppObjectS0_PK10MethodInfo
Rik:_Dictionary_2_Remove_m4193450060_gshared
H1f:__ZNK19Color32_t26005012927get_g_2Ev
bKn:__Z24List_1__ctor_m2466177744P18List_1_t2411569343PK10MethodInfo
Slj:_MulticastDelegate_GetObjectData_m3957553424
Pfn:_StandardEventPayload_set_name_m549984672
Wgj:_Int64_TryParse_m3606398488
EKl:_Array_InternalArray__set_Item_TisMark_t3471605523_m1299772331_gshared
$Gc:__Z44Register_UnityEngine_GUIStyle_SetDefaultFontv
rkc:__ZN19SpriteMeshGenerator9MakeShapeEP11ColorRGBA32iifhbjfi
RAj:_CompareInfo_get_LCID_m2851766819
OGc:__Z32GUIStyle_CUSTOM_GetRectOffsetPtrP12Il2CppObjecti
Rka:__ZN5Unity9Component23VirtualRedirectTransferER18StreamedBinaryRead
nPj:__ZN24StreamReader_t400993589914set_foundCR_13Eb
mtd:_unitytls_key_parse_der
_oj:__ZN49AssemblyInformationalVersionAttribute_t303776499110set_name_0EP8String_t
oja:__ZN9Scripting5Unity11Collections8LowLevel6Unsafe46NativeContainerIsAtomicWriteOnlyAttributeProxy12CleanupProxyEv
DGm:_X509Certificate_get_DSA_m565099499
f$i:__Z25Il2CppCodeGenWriteBarrierI23IPv6Address_t2709566769EvPPT_S2_
PBh:__ZN23CADArgHolder_t58304931411set_index_0Ei
Wrd:__ZL16OnGfxInitializedv_5859
Zpn:__ZN32Vector3_t3722313464_StaticFields15set_oneVector_6E19Vector3_t3722313464
FXa:__ZN14SafeBinaryRead21TransferSTLStyleArrayI13dynamic_arrayI16SplashScreenLogoLj0EEEEvRT_17TransferMetaFlags
Deb:__ZN13dynamic_arrayIN16GeometryJobTasks15GeometryJobTaskELj0EE18resize_initializedEjRKS1_12ResizePolicy
txf:__Z25Il2CppCodeGenWriteBarrierI15RSA_t2385438082EvPPT_S2_
gVf:_DESCryptoServiceProvider_GenerateIV_m683687014
MIj:_BinaryWriter__ctor_m2439641268
kia:__ZN9Scripting11UnityEngine14BoundsIntProxy12CleanupProxyEv
Kea:__ZN9Scripting11UnityEngine15RectOffsetProxy12CleanupProxyEv
DLd:__ZN9Scripting11UnityEngine12Experimental2XR18TrackingStateProxy12CleanupProxyEv
pNa:__ZL21SetAnisoLimitEnumImplN7Texture20AnisotropicFilteringEb
cpb:__Z18Transfer_BlittableI19StreamedBinaryWriteLb1EtEvRK29SerializationCommandArgumentsR31RuntimeSerializationCommandInfo
Wyl:_Type_GetTypeHandle_m1526957577
Xlf:__ZN31OpCodes_t126150456_StaticFields15set_Ldind_R4_77E17OpCode_t123070264
$rd:__ZN7Tilemap15QueueCameraViewERK13TilemapBounds
GCn:__ZNK25TextGenerator_t321186386619get_m_CachedVerts_8Ev
IRg:_Text_get_fontSize_m1677872538
NFi:__ZNK33DateTime_t3738529785_StaticFields14get_MaxValue_2Ev
pch:_InternalEnumerator_1_System_Collections_IEnumerator_Reset_m3217592429_gshared
Afm:_List_1_System_Collections_IList_get_Item_m995551621_gshared
WBh:__ZN21CADObjRef_t321912773012set_objref_0EP18ObjRef_t2141158884
xwk:__ZNK21HashSet_1_t164505563816get_threshold_10Ev
eeh:__Z75InternalEnumerator_1_System_Collections_IEnumerator_get_Current_m2032951142P32InternalEnumerator_1_t4136673857PK10MethodInfo
SIm:__ZN20X509Chain_t86378360011set_certs_1EP37X509CertificateCollection_t1542168550
t0k:__Z49RuntimeInvoker_Void_t1185182177_Int16_t2552820387PFvvEPK10MethodInfoPvPS4_
c1m:__ZN19GUISkin_t124437228215set_m_Styles_28EP24Dictionary_2_t3742157810
zic:__Z29Input_CUSTOM_GetMouseButtonUpi
_bj:_Int16_Parse_m138525169
ETj:__ZN23SHA384Managed_t7415857516set_byteCount2_7Ey
GBd:__ZN11UnityEngine9Analytics18ConnectSessionInfo12ToJsonStringERN4core12basic_stringIcNS2_20StringStorageDefaultIcEEEE
L3n:__ZN6il2cpp6icalls8mscorlib6System8MonoType16InternalGetEventEP20Il2CppReflectionTypeP12Il2CppStringi
f$j:__ZNK40SecurityManager_t3383402582_StaticFields17get__lockObject_0Ev
JXm:_UriScheme_t722425697_marshal_pinvoke_back
zid:_UNITY_tt_face_load_maxp
Oic:__Z46Input_CUSTOM_INTERNAL_set_compositionCursorPosRK13Vector2fIcall
dun:__ZNK46AudioExtensionManager_t3220897493_StaticFields21get_m_NextStopIndex_4Ev
zEk:__ZN22Enumerator_t312384892810set_next_1Ei
vKo:__ZN6il2cpp6icalls8mscorlib6System9Threading10WaitHandle16WaitAny_internalEP11Il2CppArrayib
aQb:__ZN13BatchRenderer15ApplyShaderPassER17ShaderPassContextPK18SharedMaterialDataP6ShaderPN9ShaderLab4PassEi13BatchingFlagsbbPKNS7_10GrabPassesEPK22DeviceRenderStateBlock
Lvj:__ZN22FileStream_t429218306521set_append_startpos_5Ex
WTa:__ZN19ShaderPropertySheet11ComputeHashEv
AVn:__ZN30dense_hashtable_const_iteratorI10KeyWrapperIPK19Il2CppGenericMethodES4_N6il2cpp8metadata23Il2CppGenericMethodHashEN14dense_hash_setIS4_S7_NS4_14EqualsComparerINS6_26Il2CppGenericMethodCompareEEENSt3__29allocatorIS4_EEE8IdentityESB_SE_EppEv
H7d:_Resources_t1597885468_marshal_pinvoke_cleanup
AVc:__ZN12b2EPCollider24ComputePolygonSeparationEv
TM:__ZN11UnityEngine15CloudWebService20WebRequestRestClient6IsDoneEv
UQm:_Group__ctor_m2980794822
ry:__ZN9Scripting11UnityEngine5Audio24AudioPlayableOutputProxy9InitProxyEv
fam:_CachedInvokableCall_1_Invoke_m502907382_gshared
NFe:__ZL79Enumerable_t538148348_CustomAttributesCacheGenerator_Enumerable_Any_m1084009618P21CustomAttributesCache
Ql:_llvm_fabs_f32
UHh:__ZNK29LocalDataStoreSlot_t74084196810get_slot_0Ev
wM:__ZN11UnityEngine15CloudWebService16SessionContainer16GetJsonDataBlockEjRKN4core12basic_stringIcNS2_20StringStorageDefaultIcEEEERS6_PjSA_
Phe:__ZN17Image_t267026965130get_address_of_m_FillAmount_37Ev
N7m:_Player_ChangeJumpSpeed_m759135752
oQk:_ASN1_Decode_m1695284166
Iea:__ZN9Scripting11UnityEngine14TransformProxy12CleanupProxyEv
Eni:__ZN23GenericVirtFuncInvoker0IP28ValidationResult_t3834298736E6InvokeEPK10MethodInfoP12Il2CppObject
tSl:_Collection_1_RemoveAt_m2240641437_gshared
Qfo:__ZN10KeyWrapperIPK10Il2CppTypeEC2ENS3_11KeyTypeEnumE
hTi:_Enum_ToString_m3248653065
VCc:__ZN4Grid11CellToLocalERKNS_9GridStateERKN4math5_int3E
OFj:__ZNK19SortKey_t39553367329get_key_2Ev
wFh:__ZNK46RemotingConfiguration_t4113740665_StaticFields30get_serverProviderTemplates_12Ev
vdc:__Z27RegisterAllowNameConversionR20AllowNameConversionsPKcS2_S2_
zY:__ZN14SafeBinaryReadD2Ev
Tak:_SetPropertyUtility_SetStruct_TisFillMethod_t1167457570_m4164776730_gshared
_Th:__ZNK18ObjRef_t21411588849get_uri_1Ev
fDk:__ZN22Enumerator_t34368197257set_l_0EP18List_1_t1547575848
_Fk:_Enumerator_MoveNext_m3859993671_gshared
Z9c:__ZN14SafeBinaryRead21TransferSTLStyleArrayI13dynamic_arrayIN20TextRenderingPrivate8FontImpl13CharacterInfoELj0EEEEvRT_17TransferMetaFlags
thi:_SequentialSearchPrimeGeneratorBase_IsPrimeAcceptable_m1127740833
C8i:_Capture__ctor_m3103117740
bFk:__Z28Enumerator__ctor_m3875432026P22Enumerator_t1222580846P18List_1_t3628304265PK10MethodInfo
ebb:__ZNK9GfxDevice22GetActiveRenderTargetsERA8_12ObjectHandleI17RenderSurface_TagP17RenderSurfaceBaseERS4_
j1l:_ReadOnlyCollection_1_System_Collections_Generic_ICollectionU3CTU3E_get_IsReadOnly_m3551835259_gshared
QBl:_UInt32_CompareTo_m2218823230
NOc:__ZN5Unity9rapidjson8internal6Grisu2EdPcPiS3_
GCj:_DateTimeFormatInfo_GetEraName_m3151483707
Sig:_RangeInt_get_end_m4128831787_AdjustorThunk
Zqf:__Z40il2cpp_codegen_method_get_declaring_typeP10MethodInfo
Dwk:__ZNK21HashSet_1_t164505563815get_comparer_11Ev
Ad:_SDL_PauseAudio
_9k:__Z54RuntimeInvoker_Int32_t2950945753_LayerMask_t3493934918PFvvEPK10MethodInfoPvPS4_
mfg:_Object_Internal_InstantiateSingle_m4074556765
Ajo:_il2cpp_class_from_type
Hxa:__ZN4PPtrI6ShaderE8TransferI19StreamedBinaryWriteEEvRT_
$Hn:_RemoteSettings_RemoteSettingsUpdated_m1182006011
vCc:__ZNK4Grid12LocalToWorldERKN4math7_float3E
YKn:_NativeHeaderAttribute__ctor_m457462113
iBe:__ZL77Convert_t2465617642_CustomAttributesCacheGenerator_Convert_ToSByte_m516918950P21CustomAttributesCache
L2a:__ZN2UI13RectTransform8TransferI18StreamedBinaryReadEEvRT_
eW:__ZN9ShaderLab19CommonPropertyNames16StaticInitializeEPv
c1a:__ZN13MemoryManager31DisallowAllocationsOnThisThreadEv
Aih:_Comparer_1__cctor_m2517796511_gshared
h9n:__ZN14dense_hash_mapI10KeyWrapperINSt3__24pairIPK10MethodInfoP11Il2CppClassEEEj17ReflectionMapHashIS8_ENS9_14EqualsComparerINS1_8equal_toIS8_EEEENS1_9allocatorINS2_IKS9_jEEEEE4findERSH_
t3h:_Array_GetLongLength_m561139708
eZe:__ZL101GUIUtility_t1868551600_CustomAttributesCacheGenerator_GUIUtility_t1868551600____guiDepth_PropertyInfoP21CustomAttributesCache
Rwo:__ZN6il2cpp2vmL14FindNestedTypeEP11Il2CppClassPKc
VQg:_SpriteState_get_pressedSprite_m3868967445_AdjustorThunk
ED:__ZN11AudioSource23VirtualRedirectTransferER24GenerateTypeTreeTransfer
Fpc:__ZN7Texture11SetWrapModeE15TextureWrapMode
oBd:__ZN22BaseUnityConnectClient13ResumeSessionEv
ROa:__ZN14Texture2DArray23VirtualRedirectTransferER14SafeBinaryRead
Bfi:__ZN22BigInteger_t290290509010set_data_1EP24UInt32U5BU5D_t2770800703
NSb:__ZNK6Camera21CalculateCanDoShadowsEv
GTi:__ZNK29Enum_t4135868527_StaticFields16get_split_char_0Ev
g_f:_Application_InvokeOnBeforeRender_m2875673833
cin:_ToggleGroup_set_allowSwitchOff_m4192200290
HAh:__ZN26ClientIdentity_t142804684421set__proxyReference_7EP25WeakReference_t1334886716
zFo:__ZN6il2cpp2os6Thread12SetStackSizeEj
a8c:__ZThn356_N10SpriteMaskD1Ev
Khe:__Z66SetPropertyUtility_SetStruct_TisFillMethod_t1167457570_m4164776730P12Il2CppObjectPiiPK10MethodInfo
DFg:_MaskableGraphic_RecalculateMasking_m183336762
Ogh:__Z38InternalEnumerator_1__ctor_m4132027968P31InternalEnumerator_1_t334410285P11Il2CppArrayPK10MethodInfo
K6j:__ZNK44EncoderReplacementFallbackBuffer_t186318716223get_fallback_assigned_2Ev
$pf:_TypeBuilder_IsSubclassOf_m3458909121
Onf:__ZN31OpCodes_t126150456_StaticFields15set_Conv_U1_176E17OpCode_t123070264
K1o:dynCall_viffii
t3i:__ZN40X509Certificate2_t714049126_StaticFields17set_commonName_15EP22ByteU5BU5D_t4116647657
i6n:__ZNK10KeyWrapperINSt3__24pairIPK14Il2CppAssemblyP11Il2CppClassEEE8isNormalEv
J_h:_X509Certificate__cctor_m198658613
q9k:__Z68RuntimeInvoker_Ray_t3785851493_Vector3_t3722313464_Int32_t2950945753PFvvEPK10MethodInfoPvPS4_
fmc:__ZL24GenerateTilingJobCombineP22GenerateTilingAreaInfo
kDd:__ZN11UnityEngine9Analytics13ConnectConfig13SessionConfig8TransferI8JSONReadEEvRT_
nMf:_MemberTypeMetadata__ctor_m2376841411
mbc:__Z18RegisterUnityClassI7TextureEvPKc
NUh:__ZN46RemotingConfiguration_t4113740665_StaticFields30set_clientProviderTemplates_11EP21Hashtable_t1853889766
J8:__ZN6prcoreL27StretchGenericFloatBilinearI15TexFormatRFloatEEvPKNS_9InnerInfoE
kIk:__ZN22TableRange_t333286789216set_IndexStart_3Ei
fOh:_ErrorMessage_get_MethodSignature_m3912515700
FJh:_Identity_get_EnvoySink_m1643114474
OEe:__ZL139ServicePointManager_t170559685_CustomAttributesCacheGenerator_ServicePointManager_t170559685____CheckCertificateRevocationList_PropertyInfoP21CustomAttributesCache
_ge:__Z56LayoutGroup_SetProperty_TisSingle_t1397266774_m793506911P23LayoutGroup_t2436138090PffPK10MethodInfo
Hto:__ZN14dense_hash_mapI10KeyWrapperIP14Il2CppIUnknownEjN6il2cpp5utils11PointerHashIS1_EENS3_14EqualsComparerINSt3__28equal_toIS2_EEEENS9_9allocatorINS9_4pairIKS3_jEEEEE13set_empty_keyERSF_
qTi:_Enum_ToObject_m1628250250
tNm:__ZNK16Mark_t347160552311get_Start_0Ev
nTd:__Z25Il2CppCodeGenWriteBarrierI26EventFunction_1_t955952873EvPPT_S2_
xBf:__ZN43CompilationRelaxationsAttribute_t172144211111set_relax_0Ei
FKe:__ZL136GraphicsFormatUtility_t3491748452_CustomAttributesCacheGenerator_GraphicsFormatUtility_GetGraphicsFormat_Native_TextureFormat_m433736368P21CustomAttributesCache
fmf:__ZN31OpCodes_t126150456_StaticFields10set_Add_87E17OpCode_t123070264
iJm:__ZN22X509Stores_t137393623716set__storePath_0EP8String_t
oKa:__Z14PadImageBorderR14ImageReferenceii
gao:__ZN15dense_hashtableINSt3__24pairIK10KeyWrapperINS1_IPK10MethodInfoP11Il2CppClassEEEjEES9_17ReflectionMapHashIS8_EN14dense_hash_mapIS9_jSD_NS9_14EqualsComparerINS0_8equal_toIS8_EEEENS0_9allocatorISB_EEE9SelectKeyESI_SK_E4findERSA_
K_n:__ZN6il2cpp2vm13MetadataCache28GetFieldDefaultValueForFieldEPK9FieldInfo
T6d:__Z60GameObject_AddComponent_TisScrollRect_t4137855814_m507154143P22GameObject_t1113636619PK10MethodInfo
fdk:_Array_IndexOf_TisUIVertex_t4057497605_m3336763564_gshared
d$l:__ZN21InterfaceFuncInvoker1I22OrderBlock_t1585977831iE6InvokeEjP11Il2CppClassP12Il2CppObjecti
AOj:__ZN38SearchPattern_t3793128359_StaticFields19set_WildcardChars_0EP22CharU5BU5D_t3528271667
m3d:_ColorBlock_Equals_m518833916_AdjustorThunk
Pem:_List_1_GetEnumerator_m2838255531_gshared
qni:__ZN16VirtFuncInvoker2IbP26X509Certificate_t713131622P22Int32U5BU5D_t385246372E6InvokeEjP12Il2CppObjectS1_S3_
j_g:_InternalEnumerator_1_System_Collections_IEnumerator_get_Current_m1514266661_AdjustorThunk
Az:__ZN12AudioManager39HandlePendingAudioConfigurationCallbackEv
uoi:__ZNK23CipherSuite_t341474457510get_name_2Ev
VKf:__ZN24ObjectReader_t194095739214set__context_1E28StreamingContext_t3711869237
gLm:__ZN25RepeatContext_t121486307611set_start_0Ei
Wg:_emscripten_glIsFramebuffer
dVk:_RSAManaged_EncryptValue_m799827583
WYb:__ZN12_GLOBAL__N_16qAtan2Eff
zPg:__ZNK18Slider_t390372890218get_m_FillImage_26Ev
gXk:__Z61RuntimeInvoker_UInt32_t2560061978_RuntimeObject_RuntimeObjectPFvvEPK10MethodInfoPvPS4_
CWh:__ZN35StrongName_t4093849377_StaticFields16set_lockObject_4EP12Il2CppObject
nrg:__ZN22InputField_t376291743124set_m_HideMobileInput_27Eb
Pc:_JS_Sound_SetLoopPoints
qSo:__ZN6il2cpp2vm26MetadataAllocGenericMethodEv
M9j:_Array_InternalArray__ICollection_Remove_TisUInt16_t2177724958_m1766181761_gshared
aJb:__ZN19ConstantBuffersGLES12RecordRenderEv
ZMh:__ZN21MethodCall_t86107814022set__methodSignature_4EP22TypeU5BU5D_t3940880105
Wjn:_UnityEvent_1__ctor_m3675246889_gshared
Rko:__ZNK22RaycastHit_t105600196613get_m_Point_0Ev
HJc:__ZN9JSONWrite8TransferI10RectOffsetEEvRT_PKc17TransferMetaFlags
WBk:__ZN22Enumerator_t16668526157set_l_0EP18List_1_t4072576034
ZEo:___cxx_global_var_init_45776
YJa:__ZN4crnd12symbol_codec11decode_bitsEj
dil:__Z59RuntimeInvoker_Boolean_t97287965_KeyValuePair_2_t3842366416PFvvEPK10MethodInfoPvPS4_
vki:_EncryptedPrivateKeyInfo__ctor_m3415744930
WVc:__ZN15b2CircleContact8EvaluateEP10b2ManifoldRK11b2TransformS4_
R0i:_AsnEncodedData__ctor_m3792312694
E2i:_OidEnumerator_Reset_m2503707245
A3m:_AesManaged_GenerateIV_m1368817386
jic:__ZN21FixedBehaviourManagerD0Ev
kcj:__Z37il2cpp_codegen_check_mul_overflow_i64xxxx
hNa:__ZN23TextureStreamingResults7CompactEPS_
My:__ZN4FMOD6System12createReverbEPPNS_6ReverbE
EJo:__ZN6il2cpp2vm6String21InitializeEmptyStringEP11Il2CppClass
$zn:__ZL25UnresolvedVirtualCall_249P12Il2CppObject23SpriteState_t1362986479PK10MethodInfo
Zyc:__Z51Register_UnityEngine_AnimationCurve_Internal_Createv
ipn:__ZN19Vector3_t372231346418get_address_of_x_2Ev
Roe:__ZL48Queue_t3637523393_CustomAttributesCacheGeneratorP21CustomAttributesCache
NTk:_PKCS1_RSASP1_m3912327535
eTf:_CodeAccessPermission_GetHashCode_m880096813
Osn:__ZNK46AudioSpatializerExtensionDefinition_t59789618616get_definition_1Ev
Bad:__ZN18StreamedBinaryRead21TransferSTLStyleArrayI13dynamic_arrayIcLj0EEEEvRT_17TransferMetaFlags
Noj:_AssemblyConfigurationAttribute__ctor_m3236176989
WBo:__ZN6il2cpp2osL21IsSpecialZeroSizeFileEP4stat
Txf:_TypeDelegator_GetEvent_m3148520673
hWm:__ZNK34UriParser_t3890150400_StaticFields11get_table_1Ev
knn:_ObjectPool_1_get_countInactive_m526975942_gshared
BAh:_RemotingServices_DisposeIdentity_m2605848806
E7:__ZNK9Transform11GetPositionEv
hMj:_WriteDelegate_EndInvoke_m952736984
G_c:__ZNK29b2ClearContactIslandFlagsTask13GetRangeCountEv
pyn:__ZL25UnresolvedVirtualCall_157P12Il2CppObjectPK10MethodInfo
KGj:_GuidParser_Reset_m2640004655
Jpb:__Z35Transfer_Blittable_FixedBufferFieldI19StreamedBinaryWritedEvRK29SerializationCommandArgumentsR31RuntimeSerializationCommandInfo
gcc:__ZN23SharedMeshRenderingData18UnloadVertexStreamEi
Cso:__ZN6il2cpp2vm8Liveness10StartWorldEPFvvE
_bl:__Z64RuntimeInvoker_Void_t1185182177_PlayableOutputHandle_t4208053793PFvvEPK10MethodInfoPvPS4_
Yvd:__ZN31CanvasBatchIntermediateRenderer11AddSubBatchERK16DrawBuffersRangePK19ShaderPropertySheet
qjh:__ZN16VirtFuncInvoker2IiP12Il2CppObjectS1_E6InvokeEjS1_S1_S1_
ffc:__ZN19RenderEventsContextC2Ei
jK:__Z6simd4fRKf
JSe:__ZL67SceneManager_t2787271929_CustomAttributesCacheGenerator_sceneLoadedP21CustomAttributesCache
VDj:_GregorianCalendar_GetEra_m2369958449
YRf:_RuntimeTypeHandle_GetObjectData_m1599302095_AdjustorThunk
bg:_emscripten_glEnable
OKd:__GLOBAL__sub_I_Runtime_VR_PluginInterface_0_cpp
O1g:_InternalEnumerator_1_System_Collections_IEnumerator_get_Current_m2982675020_gshared
hna:__ZN10TagManager23VirtualRedirectTransferER14SafeBinaryRead
L4e:__ZL51RawImage_t3182918964_CustomAttributesCacheGeneratorP21CustomAttributesCache
e1j:_String_System_IConvertible_ToType_m3431692856
VBh:_CADObjRef__ctor_m2673939978
Ppi:_CipherSuiteCollection_System_Collections_IList_Contains_m1220133031
bXl:_Collection_1_System_Collections_IList_get_Item_m2931804586_gshared
rlo:__ZN6il2cpp2vm6Thread16RequestInterruptEP12Il2CppThread
UTh:_ObjRef_get_EnvoyInfo_m1782007847
Fjm:_List_1_System_Collections_ICollection_get_IsSynchronized_m3331050698_gshared
FVb:__Z15InitLightMeshesv
Atf:_MonoCMethod_ToString_m3992577062
Nko:_RaycastHit_get_collider_m1464180279
sne:__ZL76MarshalAsAttribute_t3522571978_CustomAttributesCacheGenerator_MarshalTypeRefP21CustomAttributesCache
xAf:__ZN6il2cpp2vm3CCW11GetOrCreateEP12Il2CppObjectRK10Il2CppGuid
$aa:__ZL50__ManagedRegistrationHelperFunction_CoroutineProxyPv
Dhg:__ZNK24PropertyName_t37498351898get_id_0Ev
G4j:__ZN16VirtFuncInvoker3IbDsDsiE6InvokeEjP12Il2CppObjectDsDsi
z2l:_ReadOnlyCollection_1_System_Collections_IList_Contains_m2904046095_gshared
ZXe:__ZL56GUISkin_t1244372282_CustomAttributesCacheGenerator_m_boxP21CustomAttributesCache
Qwj:_Exception__ctor_m1406832249
NHh:_ContextCallbackObject_DoCallBack_m3942380501
led:_cf2_arrstack_init
KPl:_Array_InternalArray__get_Item_TisResourceCacheItem_t51292791_m1306056717_gshared
bel:__Z157RuntimeInvoker_Void_t1185182177_RuntimeObject_RuntimeObject_RuntimeObject_RuntimeObject_RuntimeObject_RuntimeObject_RuntimeObject_RuntimeObject_RuntimeObjectPFvvEPK10MethodInfoPvPS4_
ePd:_EventSystem_get_pixelDragThreshold_m1103650852
eHe:__ZL60StaticAccessorType_t186341701_CustomAttributesCacheGeneratorP21CustomAttributesCache
pS:__Z15CleanLogHandler7LogTypePKcz
Gmj:_NumberFormatter_NumberToString_m2481532188
jxm:__ZN24Collection_1_t166750607514set_syncRoot_1EP12Il2CppObject
hzl:_Type_GetMethod_m1512604930
TPh:_DictionaryEnumerator_MoveNext_m1462973125
$qh:_Enumerator_MoveNext_m76191888_gshared
CG:__ZN14AudioBehaviour15ThreadedCleanupEv
_Bc:__ZN4GridD0Ev
yDj:__ZNK30DateTimeFormatInfo_t240585370127get_allShortDatePatterns_32Ev
Aub:__ZN6Camera17RemoveImageFilterERK11ImageFilter
gfb:__ZNSt3__218__insertion_sort_3IR25ValueParameterArraySorterPN20GpuProgramParameters14ValueParameterEEEvT0_S6_T_
x0c:__ZN10ClipperLib7Clipper27ProcessEdgesAtTopOfScanbeamEx
vEd:__ZThn1172_N14UnityAnalyticsD0Ev
CEe:__ZL67EditorBrowsableAttribute_t1475454531_CustomAttributesCacheGeneratorP21CustomAttributesCache
_di:_Comparer__cctor_m3311686689
Loh:_Enumerator_VerifyCurrent_m93918543_gshared
rvn:_SampleFramesHandler__ctor_m3908528909
g_d:_UIBehaviour_OnDidApplyAnimationProperties_m2143584361
pje:__ZN30Image_t2670269651_StaticFields33set_m_TrackedTexturelessImages_46EP18List_1_t4142344393
oFl:_RC2CryptoServiceProvider_GenerateKey_m468082592
BWm:_Uri__ctor_m3040793867
Inh:_Enumerator_VerifyState_m1203790900_gshared
Nxl:_TimeZone__ctor_m1831364098
UKo:__ZN6il2cpp2vm13ManagedObject7GetIidsEPjPP10Il2CppGuid
P0g:_InternalEnumerator_1_get_Current_m3500427238_AdjustorThunk
axd:__ZN2UI26InitializeDeviceForOverlayEi
onf:__ZN31OpCodes_t126150456_StaticFields17set_Ldelem_R8_150E17OpCode_t123070264
WT:__Z27LogRepeatingStringWithFlagsRKN4core12basic_stringIcNS_20StringStorageDefaultIcEEEE15LogMessageFlagsi
xCl:_UInt64_System_IConvertible_ToSingle_m925613075
ATi:_Enum_IsDefined_m1442314461
pul:_Thread__cctor_m817723615
Isn:_AudioExtensionManager_RegisterBuiltinDefinitions_m2742744104
xWk:__Z46RuntimeInvoker_SByte_t1669577662_RuntimeObjectPFvvEPK10MethodInfoPvPS4_
CLd:__ZN9Scripting11UnityEngine12Experimental2XR18TrackingStateProxy9InitProxyEv
Ryd:__Z53RectTransformUtility_CUSTOM_PixelAdjustPoint_InjectedRK8Vector2fP12Il2CppObjectS3_RS_
D9h:__ZNK21ArrayList_t271887474412get__items_2Ev
e8l:_Predicate_1_EndInvoke_m3884403745_gshared
T5j:_DecoderReplacementFallbackBuffer_Fallback_m1261056214
L4m:__ZN18Camera_t417485622812set_player_4EP22GameObject_t1113636619
tGm:__ZN31PKCS12_t4101533061_StaticFields29set_U3CU3Ef__switchU24map8_15EP24Dictionary_2_t2736202052
BGk:_Enumerator_Dispose_m2367983719_gshared
tOb:__ZNSt3__227__insertion_sort_incompleteIRPFbP10GUIElementS2_EPS2_EEbT0_S7_T_
Mkj:_Binder_get_DefaultBinder_m950908649
BOj:__ZN38SearchPattern_t3793128359_StaticFields18set_InvalidChars_1EP22CharU5BU5D_t3528271667
Xuj:_StreamReader__ctor_m1616861391
Qjd:_tt_cmap6_char_index
SAd:__ZN18UnityConnectClient33OnPlayerSessionStateChangedStaticEPS_jyy
yXc:__ZN19ProcessContactsDataD2Ev
nui:__Z25Il2CppCodeGenWriteBarrierI23CipherSuite_t3414744575EvPPT_S2_
oxk:__Z34KeyValuePair_2_set_Key_m2116817417P26KeyValuePair_2_t3842366416P12Il2CppObjectPK10MethodInfo
DGl:_RSA_ToXmlString_m2922661427
Jzi:__ZNK21Enumerator_t66135868618get_currentValue_6Ev
DN:__ZNK11UnityEngine15CloudWebService23WebRequestUploadHandler11GetProgressEv
APj:__ZN24StreamWriter_t126637890420set_internalStream_3EP18Stream_t1273022909
sEb:__ZN7ApiGLES4LoadE16GfxDeviceLevelGL
JXe:__ZL61GUIContent_t3050628031_CustomAttributesCacheGenerator_m_ImageP21CustomAttributesCache
FGi:_Convert_ToDecimal_m2233265097
F3m:__ZNK24AesTransform_t29571236119get_Nk_13Ev
Gyo:__ZN15dense_hashtableI10KeyWrapperIP18Il2CppGenericClassES3_N6il2cpp8metadata22Il2CppGenericClassHashEN14dense_hash_setIS3_S6_NS3_14EqualsComparerINS5_25Il2CppGenericClassCompareEEENSt3__29allocatorIS3_EEE8IdentityESA_SD_E15insert_noresizeERKS3_
Ngc:__ZZL31RegisterOtherRendererPropertiesR22GenericPropertyBindingEN30Wrapper_RendererReceiveShadows13GetFloatValueEPv
fri:__ZN28HandshakeMessage_t369658316817set_contentType_7Eh
g8j:_Array_InternalArray__ICollection_Contains_TisSlot_t384495010_m688761886_gshared
yLa:__ZN17SharedTextureDataC2E10MemLabelIdii13TextureFormatjiibb
sxb:__ZN8Material11SetPassFastEPN9ShaderLab4PassER17ShaderPassContextP6Shaderib
jUl:_Collection_1_IsFixedSize_m3748602684_gshared
dMi:_DateTime_System_IConvertible_ToDouble_m2116720007
Yhi:_BitConverterLE_GetUIntBytes_m795219058
Mha:__ZN9Scripting11UnityEngine17CullingGroupProxy12CleanupProxyEv
U_k:__Z114RuntimeInvoker_Int32_t2950945753_RuntimeObject_RuntimeObject_Int32_t2950945753_Int32_t2950945753_Int32_t2950945753PFvvEPK10MethodInfoPvPS4_
TSf:_SByte_Parse_m2899090751
wZd:__ZN33StandaloneInputModule_t276046910123set_m_LastMoveVector_17E19Vector2_t2156229523
Tqb:__Z18Transfer_BlittableI18StreamedBinaryReadLb0EN4math12int3_storageEEvRK29SerializationCommandArgumentsR31RuntimeSerializationCommandInfo
d3:__Z18GetITerrainManagerv
EJg:__ZNK22ScrollRect_t413785581416get_m_Vertical_6Ev
Fej:_NumberFormatter_AppendExponent_m1258666517
hUg:_ArrayReadOnlyList_1_GetEnumerator_m1835926958_gshared
aej:_NumberFormatter_AddOneToDecHex_m1662045257
L8b:__ZN19StreamedBinaryWrite21TransferSTLStyleArrayINSt3__26vectorIN9ShaderLab20SerializedSubProgram12UAVParameterENS1_9allocatorIS5_EEEEEEvRT_17TransferMetaFlags
k1:__ZN20GlobalCachingManager7DisposeEv
wPb:__Z12SetupLODFadeR9GfxDeviceR17ShaderPassContextf
xKc:__ZN9JSONWrite8TransferI13dynamic_arrayI4AABBLj0EEEEvRT_PKc17TransferMetaFlags
$me:__ZL69Type_t_CustomAttributesCacheGenerator_Type_GetConstructors_m576905011P21CustomAttributesCache
fGi:__ZNK33DateTime_t3738529785_StaticFields20get_daysmonthleap_12Ev
sVb:__ZL24CollectForwardObjectsJobP27CollectForwardObjectsHeader
uGj:__ZN6Guid_t8set__c_2Es
fZn:__ZNK15dense_hashtableINSt3__24pairIK10KeyWrapperIPK11Il2CppClassEPKcEES6_N6il2cpp5utils11PointerHashIS3_EEN14dense_hash_mapIS6_S9_SE_NS6_14EqualsComparerINS0_8equal_toIS5_EEEENS0_9allocatorISA_EEE9SelectKeyESJ_SL_E12test_deletedERK24dense_hashtable_iteratorISA_S6_SE_SN_SJ_SL_E
cy:__ZL58__ManagedRegistrationHelperFunction_AudioClipPlayableProxyPv
xMc:__ZN8JSONRead21TransferSTLStyleArrayI13dynamic_arrayIdLj0EEEEvRT_17TransferMetaFlags
NXb:__Z13IsNodeVisibleRK9SceneNodeRK4AABBRK22SceneCullingParameters
Qdk:_Array_InternalArray__IndexOf_TisLabelFixup_t858502054_m1491765395_gshared
f_k:__Z44RuntimeInvoker_RuntimeTypeHandle_t3027515415PFvvEPK10MethodInfoPvPS4_
Chh:__ZN21InterfaceFuncInvoker1IibE6InvokeEjP11Il2CppClassP12Il2CppObjectb
arf:__ZN30GenericInterfaceActionInvoker1IP20Delegate_t1188392813E6InvokeEPK10MethodInfoP12Il2CppObjectS1_
tMk:_SortKeyBuffer_AppendCJKExtension_m2591091991
rhe:__ZN17Image_t267026965137set_m_AlphaHitTestMinimumThreshold_40Ef
TJm:__ZN19X509Crl_t114876738813set_entries_4EP21ArrayList_t2718874744
frl:_UTF8Encoding_GetByteCount_m4153686982
uNn:__ZN15dense_hashtableINSt3__24pairIK10KeyWrapperIPK22Il2CppGenericParameterEP11Il2CppClassEES6_N6il2cpp5utils11PointerHashIS4_EEN14dense_hash_mapIS6_S9_SE_NS6_14EqualsComparerINS0_8equal_toIS5_EEEENS0_9allocatorISA_EEE9SelectKeyESJ_SL_E3endEv
tJn:__ZN27ContactFilter2D_t380520344115set_layerMask_6E21LayerMask_t3493934918
Y5o:_emscripten_glStencilMask__wrapper
yXg:__Z41InternalEnumerator_1_MoveNext_m2577879725P32InternalEnumerator_1_t4031039755PK10MethodInfo
mVn:__ZN15dense_hashtableI10KeyWrapperIPK19Il2CppGenericMethodES4_N6il2cpp8metadata23Il2CppGenericMethodHashEN14dense_hash_setIS4_S7_NS4_14EqualsComparerINS6_26Il2CppGenericMethodCompareEEENSt3__29allocatorIS4_EEE8IdentityESB_SE_EC2ERKSH_j
woi:__ZNK23CipherSuite_t341474457518get_isExportable_6Ev
rRn:__ZNK15dense_hashtableINSt3__24pairIK10KeyWrapperIPK11Il2CppClassEPKcEES6_N6il2cpp5utils11PointerHashIS3_EEN14dense_hash_mapIS6_S9_SE_NS6_14EqualsComparerINS0_8equal_toIS5_EEEENS0_9allocatorISA_EEE9SelectKeyESJ_SL_E8min_sizeEjj
dIe:__ZL66RuntimePlatform_t4159857903_CustomAttributesCacheGenerator_XBOX360P21CustomAttributesCache
y6a:__ZNK17ArchiveFileSystem8PositionERK13FileEntryData
p2g:_InternalEnumerator_1_Dispose_m3577625655_gshared
RUb:__Z17PrepareShadowMapsRK11CullResultsRK11ActiveLightRK10MinMaxAABB
$Fm:_DeriveBytes_DeriveIV_m973925711
tfj:_Int32_System_IConvertible_ToSByte_m3133688512
pkn:_IndexedSet_1__ctor_m2250384602_gshared
z_m:__Z25Il2CppCodeGenWriteBarrierI17List_1_t391719016EvPPT_S2_
qfm:_List_1_System_Collections_IList_Add_m1681258361_gshared
A2l:_ReadOnlyCollection_1_System_Collections_IList_IndexOf_m848971554_gshared
Tun:_AudioSampleProvider_get_id_m2692334523
oVb:__ZN9ShaderLab10GrabPassesD2Ev
ago:__ZN10KeyWrapperINSt3__24pairIPK10MethodInfoP11Il2CppClassEEEC2ENS8_11KeyTypeEnumE
aPa:__ZN14Texture2DArray13UploadTextureEv
gFg:_MaskableGraphic_UpdateCull_m2805101913
AKk:__ZN26SimpleCollator_t287783472928get_address_of_cjkLv1Table_5Ev
fjd:_tt_cmap14_done
QX:__ZN18AwakeFromLoadQueue25RegisterObjectInstanceIDsEv
Oea:__ZN9Scripting11UnityEngine9RectProxy12CleanupProxyEv
Ssg:_InputField_UpdateLabel_m1837760870
Vt:__ZN9Scripting11UnityEngine10Animations21LookAtConstraintProxy12CleanupProxyEv
Nmj:__ZNK27NumberFormatter_t118292462115get__infinity_9Ev
p6g:__ZNK32InternalEnumerator_1_t37800294199get_idx_1Ev
JUn:__ZNK15dense_hashtableI10KeyWrapperIPK17Il2CppGenericInstES4_N6il2cpp8metadata21Il2CppGenericInstHashEN14dense_hash_setIS4_S7_NS4_14EqualsComparerINS6_24Il2CppGenericInstCompareEEENSt3__29allocatorIS4_EEE8IdentityESB_SE_E3endEv
Myn:__ZL25UnresolvedVirtualCall_180P12Il2CppObjectffaPK10MethodInfo
cbd:__ZN20TextRenderingPrivate19NativeTextGenerator15InsertCharacterEiPj
lhf:__Z25Il2CppCodeGenWriteBarrierI12MethodInfo_tEvPPT_S2_
Uno:__ZN10KeyWrapperINSt3__24pairIP11Il2CppClassjEEEC2ERKS4_
v$k:__Z77RuntimeInvoker_Void_t1185182177_RuntimeObject_SByte_t1669577662_RuntimeObjectPFvvEPK10MethodInfoPvPS4_
f0k:__Z81RuntimeInvoker_Void_t1185182177_RuntimeObject_SByte_t1669577662_SByte_t1669577662PFvvEPK10MethodInfoPvPS4_
Tgh:__Z44InternalEnumerator_1_get_Current_m1477715453P31InternalEnumerator_1_t334410285PK10MethodInfo
A2k:__Z97RuntimeInvoker_RuntimeObject_RuntimeObject_RuntimeObject_RuntimeObject_ObjectU5BU5DU26_t712384779PFvvEPK10MethodInfoPvPS4_
xwo:__ZN10KeyWrapperINSt3__24pairIPKcS3_EEEC2ENS5_11KeyTypeEnumE
QRc:__ZN11b2RopeJoint24SolveVelocityConstraintsERK12b2SolverData
Z_m:_GUIContent_ClearStaticCache_m1205116045
Nlm:_List_1_System_Collections_IList_get_IsFixedSize_m203251153_gshared
WZj:_WindowsIdentity_Dispose_m3466258450
Lpn:__ZNK32Vector3_t3722313464_StaticFields14get_upVector_7Ev
dbi:_ArrayListWrapper_Sort_m1587743350
QPd:__Z22List_1_Add_m1435462754P18List_1_t2475741330P23EventSystem_t1003666588PK10MethodInfo
uHf:_BinaryCommon__cctor_m2978407547
FVf:__ZNK24DESTransform_t408890549915get_byteBuff_17Ev
IP:__GLOBAL__sub_I_Runtime_Burst_0_cpp
vTb:__Z19GetReflectionSampleRK23ReflectionProbesContextRK22ActiveReflectionProbesRK27PerObjectLightCullingOutputRK10RenderNodejP16ReflectionSample
R9k:__Z77RuntimeInvoker_GraphicsFormat_t3787950389_Int32_t2950945753_SByte_t1669577662PFvvEPK10MethodInfoPvPS4_
Gxn:__ZL25UnresolvedVirtualCall_120P12Il2CppObjectssiPK10MethodInfo
boe:__ZL47ASN1_t2114160832_CustomAttributesCacheGeneratorP21CustomAttributesCache
nro:__ZN6il2cpp6icalls8mscorlib6System2IO6MonoIO20GetFileSystemEntriesEP12Il2CppStringS6_iiPi
Glg:__ZN23InterfaceActionInvoker1IP25RectTransform_t3704657025E6InvokeEjP11Il2CppClassP12Il2CppObjectS1_
eCj:__ZNK43DateTimeFormatInfo_t2405853701_StaticFields18get_MSG_READONLY_1Ev
XAl:_UInt16_TryParse_m4139137016
Pwc:__Z41MonoBehaviour_Set_Custom_PropUseGUILayoutP12Il2CppObjecth
fFo:__ZN6il2cpp5utils13dynamic_arrayIPNS_2os6ThreadELj4EE9push_backEv
BEo:__ZN6il2cpp2gc16GarbageCollector9FreeFixedEPv
MVk:__ZNK30SymmetricTransform_t380259184218get_FeedBackIter_8Ev
O6j:_Encoding__ctor_m2997749867
H9f:_ManagedStreamHelpers_ManagedStreamSeek_m3158782053
Xfn:__Z28Dictionary_2_Add_m2942821800P24Dictionary_2_t2865362463P8String_tP12Il2CppObjectPK10MethodInfo
oUm:_ExpressionAssertion_Compile_m2166597834
igb:__ZN16ScriptingManagerD0Ev
e0j:_Single_System_IConvertible_ToSByte_m1208276900_AdjustorThunk
nKo:__ZN6il2cpp6icalls8mscorlib6System7Convert24InternalFromBase64StringEP12Il2CppStringb
xDk:__Z65Enumerator_System_Collections_IEnumerator_get_Current_m1643543708P22Enumerator_t3436819725PK10MethodInfo
yqk:_EqualityComparer_1__ctor_m2241711498_gshared
vRf:_RuntimeFieldHandle_GetObjectData_m95767031_AdjustorThunk
iue:__ZL58ChannelServices_t3942013484_CustomAttributesCacheGeneratorP21CustomAttributesCache
hwo:__ZN30dense_hashtable_const_iteratorINSt3__24pairIK10KeyWrapperINS1_IPKcS4_EEEiEES6_24NamespaceAndNamePairHashN14dense_hash_mapIS6_iS9_NS6_14EqualsComparerI26NamespaceAndNamePairEqualsEENS0_9allocatorIS8_EEE9SelectKeyESD_SF_EppEv
Lyc:__Z44Register_UnityEngine_Component_get_transformv
Eco:__ZNK24dense_hashtable_iteratorINSt3__24pairIK10KeyWrapperINS1_IPK9EventInfoP11Il2CppClassEEEjEES9_17ReflectionMapHashIS8_EN14dense_hash_mapIS9_jSD_NS9_14EqualsComparerINS0_8equal_toIS8_EEEENS0_9allocatorISB_EEE9SelectKeyESI_SK_EneERKSN_
Xjl:__Z48RuntimeInvoker_Void_t1185182177_Link_t3209266973PFvvEPK10MethodInfoPvPS4_
IGc:__Z35GUIStyle_Get_Custom_PropFixedHeightP12Il2CppObject
vpb:__ZL26Transfer_SimpleNativeClassI19StreamedBinaryWrite8GradientLb1EEvRK29SerializationCommandArgumentsR31RuntimeSerializationCommandInfo
Kbe:__ZNK42FontUpdateTracker_t1839077620_StaticFields15get_m_Tracked_0Ev
JDn:_CanvasRenderer_get_absoluteDepth_m2703237819
mGj:_TextInfo_ToLower_m2744057472
nKb:__ZN17ArchiveFileSystem12MountArchiveEPKcS1_
LSn:__ZN14dense_hash_mapI10KeyWrapperIP9FieldInfoEiN6il2cpp5utils11PointerHashIS1_EENS3_14EqualsComparerINSt3__28equal_toIS2_EEEENS9_9allocatorINS9_4pairIKS3_iEEEEE15set_deleted_keyERSF_
a5m:_GameManager_EndingCredits_m2334116473
Ktk:_EqualityComparer_1_System_Collections_IEqualityComparer_Equals_m3977314386_gshared
mdh:__ZNK32InternalEnumerator_1_t318664610611get_array_0Ev
KIc:__Z18Transfer_BlittableI9JSONWriteLb1E8Vector4fEvRK29SerializationCommandArgumentsR31RuntimeSerializationCommandInfo
cX:__Z11RequireTypePKcS0_S0_
Cxj:_CCGregorianCalendar_year_from_fixed_m463929682
rud:__ZN2UI13CanvasManagerD0Ev
wbi:_ReadOnlyArrayListWrapper_Sort_m2577012511
b_f:_Debug_get_unityLogger_m2239795986
NXl:_ReadOnlyCollection_1_System_Collections_IEnumerable_GetEnumerator_m2123446296_gshared
iji:_MD2Managed_Initialize_m2341076836
xvf:__ZN14MonoProperty_t12set_cached_3Ei
faf:__ZNK23TypeBuilder_t107394815414get_pmodule_24Ev
x2l:_ReadOnlyCollection_1_System_Collections_IList_Add_m4240023232_gshared
rFj:__ZNK22RegionInfo_t109027022614get_iso2Name_3Ev
Ubb:__ZN9GfxDevice15ImmediateVertexEfff
eNe:__ZL56PreLateUpdate_t3194249939_CustomAttributesCacheGeneratorP21CustomAttributesCache
kPa:__ZNK16LightmapSettings22GetTypeVirtualInternalEv
Y1c:__ZN17Physics2DSettings8TransferI19StreamedBinaryWriteEEvRT_
Joh:__Z34Enumerator_VerifyCurrent_m93918543P22Enumerator_t2086727927PK10MethodInfo
Iwa:__ZN16GraphicsSettings13AwakeFromLoadE17AwakeFromLoadMode
Veo:__ZN30dense_hashtable_const_iteratorINSt3__24pairIK10KeyWrapperIPK14Il2CppAssemblyEPK22Il2CppMonoAssemblyNameEES6_N6il2cpp5utils11PointerHashIS4_EEN14dense_hash_mapIS6_SA_SF_NS6_14EqualsComparerINS0_8equal_toIS5_EEEENS0_9allocatorISB_EEE9SelectKeyESK_SM_EppEv
Kca:__ZL49__ManagedRegistrationHelperFunction_GPUFenceProxyPv
YPn:__ZN20TileData_t204239423920set_m_ColliderType_5Ei
hq:__ZN6Object13AwakeFromLoadE17AwakeFromLoadMode
NAb:__ZN13GfxDeviceGLES15SetStencilStateEPK18DeviceStencilStatei
tMj:__ZN28GenericInterfaceFuncInvoker3IiP22ByteU5BU5D_t4116647657iiE6InvokeEPK10MethodInfoP12Il2CppObjectS1_ii
IWh:_Buffer_BlockCopyInternal_m418318694
MXo:_cycle
zSe:__ZL138SupportedRenderingFeatures_t353898663_CustomAttributesCacheGenerator_SupportedRenderingFeatures_get_supportedLightmapBakeTypes_m1596512019P21CustomAttributesCache
dKo:__ZN6il2cpp2vm8Profiler7GCEventE13Il2CppGCEvent
v_k:__Z76RuntimeInvoker_Void_t1185182177_RuntimeObject_RuntimeFieldHandle_t1871169219PFvvEPK10MethodInfoPvPS4_
h$d:__ZNK26BaseMeshEffect_t244017643915get_m_Graphic_4Ev
nla:__ZN11SpriteAtlas23VirtualRedirectTransferER18StreamedBinaryRead
Zba:__ZL50__ManagedRegistrationHelperFunction_LayerMaskProxyPv
gEh:__ZNK25ConfigHandler_t419243721625get_currentProviderData_3Ev
HVn:__ZNSt3__218uninitialized_fillIP10KeyWrapperIPK19Il2CppGenericMethodES5_EEvT_S7_RKT0_
BLn:__ZN35StaticAccessorAttribute_t243266390231set_U3CNameU3Ek__BackingField_0EP8String_t
Gh:_emscripten_glUniform1iv
peb:__ZN13ComputeShader14SetBufferParamEjRKN9ShaderLab16FastPropertyNameE15ComputeBufferIDb
Xul:_Thread_get_ManagedThreadId_m1068113671
jUc:__ZN15b2DistanceProxy3SetEPK7b2Shapei
S6i:__ZN38X509Certificate2Enumerator_t331671381216set_enumerator_0EP12Il2CppObject
K8a:__ZN16MemoryFileSystemD2Ev
M_k:__Z150RuntimeInvoker_Int32_t2950945753_RuntimeObject_Int32_t2950945753_Int32_t2950945753_RuntimeObject_Int32_t2950945753_Int32_t2950945753_Int32_t2950945753PFvvEPK10MethodInfoPvPS4_
VIf:__ZNK27BaseFixupRecord_t318565345623get_NextSameContainer_2Ev
_Dc:__ZN9Scripting11UnityEngine13GUIStyleProxy12CleanupProxyEv
VUn:__ZNSt3__218uninitialized_fillIP10KeyWrapperIPK17Il2CppGenericInstES5_EEvT_S7_RKT0_
G0n:__ZN6il2cpp2vmL15InitPollRequestER6pollfdP23Il2CppSocketAsyncResultRNS_2os19SocketHandleWrapperE
JNf:__Z25Il2CppCodeGenWriteBarrierI34SerializationCallbacks_t2570604627EvPPT_S2_
O3h:_Array_SetValue_m394135409
xfo:__ZN15dense_hashtableINSt3__24pairIK10KeyWrapperIPK22Il2CppGenericParameterEPK24MonoGenericParameterInfoEES6_N6il2cpp5utils11PointerHashIS4_EEN14dense_hash_mapIS6_SA_SF_NS6_14EqualsComparerINS0_8equal_toIS5_EEEENS0_9allocatorISB_EEE9SelectKeyESK_SM_E12expand_arrayEjN21dense_hash_map_traits17integral_constantIbLb0EEE
iVg:_InternalEnumerator_1_System_Collections_IEnumerator_Reset_m81420524_AdjustorThunk
v_c:__ZN29b2InitializeContactSolverTask7TaskJobEPS_j
b$:__ZN14FileCacherReadD2Ev
zsm:__Z34Enumerator_get_Current_m2282646120P22Enumerator_t1862690208PK10MethodInfo
pol:__Z92RuntimeInvoker_RuntimeObject_SByte_t1669577662_SByte_t1669577662_RuntimeObject_RuntimeObjectPFvvEPK10MethodInfoPvPS4_
tQj:_StringReader_Read_m3322058819
Lyh:_CrossAppDomainChannel_get_ChannelPriority_m3418073750
Yok:_EqualityComparer_1__ctor_m1860346363_gshared
iyg:_Selectable_StartColorTween_m3618813981
aJj:_BinaryWriter_Write_m973309864
E$d:__ZN44U3COnFinishSubmitU3Ec__Iterator0_t341343890013set_U24this_2EP18Button_t4055032469
yqf:_EventInfo__ctor_m3033129999
$vn:__ZL24UnresolvedVirtualCall_33P12Il2CppObjectiS0_S0_PK10MethodInfo
g_l:_ReadOnlyCollection_1_System_Collections_Generic_ICollectionU3CTU3E_get_IsReadOnly_m2788045022_gshared
Bmc:__ZN15ApplicationInfo16GetInstallerNameEv
U2b:__Z23ConvertIntegerToTypePtrItEbPvR14SafeBinaryRead
xQi:_Delegate_CombineImpl_m3572135514
Ocj:_NumberFormatter_IntegerToString_m1679294587
hDf:__ZN22SafeHandle_t327338895112set_handle_0Ei
mTj:_SHA256Managed_AddLength_m1060552216
F$l:_ReadOnlyCollection_1_System_Collections_IList_RemoveAt_m422909114_gshared
qh:_emscripten_glStencilFunc
EMf:_CodeGenerator_EmitWrite_m1452031614
Avn:__ZL23UnresolvedVirtualCall_6P12Il2CppObjectiPK10MethodInfo
twn:__ZL24UnresolvedVirtualCall_53P12Il2CppObjectPK10MethodInfo
SX:__ZN18AwakeFromLoadQueueD2Ev
HXd:__Z46il2cpp_codegen_get_marshal_directive_exceptionPKc
m7l:__ZN22Nullable_1_t260372133115set_has_value_1Eb
K9b:__ZN9ShaderLab20SerializedSubProgram14AddMatrixParamEPKcii15ShaderParamTypei
Ean:__ZN42U3CModifyGravityU3Ec__Iterator1_t93417634811set_U24PC_4Ei
nk:_glGetActiveUniformBlockName
I0e:__ZL90PointerEventData_t3807901092_CustomAttributesCacheGenerator_U3CpointerIdU3Ek__BackingFieldP21CustomAttributesCache
pYk:__Z67RuntimeInvoker_Int32_t2950945753_RuntimeObject_Int32U26_t1369213839PFvvEPK10MethodInfoPvPS4_
QHd:__GLOBAL__sub_I_UnityWebRequestScriptingClasses_cpp
dRm:_Parser_IsIgnoreCase_m2210120858
WRo:__ZN6il2cpp2vm13WeakReference14QueryInterfaceERK10Il2CppGuidPPv
LQl:_Mesh_GetAllocArrayFromChannel_TisVector2_t2156229523_m1057679375_gshared
BKd:__ZN9Scripting11UnityEngine5Video16VideoPlayerProxy9InitProxyEv
qCo:__ZN6il2cpp2os5posix13PosixAutoLockD2Ev
A_n:__ZN6il2cpp2vm13MetadataCache28GetGenericContainerFromIndexEi
U0a:__ZN27UnloadUnusedAssetsOperationD0Ev
Tej:__ZN27NumberFormatter_t118292462117set__specifier_13EDs
xA:__ZN4FMOD7Channel20set3DConeOrientationEP11FMOD_VECTOR
Hn:FUNCTION_TABLE_iiifii
lYd:_StandaloneInputModule_set_inputActionsPerSecond_m4057208843
Urj:_AssemblyBuilder_not_supported_m1735277432
Nbh:_InternalEnumerator_1_MoveNext_m1344185775_AdjustorThunk
yBo:__ZN6il2cpp2vm12GenericClass11SetupEventsEP11Il2CppClass
ild:_tt_delta_interpolate
Ihf:__ZN24ModuleBuilder_t73188769116set_assemblyb_16EP26AssemblyBuilder_t359885250
Ejd:_tt_cmap12_get_info
Guo:__ZN6il2cpp2vm15ReboxIReferenceEP14Il2CppIUnknownP11Il2CppClass
zVl:_Collection_1_Contains_m1707523067_gshared
vEk:_Enumerator__ctor_m2029608698_AdjustorThunk
APi:_Decimal_ToString_m1815393864_AdjustorThunk
T7d:__Z25Il2CppCodeGenWriteBarrierI26OptionDataList_t1438173104EvPPT_S2_
zLh:_CADMethodCallMessage_GetArguments_m3041854375
wIn:__ZN6il2cpp6icalls8mscorlib6System7Decimal14decimalCompareEP19il2cpp_decimal_reprS5_
Oik:_Dictionary_2_OnDeserialization_m4209543208_gshared
YKo:__ZThn4_N6il2cpp2vm13CachedCCWBaseINS0_13ManagedObjectEE7ReleaseEv
fQi:__ZN20Delegate_t118839281323get_address_of_method_3Ev
wGl:_RNGCryptoServiceProvider_GetNonZeroBytes_m1918423726
JYn:__ZL29ConvertPackingSizeEnumToValue11PackingSize
X8k:__Z100RuntimeInvoker_Void_t1185182177_RuntimeObject_Int32_t2950945753_Int32_t2950945753_UInt16_t2177724958PFvvEPK10MethodInfoPvPS4_
Oap:_glCopyTexImage2D__wrapper
h5c:__ZN16PhysicsManager2D11CreateWorldERK8Vector2f
hAe:__ZL62ArithmeticException_t4283546778_CustomAttributesCacheGeneratorP21CustomAttributesCache
dVe:__ZL108TextGenerator_t3211863866_CustomAttributesCacheGenerator_TextGenerator_get_characterCountVisible_m3790045314P21CustomAttributesCache
Dxb:__Z18ClearByDrawingQuad13GfxClearFlagsRK10ColorRGBAffjR17ShaderPassContext
n8:__ZN6prcoreL17RemapGenericFloatI14TexFormatRHalf15TexFormatRFloatEEvPKNS_9InnerInfoE
Dej:_NumberFormatter_FormatExponential_m2139559983
vre:__ZL82Assembly_t_CustomAttributesCacheGenerator_Assembly_LoadWithPartialName_m3387477452P21CustomAttributesCache
W4:__ZN15DirectorManager21RebuildStageCallbacksEv
Bqd:__ZN21TilemapRefCountedDataI10ColorRGBAfE8TransferI14SafeBinaryReadEEvRT_
e_f:_Application_Internal_ApplicationQuit_m2936209313
wpd:__ZN9Scripting11UnityEngine8Tilemaps22TileAnimationDataProxy9InitProxyEv
wDb:__ZN7ApiGLES10DrawArraysE16GfxPrimitiveTypejjj
kWg:_InternalEnumerator_1_MoveNext_m154749640_gshared
dyc:__Z45Register_UnityEngine_SpriteRenderer_set_flipXv
sE:__ZN10SampleClip13LoadBaseSoundEv
x0h:_SmallXmlParser_SkipWhitespaces_m4243606597
Qei:__ZNK21Hashtable_t185388976614get_hashKeys_7Ev
Fca:__ZL50__ManagedRegistrationHelperFunction_TransformProxyPv
$Eo:___cxx_global_var_init_2_45778
Qnn:__ZNK23WorkRequest_t135451861224get_m_DelagateCallback_0Ev
tai:_ArrayList_Sort_m4234055499
ZZc:__ZN43b2SolveVelocityConstraintsContactSolverTaskD0Ev
Ojb:__ZN14SafeBinaryRead21TransferSTLStyleArrayI13dynamic_arrayI10Matrix4x4fLj0EEEEvRT_17TransferMetaFlags
hMh:_MethodCall__ctor_m3669645
OQd:_TriggerEvent__ctor_m87299207
n7k:__Z48RuntimeInvoker_ExchangeAlgorithmType_t1320888206PFvvEPK10MethodInfoPvPS4_
cI:__Z57AudioSource_CUSTOM_INTERNAL_CALL_ClearExtensionPropertiesP12Il2CppObjectRK12PropertyName
lBo:__ZN15dense_hashtableINSt3__24pairIK10KeyWrapperIP12Il2CppObjectEN6il2cpp2gc9CachedCCWEEES5_NS7_5utils11PointerHashIS3_EEN14dense_hash_mapIS5_S9_SD_NS5_14EqualsComparerINS0_8equal_toIS4_EEEENS0_9allocatorISA_EEE9SelectKeyESI_SK_E15insert_noresizeERKSA_
kZm:_GUILayoutUtility_BeginWindow_m2240221150
xni:_CertificateValidationCallback2__ctor_m1685875113
Q$g:__ZNK32InternalEnumerator_1_t150172948011get_array_0Ev
uFa:__ZN22DeviceMVPMatricesStateC2ER9GfxDevice
czi:_SslClientStream_Finalize_m1251363641
T8e:__ZL78U3CPlayEndingCreditsU3Ec__Iterator3_t1608143270_CustomAttributesCacheGeneratorP21CustomAttributesCache
ePb:__ZNK6Camera32ResolveLastTargetToCurrentTargetEv
Oni:__ZN23CipherSuite_t341474457527set_exchangeAlgorithmType_5Ei
j3f:_Logger_set_logEnabled_m1180597166
odn:__ZN24EventTrigger_t252745169518set_m_RepeatTime_7Ef
edi:_Comparer_Compare_m3984347512
er:__ZN17CallbackArrayBaseIPFviR18AwakeFromLoadQueue16SceneLoadingModeEPFvPKviS1_S2_EE8RegisterES4_S8_S6_
cRk:__ZN26BlockProcessor_t185103122516set_blockCount_3Ei
rho:__ZN6il2cpp2vm10Reflection12HasAttributeEP9FieldInfoP11Il2CppClass
Zb:invoke_viiifi
Vci:__Z25Il2CppCodeGenWriteBarrierI23CultureInfo_t4157843068EvPPT_S2_
Svf:_MonoProperty_GetCustomAttributes_m3619796755
R4g:_InternalEnumerator_1_MoveNext_m4132713223_AdjustorThunk
sPh:_MethodDictionary_System_Collections_IEnumerable_GetEnumerator_m4169036899
q0h:__ZN23InterfaceActionInvoker2IP8String_tP12Il2CppObjectE6InvokeEjP11Il2CppClassS3_S1_S3_
xdn:_AnalyticsEventTracker_get_payload_m308762692
AUk:__Z25Il2CppCodeGenWriteBarrierI36KeyGeneratedEventHandler_t3064139577EvPPT_S2_
Bxl:_TimeSpan_Subtract_m1264203589
CGd:__ZN19BaseConnectSettings13SetEnabledRawEb
gIh:_CrossContextChannel__ctor_m3755842292
Xmk:_DefaultComparer_Equals_m3257444875_gshared
eHa:__ZN10Matrix4x4f8TransferI19StreamedBinaryWriteEEvRT_
Rc:_JS_Sound_SetPosition
qMd:__ZNK23EventSystem_t100366658826get_m_CurrentInputModule_5Ev
i_n:__ZL13GetSharedInstPK17Il2CppGenericInst
k1e:__ZL98PointerEventData_t3807901092_CustomAttributesCacheGenerator_PointerEventData_get_delta_m1062010255P21CustomAttributesCache
Icj:__ZN27NumberFormatter_t118292462113set__thread_6EP18Thread_t2300836069
Yva:__Z27ConvertSubMeshesToTrianglesIjEvR13dynamic_arrayI7SubMeshLj0EERS0_IhLj0EE
Tlg:_RenderTexture_Internal_Create_m347030155
iFh:__ZNK29SoapTypeAttribute_t175093081716get__isElement_9Ev
Ylf:__ZN31OpCodes_t126150456_StaticFields15set_Ldind_R8_78E17OpCode_t123070264
OWb:__Z17PrepareSceneNodesP11CullResults
AYg:_InternalEnumerator_1_get_Current_m476140818_gshared
N1d:__ZNK40ClipperRegistry_t2428680409_StaticFields16get_s_Instance_0Ev
Z5g:_InternalEnumerator_1_Dispose_m887344916_gshared
llm:_List_1_Sort_m4240158523_gshared
OGl:__ZN36RSACryptoServiceProvider_t268351287415set_persisted_4Eb
Hgf:__ZN25ParameterInfo_t186105659815set_ClassImpl_0EP6Type_t
Vlk:__ZNK23Dictionary_2_t13254515212get_count_10Ev
X6c:__ZL55__ManagedRegistrationHelperFunction_SphereColliderProxyPv
wuc:__Z57Register_UnityEngine_RectTransform_set_sizeDelta_Injectedv
A_d:_AnimationTriggers_set_disabledTrigger_m933056574
Fhm:_List_1_Add_m238442097_gshared
Ksc:__ZN9TextAsset7SetTextERKN4core12basic_stringIcNS0_20StringStorageDefaultIcEEEE
Jqa:__ZN6Camera8TransferI24GenerateTypeTreeTransferEEvRT_
yJ:__Z18RegisterUnityClassI12AudioManagerEvPKc
db:invoke_iiiiiiif
eb:invoke_iiiiiiii
YJl:_Array_InternalArray__set_Item_TisByte_t1134296376_m3104140039_gshared
S4i:__ZN38X509ChainElementEnumerator_t301425345616set_enumerator_0EP12Il2CppObject
ixc:__Z56Register_UnityEngine_MonoBehaviour_IsObjectMonoBehaviourv
rkg:_Rect_ToString_m447614148
waa:__ZL83__ManagedRegistrationHelperFunction_NativeDisableUnsafePtrRestrictionAttributeProxyPv
kHm:_PKCS12_GetBytes_m415958948
sri:_Context_get_HandshakeState_m2425796590
_Mb:__ZN8Renderer17PendingAddToSceneEv
vVl:_Collection_1_System_Collections_IList_set_Item_m2625856224_gshared
Eap:b122
Tap:b125
Map:b124
bbp:b127
_ap:b126
l2n:__ZN6il2cpp5utils10functional6FilterINSt3__212basic_stringIcNS3_11char_traitsIcEENS3_9allocatorIcEEEENS0_13VmStringUtils21CaseSensitiveComparerEEC2ES9_SB_
S1j:_String_CompareOrdinalCaseInsensitiveUnchecked_m2925624579
Pbg:_Mesh_SetSizedArrayForChannel_m2565120436
OW:__Z21PostprocessStacktracePKcRN4core12basic_stringIcNS1_20StringStorageDefaultIcEEEE
NUe:__ZL73ContactFilter2D_t3805203441_CustomAttributesCacheGenerator_minNormalAngleP21CustomAttributesCache
Zto:__ZN15dense_hashtableINSt3__24pairIK10KeyWrapperIP14Il2CppIUnknownEjEES5_N6il2cpp5utils11PointerHashIS3_EEN14dense_hash_mapIS5_jSB_NS5_14EqualsComparerINS0_8equal_toIS4_EEEENS0_9allocatorIS7_EEE9SelectKeyESG_SI_E12expand_arrayEjN21dense_hash_map_traits17integral_constantIbLb0EEE
I9f:_ManagedStreamHelpers_ManagedStreamLength_m2930872960
v1d:__ZN21InterfaceFuncInvoker0IbE6InvokeEjP11Il2CppClassP12Il2CppObject
Ksj:__ZNK30ConstructorBuilder_t281352410810get_type_8Ev
EMj:_FileStreamAsyncResult_CBWrapper_m1670848754
tzi:__ZN21Enumerator_t66135868610set_mode_4Ei
Neg:__ZN28MessageEventArgs_t117057578414set_playerId_0Ei
J1d:___clang_call_terminate
pu:__ZN16MecanimAnimation25RegisterIAnimationBindingEPKN5Unity4TypeEiP17IAnimationBinding
aqc:__ZNSt3__26vectorIj13stl_allocatorIjL18MemLabelIdentifier1ELi16EEE6assignIPKtEENS_9enable_ifIXaasr21__is_forward_iteratorIT_EE5valuesr16is_constructibleIjNS_15iterator_traitsIS9_E9referenceEEE5valueEvE4typeES9_S9_
mGb:__ZL25ProgramUniformMatrix4x3fvPK7ApiGLESjiihPKv
l2b:__Z29StdTemplateConversionFunctionIsiEbPvR14SafeBinaryRead
DNc:__ZN8JSONRead21TransferSTLStyleArrayI13dynamic_arrayI10ColorRGBAfLj0EEEEvRT_17TransferMetaFlags
gMb:__ZN12InputManager13InputEndFrameEv
N2n:__ZNSt3__26__treeIP11Il2CppClassNS_4lessIS2_EENS_9allocatorIS2_EEE25__emplace_unique_key_argsIS2_JRKS2_EEENS_4pairINS_15__tree_iteratorIS2_PNS_11__tree_nodeIS2_PvEEiEEbEERKT_DpOT0_
KOf:__ZNK24ObjectWriter_t296840623118get_arrayBuffer_11Ev
i2f:_Object_get_name_m4211327027
nlo:__ZN6il2cpp2vm6Thread5SetupEP12Il2CppThread
i9n:__ZN14dense_hash_mapI10KeyWrapperINSt3__24pairIPK10MethodInfoP11Il2CppClassEEEj17ReflectionMapHashIS8_ENS9_14EqualsComparerINS1_8equal_toIS8_EEEENS1_9allocatorINS2_IKS9_jEEEEE3endEv
O3o:_pthread_cond_wait__wrapper
hZl:_ReadOnlyCollection_1_System_Collections_IList_get_IsReadOnly_m1248651675_gshared
dph:_Enumerator_System_Collections_IDictionaryEnumerator_get_Key_m2500634048_gshared
bRe:__ZL82NativeMatchesParallelForLengthAttribute_t1813325102_CustomAttributesCacheGeneratorP21CustomAttributesCache
KFj:_SortKey_Compare_m1705990888
KBn:_TextGenerator_t3211863866_marshal_pinvoke_back
YXo:___munmap
ywg:__ZNK16Text_t190188271418get_m_TextCache_32Ev
Yl:_localtime_r
OCf:_InterfaceTypeAttribute__ctor_m3307583035
Y2g:_InternalEnumerator_1_System_Collections_IEnumerator_Reset_m3619766341_AdjustorThunk
jGa:__ZN14SafeBinaryRead21TransferSTLStyleArrayI13dynamic_arrayI12BoneWeights4Lj0EEEEvRT_17TransferMetaFlags
KXf:__ZNK16HMAC_t262110114415get__disposed_5Ev
lR:__Z19free_alloc_internalPv10MemLabelId
jve:__ZL56ReturnMessage_t1376985608_CustomAttributesCacheGeneratorP21CustomAttributesCache
nql:_UTF32Decoder_GetChars_m1925558948
ym:_strftime
GAa:__ZN7Texture33SetStoredColorSpaceNoDirtyNoApplyE17TextureColorSpace
WAf:_ResourceSet__ctor_m3618395942
KOi:_Decimal_System_IConvertible_ToDouble_m3125524987_AdjustorThunk
z$:__ZN12FileAccessorD2Ev
sYm:__ZN30Event_t2956885303_StaticFields15set_s_Current_1EP17Event_t2956885303
lwa:__ZN14VertexDataInfoC2Ev
lEo:__ZN6il2cpp2gc16GarbageCollector14CollectALittleEv
Xr:__ZN13dynamic_arrayI23TransformAccessReadOnlyLj0EE4growEv
c2g:__ZN32InternalEnumerator_1_t11949298279set_idx_1Ei
noc:__ZNK9HPlayable15GetPlayableTypeEv
sll:__Z117RuntimeInvoker_Void_t1185182177_CustomAttributeTypedArgumentU5BU5DU26_t2503877664_Int32_t2950945753_Int32_t2950945753PFvvEPK10MethodInfoPvPS4_
Xqb:__Z18Transfer_BlittableI18StreamedBinaryReadLb0EN4math12int2_storageEEvRK29SerializationCommandArgumentsR31RuntimeSerializationCommandInfo
zHg:_RectMask2D_IsRaycastLocationValid_m1652308696
DAg:__ZN23LayoutGroup_t243613809026set_m_TotalFlexibleSize_10E19Vector2_t2156229523
XT:__ZNSt3__26__treeINS_12__value_typeIPKciEENS_19__map_value_compareIS3_S4_15compare_tstringIS3_ELb1EEENS_9allocatorIS4_EEE21__emplace_unique_implIJNS_4pairIPciEEEEENSD_INS_15__tree_iteratorIS4_PNS_11__tree_nodeIS4_PvEEiEEbEEDpOT_
C3n:__ZN6il2cpp6icalls8mscorlib6SystemL9IsPrivateEPK12PropertyInfo
UTl:__ZN23InterfaceActionInvoker2IP28UILineInfoU5BU5D_t1655937503iE6InvokeEjP11Il2CppClassP12Il2CppObjectS1_i
LHm:_X501_ToString_m1148552872
Rbl:__Z96RuntimeInvoker_RuntimeObject_PlayableGraph_t3515989261_RuntimeObject_RuntimeObject_RuntimeObjectPFvvEPK10MethodInfoPvPS4_
Rkg:_RectTransform_add_reapplyDrivenProperties_m1374850920
p3f:_DebugLogHandler_Internal_LogException_m4213045108
aW:__ZN9shadertag10InitializeEv
VYf:__ZN36MD5CryptoServiceProvider_t300558604211set_count_6Ey
aLo:__ZThn8_N6il2cpp2vm13CachedCCWBaseINS0_13ManagedObjectEE7DestroyEv
WNf:__ZNK28SerializationInfo_t95087717918get_assemblyName_2Ev
G8c:__GLOBAL__sub_I_Modules_Terrain_Public_1_cpp
Rjo:_il2cpp_field_has_attribute
EMa:__ZN15QualitySettings14QualitySetting8TransferI24GenerateTypeTreeTransferEEvRT_
$fg:__ZN26PlayableHandle_t109585380315set_m_Version_1Ej
bTo:__ZN6il2cpp5utils6Memory11AlignedFreeEPv
bFm:__ZN29KeyUsageExtension_t179561591212set_kubits_3Ei
Uoi:_Context_get_ClientWriteKey_m3174706656
k0e:__ZL77ExecuteEvents_t3484638744_CustomAttributesCacheGenerator_U3CU3Ef__mgU24cache7P21CustomAttributesCache
lug:_InputField_get_textComponent_m948764648
yBc:__Z44Register_UnityEngine_Object_DestroyImmediatev
xQc:__ZL34CleanupModule_PerformanceReportingv
lJi:_Convert_ToSingle_m835189399
fem:__ZNK24UnityEvent_1_t343734582819get_m_InvokeArray_4Ev
qqo:__ZN6il2cpp6icalls8mscorlib6System10Reflection19ResourceNameMatcherC2ERKNSt3__212basic_stringIcNS5_11char_traitsIcEENS5_9allocatorIcEEEE
xlc:__ZN22BlockMemoryCacheWriter14LockCacheBlockEjPPhS1_
_1n:__ZN6il2cpp6icalls8mscorlib6System8MonoType24GetConstructors_internalEP20Il2CppReflectionTypeiS5_
eFc:__ZNSt3__218__insertion_sort_3IRPFbPKN5IMGUI9GUIWindowES4_EPPS2_EEvT0_SA_T_
$Tf:_CryptographicUnexpectedOperationException__ctor_m69881930
Ixe:__ZL73TripleDESCryptoServiceProvider_t3595206342_CustomAttributesCacheGeneratorP21CustomAttributesCache
Cvm:_Collection_1_SetItem_m1218178236_gshared
wMc:__Z22TransferField_NonArrayI8JSONRead27Converter_SimpleNativeClassI8GUIStyleEEvRK23StaticTransferFieldInfoR31RuntimeSerializationCommandInfoRT0_
Qen:__Z25Il2CppCodeGenWriteBarrierI29TrackableProperty_t3943537984EvPPT_S2_
Ol:_llvm_eh_typeid_for
Ryf:__ZN26ResourceReader_t330049263916set_readerLock_1EP12Il2CppObject
g9d:__Z28List_1_get_Count_m1106558045P17List_1_t487303889PK10MethodInfo
K3o:_glGetUniformLocation__wrapper
UOh:_RemotingServices_FindInterfaceMethod_m2125212568
J9g:__Z40InternalEnumerator_1_Dispose_m1121538879P32InternalEnumerator_1_t3467126095PK10MethodInfo
KPj:_StreamWriter__cctor_m1229272693
dTi:_Enum_System_IConvertible_ToSByte_m779472798
AOf:__ZN18VirtActionInvoker1IP22CharU5BU5D_t3528271667E6InvokeEjP12Il2CppObjectS1_
Vwn:__ZL24UnresolvedVirtualCall_81P12Il2CppObjectPK10MethodInfo
vyl:_Type_get_IsInterface_m3284996719
mYg:_InternalEnumerator_1_MoveNext_m1543390728_gshared
XUn:__ZN10KeyWrapperIPK17Il2CppGenericInstEC2ERKS2_
uQm:_RegularExpression__ctor_m119502265
Iib:__ZNSt3__26vectorI17ScriptingFieldPtr13stl_allocatorIS1_L18MemLabelIdentifier1ELi16EEE21__push_back_slow_pathIRKS1_EEvOT_
LFj:_SortKey_get_OriginalString_m1428586816
cNg:_Scrollbar_get_numberOfSteps_m1256457796
_hl:__Z51RuntimeInvoker_Void_t1185182177_Vector4_t3319028937PFvvEPK10MethodInfoPvPS4_
lFn:_AnimationOffsetPlayable_GetHandle_m449079993
bad:__ZN14SafeBinaryRead21TransferSTLStyleArrayI13dynamic_arrayIN4core17string_with_labelILi35EEELj0EEEEvRT_17TransferMetaFlags
z_k:__Z67RuntimeInvoker_Void_t1185182177_SByte_t1669577662_SByte_t1669577662PFvvEPK10MethodInfoPvPS4_
oOf:__ZN18VirtActionInvoker1IDsE6InvokeEjP12Il2CppObjectDs
Imk:_Dictionary_2_U3CCopyToU3Em__0_m2023886030_gshared
pil:__Z64RuntimeInvoker_Boolean_t97287965_RefEmitPermissionSet_t484390987PFvvEPK10MethodInfoPvPS4_
Uoh:__Z28Enumerator_Reset_m1473454555P22Enumerator_t2086727927PK10MethodInfo
y5o:_glBindVertexArray__wrapper
cKf:_SerializationInfo__ctor_m2923079689
pDd:__ZN11UnityEngine9Analytics16LimitEventConfig8TransferI8JSONReadEEvRT_
MDa:__ZN8Material8TransferI14SafeBinaryReadEEvRT_
aIa:__ZN12CubemapArray17UploadToGfxDeviceEv
o1i:__ZNK38AsnEncodedData_t382354011_StaticFields28get_U3CU3Ef__switchU24mapA_2Ev
Q$k:__Z68RuntimeInvoker_Void_t1185182177_Int32_t2950945753_Single_t1397266774PFvvEPK10MethodInfoPvPS4_
x6l:_Func_2__ctor_m1150804732_gshared
ecj:_Int32_JumpOverWhite_m208298144
nVg:__ZNK32InternalEnumerator_1_t42399320099get_idx_1Ev
nOk:__ZN35BigInteger_t2902905089_StaticFields17set_smallPrimes_2EP24UInt32U5BU5D_t2770800703
USn:__ZN15dense_hashtableINSt3__24pairIK10KeyWrapperIP9FieldInfoEiEES5_N6il2cpp5utils11PointerHashIS3_EEN14dense_hash_mapIS5_iSB_NS5_14EqualsComparerINS0_8equal_toIS4_EEEENS0_9allocatorIS7_EEE9SelectKeyESG_SI_E4swapERSL_
oVl:_Collection_1_System_Collections_ICollection_get_IsSynchronized_m2228426193_gshared
Qbn:_U3CWalkingU3Ec__Iterator0_System_Collections_Generic_IEnumeratorU3CobjectU3E_get_Current_m3791348339
M1i:__ZNK33X509KeyUsageExtension_t204210159113get__status_8Ev
H8o:_emscripten_glGetUniformiv__wrapper
RKo:__ZN6il2cpp2vm13ManagedObject14QueryInterfaceERK10Il2CppGuidPPv
vLj:__ZN28StreamAsyncResult_t7802485129set_exc_3EP11Exception_t
fB:__ZN11AudioSource4StopEb
dKn:__Z25Il2CppCodeGenWriteBarrierI18List_1_t2411569343EvPPT_S2_
z1h:_AppDomain_LoadAssembly_m1557889794
gJj:_BinaryWriter_Write_m340679106
Q4m:__Z63GameObject_GetComponent_TisLevelManager_t4033906515_m4190508867P22GameObject_t1113636619PK10MethodInfo
oLo:__ZN6il2cpp2os14WindowsRuntime13DeleteHStringEP15Il2CppHString__
Hfb:__ZN18GlslGpuProgramGLESD2Ev
M$b:__ZN13RenderTexture14SetVolumeDepthEi
rhi:__ZN23GenericVirtFuncInvoker1IbiE6InvokeEPK10MethodInfoP12Il2CppObjecti
BD:__ZN11AudioSource23VirtualRedirectTransferER19StreamedBinaryWrite
zqf:_EventInfo_get_EventHandlerType_m420690865
n8k:__Z86RuntimeInvoker_Void_t1185182177_UInt16_t2177724958_SByte_t1669577662_SByte_t1669577662PFvvEPK10MethodInfoPvPS4_
_8l:_Predicate_1_EndInvoke_m2572100896_gshared
x9b:__Z22LoadGpuProgramFromDataPKhS0_Rj
aNc:__ZN10Matrix4x4f8TransferI8JSONReadEEvRT_
mBb:__ZN13GfxDeviceGLES22AllocateBufferInternalERK13GfxBufferDesc
uPf:__ZN38CodeGenerator_t1096194562_StaticFields13set__module_1EP24ModuleBuilder_t731887691
efj:_Int32_System_IConvertible_ToByte_m3832391412_AdjustorThunk
IGg:_PositionAsUV1_ModifyMesh_m4231919476
Fei:_Hashtable__ctor_m1941859523
dig:_Quaternion_Internal_FromEulerRad_Injected_m3023241449
Xjh:_Comparer_1_get_Default_m1947376189_gshared
xKg:_ScrollRect_set_horizontalScrollbarSpacing_m2209919081
BHb:__ZN25TransformFeedbackSkinning31CleanupTransformFeedbackShadersEv
Uyl:_Type_GetTypeCodeInternal_m1968182887
uln:_TweenRunner_1_Init_m3026112660_gshared
qra:__Z22scripting_object_unbox18ScriptingObjectPtr
YBf:_CriticalFinalizerObject__ctor_m3245424448
eLh:_AsyncResult_get_NextSink_m1844209137
ebd:__ZNK20TextRenderingPrivate8FontImpl19GetCharacterAdvanceEjijfPj
Xfk:_Array_InternalArray__ICollection_Add_TisUriScheme_t722425697_m3142345403_gshared
_Wo:_fmt_u
XVj:__ZN29ToBase64Transform_t255155705716set_m_disposed_0Eb
ONl:_Dictionary_2_Do_CopyTo_TisDictionaryEntry_t3123975638_TisDictionaryEntry_t3123975638_m1126292988_gshared
gKn:_RaycastHit2D_get_point_m1586138107_AdjustorThunk
NVo:__ZN6il2cpp8metadata25Il2CppGenericClassCompare7CompareEPK18Il2CppGenericClassS4_
Svd:__ZN2UI29ResetVRScreenSpaceWarningFlagEv
Jif:__ZN24ModuleBuilder_t73188769118set_global_type_21EP23TypeBuilder_t1073948154
tlj:_MonoType_get_Assembly_m4290914179
fac:__ZN9ShaderLab7ProgramC2E10MemLabelIdi10ShaderType
V$b:__ZN14PreloadManager16UpdatePreloadingEv
opa:__ZN12BaseRendererD2Ev
N7c:__ZNK10SpriteMask21GetGlobalLayeringDataEj
$6g:_InternalEnumerator_1_System_Collections_IEnumerator_Reset_m3545912565_gshared
Isc:__ZNSt3__26vectorI4PPtrI10MonoScriptE13stl_allocatorIS3_L18MemLabelIdentifier79ELi16EEE6insertENS_11__wrap_iterIPKS3_EERS9_
k2j:_String_LastIndexOf_m95398196
Ur:__ZN13ConstraintJob23ConstraintComponentDataC2ERK16LookAtConstraint
Een:__ZN42U3CTimedTriggerU3Ec__Iterator0_t381343549418set_U24disposing_2Eb
uYi:__ZN26HttpWebRequest_t166943651513set_method_18EP8String_t
sja:__ZN9Scripting5Unity11Collections39DeallocateOnJobCompletionAttributeProxy12CleanupProxyEv
agg:_PlayableAsset__ctor_m2395156306
K1e:__ZL79StandaloneInputModule_t2760469101_CustomAttributesCacheGenerator_m_SubmitButtonP21CustomAttributesCache
E5n:__ZN6il2cpp2os4File4ReadEPNS0_10FileHandleEPciPi
h0a:__ZN19RenderBufferManager7Buffers14GarbageCollectEi
KT:__ZN13RuntimeStaticI13dynamic_arrayI22RenderingExtPluginDescLj0EELb0EE13StaticDestroyEPv
S3b:__ZNK21UnityDefaultAllocatorI17LowLevelAllocatorE8ContainsEPKv
M0n:__ZNSt3__213__vector_baseI6pollfdNS_9allocatorIS1_EEED2Ev
ZRf:_RuntimeTypeHandle_Equals_m2857439487
Xe:_emscripten_get_main_loop_timing
sOi:__ZN32Decimal_t2948259380_StaticFields14set_MinValue_0E19Decimal_t2948259380
yQ:__GLOBAL__sub_I_Runtime_PreloadManager_0_cpp
pDf:_SafeHandle_Finalize_m3866180675
Ovo:__ZNK10KeyWrapperINSt3__24pairIPKcS3_EEEcvRKS4_Ev
DMa:__ZN24GenerateTypeTreeTransfer21TransferSTLStyleArrayINSt3__26vectorIN15QualitySettings14QualitySettingENS1_9allocatorIS4_EEEEEEvRT_17TransferMetaFlags
H3l:_ReadOnlyCollection_1_System_Collections_IList_Add_m2445024939_gshared
xNj:_MemoryStream_ToArray_m3911744835
Xnh:_Enumerator_System_Collections_IDictionaryEnumerator_get_Entry_m859540448_AdjustorThunk
pUj:__ZN25SHA512Managed_t17873363399set_H5_12Ey
pde:__Z34IndexedSet_1_AddUnique_m3811577403P24IndexedSet_1_t3109723551P19Graphic_t1660335611PK10MethodInfo
Z_b:__ZN23ManagedAttributeManager52CallManagedGetParentTypeDisallowingMultipleInclusionE17ScriptingClassPtr
_Wa:__Z10AddGUIAxesR13dynamic_arrayI9InputAxisLj0EE
yVo:__ZN6il2cpp2os5Event4WaitEjb
czl:_Type_GetHashCode_m1947148725
q4j:__Z25Il2CppCodeGenWriteBarrierI26StringComparer_t3301955079EvPPT_S2_
vPb:__ZN13BatchRendererC2ER15RenderLoopStatsRK15RenderNodeQueuebbb
MRh:__ZN25ReturnMessage_t137698560818set__returnValue_4EP12Il2CppObject
u3k:__Z91RuntimeInvoker_Void_t1185182177_RuntimeObject_RuntimeObject_RuntimeObject_SByte_t1669577662PFvvEPK10MethodInfoPvPS4_
XP:__GLOBAL__sub_I_Runtime_Graphics_0_cpp
lin:_ToggleGroup_U3CActiveTogglesU3Em__1_m1947537119
q2a:__ZNK2UI13RectTransform22GetTypeVirtualInternalEv
zuh:__ZN28GenericInterfaceFuncInvoker2IP12Il2CppObjectS1_bE6InvokeEPK10MethodInfoS1_S1_b
up:getTempRet0
bLe:__ZL59LayerMask_t3493934918_CustomAttributesCacheGenerator_m_MaskP21CustomAttributesCache
sUn:__ZNK14dense_hash_setI10KeyWrapperIPK17Il2CppGenericInstEN6il2cpp8metadata21Il2CppGenericInstHashENS4_14EqualsComparerINS6_24Il2CppGenericInstCompareEEENSt3__29allocatorIS4_EEE8IdentityclERKS4_
E3g:_InternalEnumerator_1_MoveNext_m2234422530_gshared
Eqi:__Z25Il2CppCodeGenWriteBarrierI29TlsClientSettings_t2486039503EvPPT_S2_
dsj:__ZNK26AssemblyBuilder_t35988525016get_resources_16Ev
T5n:__ZN6il2cpp2gc19AppendOnlyGCHashMapINSt3__24pairIPK14Il2CppAssemblyP11Il2CppClassEEP24Il2CppReflectionAssembly17ReflectionMapHashIS9_ENS2_8equal_toIS9_EEE10CopyValuesEPv
GOd:_BaseRaycaster_OnEnable_m2678466030
U5f:_UnityEventBase__ctor_m1851535676
xMl:_Array_Sort_TisVector4_t3319028937_m2797285308_gshared
OJd:__GLOBAL__sub_I_Runtime_Vehicles_0_cpp
KRj:_UnexceptionalStreamWriter_Write_m1834931241
aOe:__ZL58ProfilerEndFrame_t852348665_CustomAttributesCacheGeneratorP21CustomAttributesCache
Plf:__ZN31OpCodes_t126150456_StaticFields15set_Ldind_I1_69E17OpCode_t123070264
Kqo:__ZN6il2cpp6icalls8mscorlib6System9ThreadingL21lookup_cached_cultureEP12Il2CppThreadi
lQo:__ZN6il2cpp2os11EventHandleD2Ev
Ndj:__ZNK27NumberFormatter_t118292462112get__val4_22Ev
Pzh:__ZNK26MethodResponse_t214751120119get__callContext_11Ev
sWb:__ZN18DeferredRenderLoopD2Ev
YEn:_AnimationLayerMixerPlayable__cctor_m4086299972
Pja:__ZNK16TypeTreeIterator4NameEv
HKe:__ZL121GraphicsFormatUtility_t3491748452_CustomAttributesCacheGenerator_GraphicsFormatUtility_GetRenderTextureFormat_m2347522639P21CustomAttributesCache
yNl:_Array_swap_TisUICharInfo_t75501106_m3934244159_gshared
Z6f:_GraphicsFormatUtility_GetRenderTextureFormat_m2347522639
gle:__ZL40UIntPtr_t_CustomAttributesCacheGeneratorP21CustomAttributesCache
Z_:__ZN15FileSystemEntry3SetEPKc
Wsj:_ConstructorBuilder_Invoke_m3010446651
F_d:_AspectRatioFitter_get_aspectMode_m3735191157
DOk:_BigInteger_ToString_m570257729
Vxc:__Z52Register_UnityEngine_Application_set_targetFrameRatev
Z_i:_IPv6Address_set_ScopeId_m3907190992
jYl:_ReadOnlyCollection_1_System_Collections_Generic_IListU3CTU3E_Insert_m568455025_gshared
fA:__ZN20SoundChannelInstance15ParameterBuffer5ApplyEPN4FMOD7ChannelE
M_i:_IPv6Address__ctor_m4117281080
cLn:__ZN33NativeMethodAttribute_t418742819342set_U3CHasExplicitThisU3Ek__BackingField_4Eb
EJk:__ZNK45MSCompatUnicodeTable_t1453885583_StaticFields12get_level1_3Ev
HIi:_Convert_ToInt64_m2075293963
bbd:__ZN20TextRenderingPrivate19NativeTextGenerator9InsertTabEv
$$o:_sbrk
Qse:__ZL92ResourceSet_t2827911187_CustomAttributesCacheGenerator_ResourceSet_GetEnumerator_m3459697719P21CustomAttributesCache
$xm:_Collection_1_System_Collections_Generic_ICollectionU3CTU3E_get_IsReadOnly_m1032650589_gshared
crb:__Z18Transfer_BlittableI18StreamedBinaryReadLb1E4AABBEvRK29SerializationCommandArgumentsR31RuntimeSerializationCommandInfo
wEh:__ZN25ConfigHandler_t419243721622set_currentClientUrl_4EP8String_t
dDd:__ZN11UnityEngine15PlatformWrapper24GetRuntimePlatformStringEv
Mk:_glIsEnabled
E1a:__ZN15CacheWriterBaseD2Ev
nxh:__Z31Enumerator_MoveNext_m3045873697P21Enumerator_t572278398PK10MethodInfo
rsj:_DerivedType__ctor_m1853298054
Fib:__Z25scripting_class_get_image17ScriptingClassPtr
bdi:_CaseInsensitiveComparer_Compare_m1224120810
Wog:_Texture_get_texelSize_m2409716740
Yfm:_List_1_RemoveAt_m2730968292_gshared
yZa:__ZNSt3__26vectorIN4core12basic_stringIcNS1_20StringStorageDefaultIcEEEE13stl_allocatorIS5_L18MemLabelIdentifier13ELi16EEEC2INS_11__wrap_iterIPS5_EEEET_SE_RKS8_PNS_9enable_ifIXaasr21__is_forward_iteratorISE_EE5valuesr16is_constructibleIS5_NS_15iterator_traitsISE_E9referenceEEE5valueEvE4typeE
$f:_emscripten_glDrawElementsInstanced
ybk:_Array_InternalArray__IEnumerable_GetEnumerator_TisSlot_t3975888750_m1869932007_gshared
IXi:__ZN25FtpWebRequest_t157781830513set_binary_10Eb
kLe:__ZL48Mathf_t3464937446_CustomAttributesCacheGeneratorP21CustomAttributesCache
zIe:__ZL79Camera_t4157153871_CustomAttributesCacheGenerator_Camera_RaycastTry_m3913529496P21CustomAttributesCache
bBg:_LayoutGroup_get_preferredWidth_m3816902260
Xza:__ZN18JobBatchDispatcherD2Ev
l2a:__ZN9Transform17MainThreadCleanupEv
yOo:_GC_clear_hdr_marks
s3o:_emscripten_glCreateShader__wrapper
Uon:__ZN32Vector2_t2156229523_StaticFields28set_negativeInfinityVector_9E19Vector2_t2156229523
F2h:__ZNK31ApplicationIdentity_t191773535615get__fullName_0Ev
Ehn:__ZNK22ToggleGroup_t12383799022get_m_AllowSwitchOff_4Ev
Kdd:_cff_fd_select_get
C5m:__ZN42U3CSunAnimationU3Ec__Iterator0_t390776827916set_U24current_2EP12Il2CppObject
TTg:__ZNK43U3CGetEnumeratorU3Ec__Iterator0_t375079332416get_U3CiU3E__0_0Ev
_8o:_emscripten_glTexParameteri__wrapper
zRg:_Text_set_resizeTextForBestFit_m4095249125
o3j:__ZN33Encoding_t1523322056_StaticFields18set_i18nAssembly_5EP10Assembly_t
D2i:_OidEnumerator_MoveNext_m3138911739
mxm:__ZNK24Collection_1_t166750607510get_list_0Ev
Bil:__Z53RuntimeInvoker_Boolean_t97287965_Keyframe_t4206410242PFvvEPK10MethodInfoPvPS4_
Jg:_emscripten_glGetShaderiv
Txl:__ZNK33TimeZone_t2038656743_StaticFields20get_timezone_check_2Ev
uam:_InvokableCall_1_add_Delegate_m1011133128_gshared
AB:__ZN4FMOD6System10getVersionEPj
ssh:__ZN26ShimEnumerator_t196554029232get_address_of_host_enumerator_0Ev
kKa:__Z26GetDecompressTextureFormat13TextureFormat
Hw:__ZN9Scripting11UnityEngine2XR5Tango13PoseDataProxy12CleanupProxyEv
G5h:__ZNK34AttributeUsageAttribute_t29087731815get_inherited_2Ev
xOg:_Selectable_set_animationTriggers_m2970345687
O0m:__ZN26GUIScrollGroup_t152332902120set_calcMaxHeight_30Ef
EPg:__ZNK18Slider_t390372890219get_m_HandleRect_19Ev
EKc:__ZN9JSONWrite8TransferIN4math12int2_storageEEEvRT_PKc17TransferMetaFlags
P9c:__ZN13TextRendering4Font13AwakeFromLoadE17AwakeFromLoadMode
dBj:_CompareInfo_LastIndexOf_m2688553706
RSi:_Enum__ctor_m3602080049
Pab:__ZN9GfxDevice21ReleaseSharedMeshDataEP14SharedMeshData
Eqb:__Z29Transfer_Blittable_ArrayFieldI19StreamedBinaryWritehEvRT_R9ArrayInfoRK23StaticTransferFieldInfo
oWd:_MouseState__ctor_m1467839005
mEg:__ZN20MatEntry_t295710709215set_writeMask_7Ei
tWm:_Uri_IsDomainAddress_m2867513594
nMk:__ZN25SortKeyBuffer_t294527527020get_address_of_l2b_9Ev
BYa:__ZNSt3__27__sort5IRNS_6__lessINS_4pairIPKN5Unity4TypeE7Hash128EES8_EEPS8_EEjT0_SC_SC_SC_SC_T_
IAe:__ZL79Convert_t2465617642_CustomAttributesCacheGenerator_Convert_ToDouble_m2949593046P21CustomAttributesCache
bFf:__Z25Il2CppCodeGenWriteBarrierI24ObjectU5BU5D_t2843939325EvPPT_S2_
ckm:_List_1_Insert_m1987928029_gshared
hae:_Dropdown_CreateItem_m2954407740
ofe:__ZNK34ReflectionMethodsCache_t210321106215get_raycast3D_0Ev
$8n:__ZNK30dense_hashtable_const_iteratorINSt3__24pairIK10KeyWrapperIPK10Il2CppTypeEjEES6_N6il2cpp8metadata14Il2CppTypeHashEN14dense_hash_mapIS6_jSB_NS6_14EqualsComparerINSA_26Il2CppTypeEqualityComparerEEENS0_9allocatorIS8_EEE9SelectKeyESF_SH_EptEv
jPe:__ZL50Cubemap_t1972384409_CustomAttributesCacheGeneratorP21CustomAttributesCache
A5i:_X509Chain_ProcessCrlExtensions_m236234529
dMk:__ZNK19Context_t174453113017get_PrevSortKey_6Ev
XCn:__ZNK31Canvas_t3310196443_StaticFields24get_willRenderCanvases_4Ev
twj:__ZNK31MonoIO_t2601436415_StaticFields27get_InvalidFileAttributes_0Ev
uPn:__ZN6il2cpp2vm5Class40GetInterfaceInvokeDataFromVTableSlowPathEPK12Il2CppObjectPK11Il2CppClassj
n5e:__ZL85ScrollRect_t4137855814_CustomAttributesCacheGenerator_m_HorizontalScrollbarVisibilityP21CustomAttributesCache
Xeh:_InternalEnumerator_1_Dispose_m3790132913_gshared
_fe:_GridLayoutGroup_set_startAxis_m837106447
Jbi:__ZNK40SynchronizedArrayListWrapper_t228375709516get_m_SyncRoot_6Ev
d0g:_InternalEnumerator_1_System_Collections_IEnumerator_Reset_m521819017_gshared
Rbg:__Z64Mesh_GetAllocArrayFromChannel_TisVector3_t3722313464_m4289135201P16Mesh_t3648964284iPK10MethodInfo
GFh:_RemotingConfiguration_RegisterChannelTemplate_m3105688054
x8b:__ZN6Shader8TransferI19StreamedBinaryWriteEEvRT_
Uta:__ZN8Material28UpdateHashesOnPropertyChangeEN9ShaderLab16FastPropertyNameE
oNh:__ZNK21MethodCall_t86107814024get_ExternalProperties_9Ev
d_i:__ZNK26HttpWebRequest_t166943651514get_timeout_25Ev
yfi:_Locale_GetText_m3520169047
Tyc:__Z53Register_UnityEngine_SortingLayer_GetLayerValueFromIDv
Rhi:_ASN1_GetBytes_m1968380955
yhb:__Z18Transfer_BlittableI14SafeBinaryReadLb1E8Vector4fEvRK29SerializationCommandArgumentsR31RuntimeSerializationCommandInfo
ID:__ZN11AudioSource12AddToManagerEv
Tri:__ZNK26RecordProtocol_t375904970117get_innerStream_1Ev
X2n:__ZN6il2cpp6icalls8mscorlib6SystemL20GetMethodsByNameImplINS_5utils10functional6FilterINSt3__212basic_stringIcNS7_11char_traitsIcEENS7_9allocatorIcEEEENS4_13VmStringUtils21CaseSensitiveComparerEEEEEP11Il2CppArrayPK10Il2CppTypejRKT_
wAk:__Z64Enumerator_System_Collections_IEnumerator_get_Current_m472556657P22Enumerator_t3649184329PK10MethodInfo
lwo:__ZN6il2cpp2vm5Image13ClassFromNameEPK11Il2CppImagePKcS6_
t1o:dynCall_vdddddd
K7b:__ZN24GenerateTypeTreeTransfer21TransferSTLStyleArrayINSt3__26vectorIN9ShaderLab14SerializedPassENS1_9allocatorIS4_EEEEEEvRT_17TransferMetaFlags
ejj:__Z25Il2CppCodeGenWriteBarrierI34AttributeUsageAttribute_t290877318EvPPT_S2_
CW:__ZL32MarkLevelGameManagerDependenciesR27GarbageCollectorThreadState
uxn:__ZL25UnresolvedVirtualCall_108P12Il2CppObjectS0_S0_28StreamingContext_t3711869237PK10MethodInfo
ECb:__ZNK13GfxDeviceGLES26HasActiveRandomWriteTargetEv
aen:__ZNK32TriggerListContainer_t203271548313get_m_Rules_0Ev
z8m:__ZN18Meteor_t10802400889set_dir_4E19Vector3_t3722313464
yDo:__ZN15dense_hashtableINSt3__24pairIK10KeyWrapperIPcES3_EES4_N6il2cpp5utils15PassThroughHashIS3_EEN14dense_hash_mapIS4_S3_SA_NS4_14EqualsComparerINS0_8equal_toIS3_EEEENS0_9allocatorIS6_EEE9SelectKeyESF_SH_E9copy_fromERKSK_j
zUn:__ZN15dense_hashtableI10KeyWrapperIPK17Il2CppGenericInstES4_N6il2cpp8metadata21Il2CppGenericInstHashEN14dense_hash_setIS4_S7_NS4_14EqualsComparerINS6_24Il2CppGenericInstCompareEEENSt3__29allocatorIS4_EEE8IdentityESB_SE_E4swapERSH_
uli:__ZNK22RSAManaged_t17570938207get_q_8Ev
dne:__ZL54_MemberInfo_t3922476713_CustomAttributesCacheGeneratorP21CustomAttributesCache
pik:__ZN24Dictionary_2_t196881949518set_touchedSlots_8Ei
nap:_glGetActiveUniformsiv__wrapper
ijl:__Z54RuntimeInvoker_Int32_t2950945753_LabelFixup_t858502054PFvvEPK10MethodInfoPvPS4_
ncg:_Mesh_GetIndices_m2873123901
LTc:__ZN17Physics2DSettings21SetAutoSyncTransformsEbb
m1n:__ZNSt3__214__split_bufferIP12Il2CppThreadRNS_9allocatorIS2_EEED2Ev
TCi:__ZNK17Stack_t232966228014get_capacity_3Ev
iZl:_ReadOnlyCollection_1_System_Collections_IList_get_Item_m1900827001_gshared
Hpb:__Z18Transfer_BlittableI19StreamedBinaryWriteLb0EdEvRK29SerializationCommandArgumentsR31RuntimeSerializationCommandInfo
pKn:_RaycastHit2D_get_collider_m1549426026_AdjustorThunk
tgl:__Z106RuntimeInvoker_Void_t1185182177_Single_t1397266774_Single_t1397266774_Single_t1397266774_Int32_t2950945753PFvvEPK10MethodInfoPvPS4_
g5d:_FloatTween_set_targetValue_m3604919944_AdjustorThunk
Gug:__ZNK22InputField_t376291743118get_m_OnEndEdit_30Ev
QDm:__ZN21TlsStream_t236545396510set_temp_4EP22ByteU5BU5D_t4116647657
kSd:__ZN38ExecuteEvents_t3484638744_StaticFields27set_U3CU3Ef__mgU24cache5_24EP27EventFunction_1_t3587542510
VVd:_PointerEventData_get_dragging_m746831934
HDo:__ZNK30dense_hashtable_const_iteratorINSt3__24pairIK10KeyWrapperIPcES3_EES4_N6il2cpp5utils15PassThroughHashIS3_EEN14dense_hash_mapIS4_S3_SA_NS4_14EqualsComparerINS0_8equal_toIS3_EEEENS0_9allocatorIS6_EEE9SelectKeyESF_SH_EdeEv
Myl:_Type_get_TypeHandle_m160082026
w2l:_ReadOnlyCollection_1_System_Collections_IEnumerable_GetEnumerator_m2781605075_gshared
G4:__ZZN15DirectorManager15InitializeClassEvEN52PreLateUpdateDirectorUpdateAnimationBeginRegistrator7ForwardEv
I7j:_Array_get_swapper_TisCustomAttributeNamedArgument_t287865710_m4254011335_gshared
Oee:_Graphic_RegisterDirtyMaterialCallback_m106898453
j$m:_GUILayoutEntry_get_margin_m3174861737
Jla:__ZN4PPtrI6SpriteE8TransferI14SafeBinaryReadEEvRT_
V5n:__ZN15dense_hashtableINSt3__24pairIK10KeyWrapperINS1_IPK14Il2CppAssemblyP11Il2CppClassEEEjEES9_17ReflectionMapHashIS8_EN14dense_hash_mapIS9_jSD_NS9_14EqualsComparerINS0_8equal_toIS8_EEEENS0_9allocatorISB_EEE9SelectKeyESI_SK_E6insertERKSB_
Epk:_EqualityComparer_1_System_Collections_IEqualityComparer_Equals_m1672604045_gshared
fxn:__ZL24UnresolvedVirtualCall_93P12Il2CppObjectS0_S0_S0_S0_PK10MethodInfo
d4f:__ZNK25ArgumentCache_t218795839938get_m_ObjectArgumentAssemblyTypeName_1Ev
Zin:__Z27List_1_get_Count_m361000296P17List_1_t128053199PK10MethodInfo
OMe:__ZL73DirectorFixedUpdatePostPhysics_t1695763577_CustomAttributesCacheGeneratorP21CustomAttributesCache
_6b:__ZNSt3__26vectorIN9ShaderLab14SerializedPassENS_9allocatorIS2_EEE8__appendEj
fol:__Z37RuntimeInvoker_Enumerator_t3436819725PFvvEPK10MethodInfoPvPS4_
Vgg:_PlayableOutputHandle_op_Equality_m388301694
k3j:_Encoding_get_ISOLatin1_m2107621369
ITc:__ZNK16PhysicsManager2D21GetAutoSyncTransformsEv
Zgi:_BigInteger_op_Inequality_m2697143438
WUf:__ZN24DESTransform_t408890549918set_keySchedule_16EP22ByteU5BU5D_t4116647657
lLe:__ZL89Mathf_t3464937446_CustomAttributesCacheGenerator_Mathf_SmoothDamp_m394423605____maxSpeed4P21CustomAttributesCache
rSc:__ZN12b2WheelJoint24SolveVelocityConstraintsERK12b2SolverData
_7c:__ZThn356_N10SpriteMask14OnDeleteSpriteEv
Hjf:_ModuleBuilderTokenGenerator_GetToken_m1396347424
ale:__ZL72IntPtr_t_CustomAttributesCacheGenerator_IntPtr_op_Inequality_m3063970704P21CustomAttributesCache
Rvb:__ZNK25PathNamePersistentManager30PathIDToFileIdentifierInternalEi
Vuc:__Z33Camera_CUSTOM_RaycastTry_InjectedP12Il2CppObjectRK3Rayfi
s1c:__ZN10Collider2D8TransferI24GenerateTypeTreeTransferEEvRT_
cv:__ZN7mecanim8skeleton18CreateSkeletonPoseIN4math7affineXEEEPNS0_13SkeletonPoseTIT_EEPKNS0_8SkeletonER20RuntimeBaseAllocator
Eci:_BitArrayEnumerator__ctor_m2359341397
MBk:_Enumerator_MoveNext_m1177880931_gshared
URf:__ZNK29RuntimeTypeHandle_t302751541511get_value_0Ev
Ghh:_DefaultComparer__ctor_m3288720761_gshared
OTn:__ZN15dense_hashtableINSt3__24pairIK10KeyWrapperIPK19Il2CppGenericMethodEPK26Il2CppGenericMethodIndicesEES6_N6il2cpp8metadata23Il2CppGenericMethodHashEN14dense_hash_mapIS6_SA_SE_NS6_14EqualsComparerINSD_26Il2CppGenericMethodCompareEEENS0_9allocatorISB_EEE9SelectKeyESI_SK_E5clearEv
Uil:__Z102RuntimeInvoker_Int32_t2950945753_RuntimeObject_Vector2_t2156229523_Int32_t2950945753_Int32_t2950945753PFvvEPK10MethodInfoPvPS4_
sSn:__ZN30dense_hashtable_const_iteratorINSt3__24pairIK10KeyWrapperIPKcEP11Il2CppClassEES5_N6il2cpp5utils11StringUtils12StringHasherIS4_EEN14dense_hash_mapIS5_S8_SE_NS5_14EqualsComparerINSB_13VmStringUtils21CaseSensitiveComparerEEENS0_9allocatorIS9_EEE9SelectKeyESJ_SL_E30advance_past_empty_and_deletedEv
aVe:__ZL73g_UnityEngine_TextRenderingModule_Assembly_CustomAttributesCacheGeneratorP21CustomAttributesCache
sAj:__ZN27NumberFormatInfo_t43587713829set_numberDecimalSeparator_17EP8String_t
zZ:__ZN16ScriptingManager27NativeTypeForScriptingClassE17ScriptingClassPtr
jCl:_UInt64_System_IConvertible_ToDateTime_m3434604642
Gyl:_Type_get_IsSerializable_m1040556850
pid:_get_sfnt_table
tLl:_Array_Resize_TisUIVertex_t4057497605_m1219201596_gshared
cam:_CachedInvokableCall_1_Invoke_m812947504_gshared
lqe:__ZL55StreamWriter_t1266378904_CustomAttributesCacheGeneratorP21CustomAttributesCache
wRo:__ZN6il2cpp5utilsL9ReadFloatEPKc
sQn:_TileData_set_transform_m1036780625_AdjustorThunk
LQa:__ZN8Renderer20RendererAddedToSceneEv
rqa:__ZN6Camera23VirtualRedirectTransferER18StreamedBinaryRead
WXb:__ZL22ScheduleSceneNodesJobsP25ScheduleSceneNodesJobDataj
hbn:__ZN37U3CJumpingU3Ec__Iterator1_t232676431813set_U24this_1EP26PlayerAnimator_t1517140421
ni:_emscripten_set_canvas_size
Mce:_Graphic_SetVerticesDirty_m2124914069
fnm:_List_1_CheckMatch_m754192497_gshared
tyj:_CultureInfo__ctor_m3285927757
fFg:_MaskableGraphic_get_rootCanvasRect_m3492154629
dGm:__ZNK23DeriveBytes_t149291513611get__salt_6Ev
BKc:__ZN9JSONWrite8TransferI13dynamic_arrayI11QuaternionfLj0EEEEvRT_PKc17TransferMetaFlags
vSe:__ZL120SupportedRenderingFeatures_t353898663_CustomAttributesCacheGenerator_U3CrendererSupportsReceiveShadowsU3Ek__BackingFieldP21CustomAttributesCache
oLl:_Array_Resize_TisRaycastResult_t3360306849_m1811054291_gshared
Vec:__ZN12MeshRenderer27PrepareSingleRendererUpdateER13RendererSceneRS_10MemLabelId
BKi:__ZN30CultureAwareComparer_t3064613917set__ignoreCase_4Eb
Z3g:__Z39InternalEnumerator_1_Dispose_m130608859P32InternalEnumerator_1_t3232839231PK10MethodInfo
H6b:__ZNSt3__26vectorIN9ShaderLab20SerializedSubProgramENS_9allocatorIS2_EEE8__appendEj
yR:__ZN20DynamicHeapAllocatorI17LowLevelAllocatorE8AllocateEji
EEd:__ZN11UnityEngine9Analytics15UserCustomEvent12ToJsonStringER9JSONWrite
MWg:__ZN31InternalEnumerator_1_t2465572919set_idx_1Ei
dQb:__ZN20DynamicPropertySheet15SetVectorQueuedERKN9ShaderLab16FastPropertyNameERK8Vector4fN19ShaderPropertySheet8SetFlagsE
znm:_List_1_get_Item_m2254585396_gshared
uFn:_AnimatorControllerPlayable_SetHandle_m2260644454
DEg:__Z69Component_GetComponentsInParent_TisRectMask2D_t3474889437_m3154118616P21Component_t1923634451bP17List_1_t651996883PK10MethodInfo
z6g:_InternalEnumerator_1_get_Current_m3191242573_AdjustorThunk
ebh:_InternalEnumerator_1_System_Collections_IEnumerator_Reset_m996811230_AdjustorThunk
Yjl:__Z56RuntimeInvoker_Void_t1185182177_KeyValuePair_2_t71524366PFvvEPK10MethodInfoPvPS4_
dYe:__ZL59GUISkin_t1244372282_CustomAttributesCacheGenerator_m_windowP21CustomAttributesCache
$Ic:__ZL26Transfer_SimpleNativeClassI9JSONWrite10RectOffsetLb0EEvRK29SerializationCommandArgumentsR31RuntimeSerializationCommandInfo
UNo:_GC_push_conditional
lAd:__ZN21UnityAnalyticsManager23VirtualRedirectTransferER24GenerateTypeTreeTransfer
zSa:__ZN17GenericDynamicVBO10AllocateVBEjR21DynamicVBOChunkHandle
RUe:__ZL63RaycastHit2D_t2279581989_CustomAttributesCacheGenerator_m_PointP21CustomAttributesCache
zLi:_DBNull_ToString_m3638608738
mqd:__ZN7Tilemap19UpdateTileAnimationEv
Bci:_BitArray_Clone_m3537018332
apb:__Z35Transfer_Blittable_FixedBufferFieldI19StreamedBinaryWritexEvRK29SerializationCommandArgumentsR31RuntimeSerializationCommandInfo
TIf:_ObjectRecord_UnchainFixup_m3191243952
EUj:__ZNK25SHA512Managed_t178733633916get_byteCount1_6Ev
M7d:__ZN20Dropdown_t227439122523set_m_OnValueChanged_25EP25DropdownEvent_t4040729994
Wvj:__ZN11Exception_t13set_hresult_8Ei
GDm:_TlsStream_get_CanWrite_m16389328
Evd:__Z15GetUIModuleSpecv
qIb:__Z22TextureIdMapGLES_Alias9TextureIDS_
yic:__Z31Input_CUSTOM_GetMouseButtonDowni
izk:__Z58Enumerator_System_Collections_IEnumerator_Reset_m502339360P22Enumerator_t2017297076PK10MethodInfo
$pb:__Z29Transfer_Blittable_ArrayFieldI19StreamedBinaryWritejEvRT_R9ArrayInfoRK23StaticTransferFieldInfo
Y2a:__ZNK9Transform16GetLocalPositionEv
c6j:_EncoderExceptionFallbackBuffer_get_Remaining_m1573636148
wlj:_MonoType_get_BaseType_m1098640416
w_a:__ZN13LoadOperation19IntegrateTimeSlicedEi
bEm:_TlsStream_Read_m3392972801
uJa:__ZN18AsyncUploadManager16QueueUploadAssetEPKcjjjRK18AsyncUploadHandler
ltk:__ZNK43EqualityComparer_1_t3827726111_StaticFields14get__default_0Ev
Jpg:_TouchScreenKeyboard_get_status_m3936201565
O3j:__ZNK33Encoding_t1523322056_StaticFields30get_utf8EncodingWithMarkers_20Ev
OCb:__ZN13GfxDeviceGLES22DispatchComputeProgramE12ObjectHandleI18ComputeProgram_TagPvE15ComputeBufferIDj
cHn:__Z33KeyValuePair_2_get_Key_m256823211P25KeyValuePair_2_t968067334PK10MethodInfo
ulg:_Transform_get_localToWorldMatrix_m4155710351
aKb:__ZN20DefaultGfxDeviceImpl32InitStereoGlobalsBuffersPlatformEiijPKv
yAe:__ZL77Convert_t2465617642_CustomAttributesCacheGenerator_Convert_ToChar_m1604365259P21CustomAttributesCache
E7j:_Latin1Encoding_GetString_m254210343
d0a:__Z17TransformAABBSlowRK4AABBRK10Matrix4x4fRS_
Iak:_SetPropertyUtility_SetStruct_TisChar_t3634460470_m4284602558_gshared
t4h:_Array_combsort_m4052486289
xC:__ZN24AudioScriptBufferManager27InitialCompleteDomainReloadEv
egh:__ZNK32InternalEnumerator_1_t226158272911get_array_0Ev
j5b:__ZN9ShaderLab21SerializedShaderState8TransferI14SafeBinaryReadEEvRT_
Puj:_Environment_GetWindowsFolderPath_m1738399646
jtm:_Queue_1_System_Collections_Generic_IEnumerableU3CTU3E_GetEnumerator_m2263220760_gshared
wpm:_List_1_Sort_m378918663_gshared
udi:__ZNK43CaseInsensitiveHashCodeProvider_t196262911912get_m_text_2Ev
Ked:_cf2_stack_pushInt
odd:__ZNSt3__26__treeINS_12__value_typeIN20TextRenderingPrivate7FontRefEP11FT_FaceRec_EENS_19__map_value_compareIS3_S6_NS_4lessIS3_EELb1EEENS_9allocatorIS6_EEE7destroyEPNS_11__tree_nodeIS6_PvEE
iTg:_U3CGetEnumeratorU3Ec__Iterator0_System_Collections_IEnumerator_get_Current_m3208659014_gshared
FTk:__ZN30PKCS1_t1505584676_StaticFields15set_emptySHA1_0EP22ByteU5BU5D_t4116647657
Jam:_InvokableCall_1_Invoke_m891112188_gshared
Lsf:_Module_GetCustomAttributes_m76573271
TTf:_CryptoConfig_EncodeOID_m2635914623
CEa:__ZN15SerializeTraitsINSt3__24pairIN4core12basic_stringIcNS2_20StringStorageDefaultIcEEEES6_EEE8TransferI24GenerateTypeTreeTransferEEvRS7_RT_
t6o:b89
s6o:b88
c6o:b81
UIn:__ZL6add192yyyyyyPyS_S_
cIb:__ZN7ApiGLES19CreateSparseTextureEjj14GraphicsFormatiiiiRiS1_S1_
n_:__ZN18ResourceImageGroup7CleanupEv
Qro:__ZN6il2cpp6icalls8mscorlib6SystemL12AssignSignedIxEEvNS2_17WidenedValueUnionEPv14Il2CppTypeEnumjj
l6o:b84
r6o:b87
h4j:_String_CharCopy_m3838781968
Fq:__ZN11Quaternionf8TransferI24GenerateTypeTreeTransferEEvRT_
GRh:_RemotingSurrogateSelector_GetSurrogate_m3900875713
k8k:__Z69RuntimeInvoker_Boolean_t97287965_UInt16_t2177724958_Int16_t2552820387PFvvEPK10MethodInfoPvPS4_
wJk:__ZNK45MSCompatUnicodeTable_t1453885583_StaticFields15get_cjkJAlv1_12Ev
J$l:_ReadOnlyCollection_1_System_Collections_IList_get_IsReadOnly_m3626439112_gshared
NYh:__ZN26X509Certificate_t48924302416set_signature_11EP22ByteU5BU5D_t4116647657
OUh:__ZN46RemotingConfiguration_t4113740665_StaticFields30set_serverProviderTemplates_12EP21Hashtable_t1853889766
Iac:__Z61RenderTexture_CUSTOM_INTERNAL_CALL_SetRenderTextureDescriptorP12Il2CppObjectRK17RenderTextureDesc
Eua:__Z20RenderMultipleMeshesRK15RenderNodeQueueRK18RenderMultipleData16VertexInputMasks
Dj:_glDeleteShader
Pca:__ZL57__ManagedRegistrationHelperFunction_ShaderKeywordSetProxyPv
Fda:__ZN9Scripting11UnityEngine32UnitySynchronizationContextProxy9InitProxyEv
v8:__ZN6prcoreL17RemapGenericFloatI15TexFormatRGHalf16TexFormatRGFloatEEvPKNS_9InnerInfoE
iMl:_Array_Sort_TisUICharInfo_t75501106_m128665067_gshared
Wgd:_otv_GSUB_validate
qHl:_RSAPKCS1SignatureDeformatter_SetHashAlgorithm_m1602190713
XSi:_Enum_System_IConvertible_ToByte_m1219166845
Beh:_InternalEnumerator_1_Dispose_m28687982_gshared
gEc:__ZN9Scripting11UnityEngine19GUILayoutEntryProxy12CleanupProxyEv
aKd:__ZL61__ManagedRegistrationHelperFunction_VideoAudioOutputModeProxyPv
Omm:_List_1_System_Collections_ICollection_get_IsSynchronized_m3630704857_gshared
t5m:__ZNK48U3CExplosionAnimationU3Ec__Iterator1_t419743156216get_U24current_2Ev
Cpg:_Touch_get_type_m960232264_AdjustorThunk
Lj:_glDisable
sQf:__ZN47SerializationCallbacks_t2570604627_StaticFields16set_cache_lock_5EP12Il2CppObject
wLj:__ZN28StreamAsyncResult_t78024851215set_completed_1Eb
nac:__Z27scripting_add_internal_callPKcPKv
n_m:__ZN26GUILayoutGroup_t215778969528set_m_UserSpecifiedHeight_21Eb
uUl:__ZN21InterfaceFuncInvoker1Ib20UIVertex_t4057497605E6InvokeEjP11Il2CppClassP12Il2CppObjectS0_
Crg:__ZN22InputField_t376291743128set_m_CaretSelectPosition_41Ei
yoh:_Enumerator_Dispose_m1360775770_gshared
lua:__Z17GetPlayerSettingsv
T6b:__ZNSt3__26vectorIN9ShaderLab20SerializedSubProgram16SamplerParameterENS_9allocatorIS3_EEE6assignIPS3_EENS_9enable_ifIXaasr21__is_forward_iteratorIT_EE5valuesr16is_constructibleIS3_NS_15iterator_traitsISA_E9referenceEEE5valueEvE4typeESA_SA_
Tlf:__ZN31OpCodes_t126150456_StaticFields15set_Ldind_I4_73E17OpCode_t123070264
_tf:_MonoField_get_FieldHandle_m3729647377
wJg:_ScrollRect_get_content_m2477524320
ooh:_Enumerator_MoveNext_m1556953412_AdjustorThunk
xzd:__Z44Register_UnityEngine_Canvas_get_pixelPerfectv
Xmh:__Z71Enumerator_System_Collections_IDictionaryEnumerator_get_Key_m2502357460P22Enumerator_t3398877024PK10MethodInfo
FMo:_GC_alloc_large
Swd:__ZN2UI14CanvasRenderer12SyncMaterialENS0_8SyncFlagE
Qah:__ZNK32InternalEnumerator_1_t249304194811get_array_0Ev
gQj:_StreamWriter_Write_m1660535366
Ckl:__Z66RuntimeInvoker_Void_t1185182177_Int32_t2950945753_Link_t3209266973PFvvEPK10MethodInfoPvPS4_
jTo:__ZN6il2cpp2vm9Parameter30GetDefaultParameterValueObjectEPK10MethodInfoPK13ParameterInfoPb
bJn:__ZNK27ContactFilter2D_t380520344117get_useTriggers_0Ev
erl:_UTF8Encoding_GetByteCount_m4152118078
ckl:__Z71RuntimeInvoker_Void_t1185182177_CustomAttributeNamedArgument_t287865710PFvvEPK10MethodInfoPvPS4_
XSk:_KeyPairPersistence__CanSecure_m3516574278
h2h:__ZNK21Hashtable_t185388976611get_table_4Ev
Q0k:__Z95RuntimeInvoker_Void_t1185182177_RuntimeObject_RuntimeObject_Int32_t2950945753_SByte_t1669577662PFvvEPK10MethodInfoPvPS4_
C4m:__ZNK21BlackHole_t373134803321get_ForceMultiplier_6Ev
$Yf:_MD5CryptoServiceProvider_Dispose_m3502499818
T7n:__ZN15dense_hashtableINSt3__24pairIK10KeyWrapperINS1_IPK9FieldInfoP11Il2CppClassEEEjEES9_17ReflectionMapHashIS8_EN14dense_hash_mapIS9_jSD_NS9_14EqualsComparerINS0_8equal_toIS8_EEEENS0_9allocatorISB_EEE9SelectKeyESI_SK_E21fill_range_with_emptyEPSB_SO_
V_j:__ZN25SecurityFrame_t142246247513set__assert_2EP24PermissionSet_t223948603
O5m:__ZN18Galaxy_t220907393514set_rotSpeed_4Ef
QKl:_Array_InternalArray__set_Item_TisRaycastHit2D_t2279581989_m3076882241_gshared
$al:__Z87RuntimeInvoker_Void_t1185182177_RuntimeObject_StringU26_t181565287_StringU26_t181565287PFvvEPK10MethodInfoPvPS4_
vCf:__ZN20GCHandle_t335143818712set_handle_0Ei
Fza:__ZN12LightManager28IsLightTransformDataUpToDateEPK5Light
_Xg:__Z38InternalEnumerator_1__ctor_m1424655733P31InternalEnumerator_1_t978588483P11Il2CppArrayPK10MethodInfo
jdh:__Z44InternalEnumerator_1_get_Current_m1655128652P32InternalEnumerator_1_t3186646106PK10MethodInfo
_le:__ZL74RuntimeArray_CustomAttributesCacheGenerator_Array_BinarySearch_m3171087170P21CustomAttributesCache
zle:__ZL72Enum_t4135868527_CustomAttributesCacheGenerator_Enum_ToObject_m122225012P21CustomAttributesCache
bjd:_UNITY_tt_face_done_kern
dEg:__ZNK20MatEntry_t295710709214get_readMask_6Ev
aUh:_ObjRef_GetObjectData_m270012899
H_e:__ZL68g_UnityEngine_StandardEvents_Assembly_CustomAttributesCacheGeneratorP21CustomAttributesCache
f8n:__ZN15dense_hashtableINSt3__24pairIK10KeyWrapperIPK10Il2CppTypeEjEES6_N6il2cpp8metadata14Il2CppTypeHashEN14dense_hash_mapIS6_jSB_NS6_14EqualsComparerINSA_26Il2CppTypeEqualityComparerEEENS0_9allocatorIS8_EEE9SelectKeyESF_SH_E12resize_deltaEjj
nUg:_ArrayReadOnlyList_1_RemoveAt_m2104218585_gshared
hXj:__Z25Il2CppCodeGenWriteBarrierI26X509Certificate_t489243024EvPPT_S2_
Qjf:__Z37il2cpp_codegen_marshal_allocate_arrayIhEPT_j
Qbk:_Array_InternalArray__IEnumerable_GetEnumerator_TisParameterModifier_t1461694466_m3675077728_gshared
o_c:__ZN35b2InitializeVelocityConstraintsTaskD2Ev
t9o:_glStencilFuncSeparate__wrapper
N4e:__ZL60RawImage_t3182918964_CustomAttributesCacheGenerator_m_UVRectP21CustomAttributesCache
lWl:__ZN21InterfaceFuncInvoker1I19Vector3_t3722313464iE6InvokeEjP11Il2CppClassP12Il2CppObjecti
Awb:__Z19scripting_gc_enablev
o8e:__ZL134U3CExplosionAnimationU3Ec__Iterator1_t4197431562_CustomAttributesCacheGenerator_U3CExplosionAnimationU3Ec__Iterator1_Reset_m1172952582P21CustomAttributesCache
XKb:__ZZ23InitPlayerLoopCallbacksvEN41InitializationPlayerUpdateTimeRegistrator7ForwardEv
isc:__ZN11UTF16StringC2ERKS_10MemLabelId
Q1b:__Z29StdTemplateConversionFunctionIihEbPvR14SafeBinaryRead
bfh:_InternalEnumerator_1_get_Current_m3792939945_AdjustorThunk
Pzn:__ZL25UnresolvedVirtualCall_237P12Il2CppObjectS0_iPK10MethodInfo
Hyd:__Z55Register_UnityEngine_CanvasRenderer_DisableRectClippingv
Cxl:_TimeSpan_Subtract_m1264203589_AdjustorThunk
ZWc:__ZN19OverlapPointQuery2D14InitializeAABBER6b2AABB
nKm:__ZNK19X509Crl_t114876738816get_nextUpdate_3Ev
Nob:__Z18Transfer_BlittableI19StreamedBinaryWriteLb0EN4math12int2_storageEEvRK29SerializationCommandArgumentsR31RuntimeSerializationCommandInfo
ngf:_MethodBase__ctor_m1907868998
r4e:__ZL118U3CCaretBlinkU3Ec__Iterator0_t2589889038_CustomAttributesCacheGenerator_U3CCaretBlinkU3Ec__Iterator0_Reset_m1547565867P21CustomAttributesCache
Dbb:__ZN9GfxDevice22UploadTextureCubeArrayE9TextureIDPKhjii14GraphicsFormati18TextureUploadFlags
g0g:_InternalEnumerator_1_System_Collections_IEnumerator_get_Current_m888718134_gshared
f$k:__Z175RuntimeInvoker_Void_t1185182177_SByte_t1669577662_SByte_t1669577662_SByte_t1669577662_SByte_t1669577662_SByte_t1669577662_SByte_t1669577662_SByte_t1669577662_SByte_t1669577662PFvvEPK10MethodInfoPvPS4_
Mek:_Array_compare_TisRaycastResult_t3360306849_m822404090_gshared
ofg:_Object_Destroy_m3118546832
JXl:_ReadOnlyCollection_1_System_Collections_Generic_IListU3CTU3E_set_Item_m519295790_gshared
m2j:_String_IsNullOrEmpty_m2969720369
LMi:_DateTime_FromTicks_m4059645178_AdjustorThunk
Sxj:__ZNK20Calendar_t166112156916get_M_EraNames_3Ev
cne:__ZL67ICustomAttributeProvider_t1530824137_CustomAttributesCacheGeneratorP21CustomAttributesCache
OFh:_ConfigHandler_ParseTime_m1787834288
Kv:__ZN15PackedIntVector8TransferI19StreamedBinaryWriteEEvRT_
GKd:__ZN9Scripting11UnityEngine5Video25VideoAudioOutputModeProxy12CleanupProxyEv
zoj:_Assembly_Load_m3487507613
rx:__ZNSt3__27__sort4IRNS_6__lessIN4core12basic_stringIcNS2_20StringStorageDefaultIcEEEES6_EEPS6_EEjT0_SA_SA_SA_T_
h2o:dynCall_viiiifii
igo:__ZN6il2cpp2gc19AppendOnlyGCHashMapINSt3__24pairIPK11Il2CppImageP11Il2CppClassEEP22Il2CppReflectionModule17ReflectionMapHashIS9_ENS2_8equal_toIS9_EEEC2Ev
Tbf:__ZNK24FieldBuilder_t262704999311get_attrs_0Ev
HX:__Z20GetPersistentManagerv
mmd:_UNITY_TT_Set_Var_Design
iYn:__ZNK24dense_hashtable_iteratorINSt3__24pairIK10KeyWrapperIPK19Il2CppGenericMethodEPK26Il2CppGenericMethodIndicesEES6_N6il2cpp8metadata23Il2CppGenericMethodHashEN14dense_hash_mapIS6_SA_SE_NS6_14EqualsComparerINSD_26Il2CppGenericMethodCompareEEENS0_9allocatorISB_EEE9SelectKeyESI_SK_EdeEv
XS:__ZN21SystemInfoStringCache16StaticInitializeEPv
GAe:__ZL80Convert_t2465617642_CustomAttributesCacheGenerator_Convert_ToDecimal_m1695757674P21CustomAttributesCache
iWi:_NameObjectCollectionBase_FindFirstMatchedItem_m840305173
kYl:_ReadOnlyCollection_1_System_Collections_Generic_ICollectionU3CTU3E_Remove_m1100818788_gshared
gAo:__ZNK10KeyWrapperIP12Il2CppObjectE14EqualsComparerINSt3__28equal_toIS1_EEEclERKS2_S9_
k6b:__ZNSt3__26vectorIN9ShaderLab20SerializedSubProgram15StructParameterENS_9allocatorIS3_EEE6assignIPS3_EENS_9enable_ifIXaasr21__is_forward_iteratorIT_EE5valuesr16is_constructibleIS3_NS_15iterator_traitsISA_E9referenceEEE5valueEvE4typeESA_SA_
rKh:__ZN23GenericVirtFuncInvoker0I19TimeSpan_t881159249E6InvokeEPK10MethodInfoP12Il2CppObject
iub:__ZNK13MonoBehaviour7GetNameEv
XPj:__ZNK24StreamWriter_t126637890420get_preamble_done_10Ev
dJh:_SynchronizedClientContextSink_AsyncProcessMessage_m3574843998
Gz:__Z15_CheckFMODError11FMOD_RESULTPKciS1_
Fro:__ZN6il2cpp6icalls8mscorlib6SystemL16ThrowInvalidCastEPK11Il2CppClassS5_
rVn:__ZNK15dense_hashtableI10KeyWrapperIPK19Il2CppGenericMethodES4_N6il2cpp8metadata23Il2CppGenericMethodHashEN14dense_hash_setIS4_S7_NS4_14EqualsComparerINS6_26Il2CppGenericMethodCompareEEENSt3__29allocatorIS4_EEE8IdentityESB_SE_E4sizeEv
_rk:_EqualityComparer_1_get_Default_m79107703_gshared
IXf:_HMAC_KeySetup_m661741544
kCe:__ZL61MonoEnumInfo_t3694469084_CustomAttributesCacheGenerator_cacheP21CustomAttributesCache
pxo:__ZN6il2cpp2vm5Field11SetValueRawEPK10Il2CppTypePvS5_b
r3j:_Latin1Encoding__ctor_m498920120
vqf:__ZNK27UnmanagedMarshal_t98401568715get_param_num_7Ev
wtm:__ZNK19Stack_1_t392349561914get__version_2Ev
OTd:__ZNK34ReflectionMethodsCache_t210321106235get_getRayIntersectionAllNonAlloc_4Ev
gPj:_StreamReader_Peek_m2272511193
Wsn:__ZN46AudioExtensionManager_t3220897493_StaticFields32set_m_SpatializerExtensionName_7E24PropertyName_t3749835189
tDj:_DateTimeFormatInfo_FillAllDateTimePatterns_m2683124783
$xd:__Z51Register_UnityEngine_CanvasGroup_get_blocksRaycastsv
d_g:__Z69InternalEnumerator_1_System_Collections_IEnumerator_Reset_m1256724261P31InternalEnumerator_1_t587985571PK10MethodInfo
Bej:_NumberFormatter_get_IsFloatingSource_m3714711779
eym:__ZN18VirtActionInvoker2Ii22OrderBlock_t1585977831E6InvokeEjP12Il2CppObjectiS0_
xgm:_List_1_System_Collections_ICollection_get_IsSynchronized_m423384850_gshared
LSl:_Collection_1_System_Collections_IList_Add_m1403891193_gshared
cMf:__ZN29MetadataReference_t407787366014set_Metadata_0EP24TypeMetadata_t2187352167
cLg:_Scrollbar_Set_m607000118
wzl:_Type_GetConstructor_m1195697116
Ri:_glBeginQuery
bTm:__ZN22AnchorInfo_t338701115110set_expr_0EP22Expression_t2722445759
FDg:__Z70Component_GetComponentsInChildren_TisComponent_t1923634451_m1156099783P21Component_t1923634451P18List_1_t3395709193PK10MethodInfo
uAn:__ZL25UnresolvedVirtualCall_270P12Il2CppObjectiPK10MethodInfo
b5l:_Comparison_1_Invoke_m568154215_gshared
Vek:__ZN21InterfaceFuncInvoker2Ii19Vector2_t2156229523S0_E6InvokeEjP11Il2CppClassP12Il2CppObjectS0_S0_
SLk:__ZNK25SortKeyBuffer_t294527527011get_l4wb_14Ev
s5c:__ZN10Effector2D25CheckEffectorColliderMaskEP10Collider2DS1_
TMb:__ZN6Camera12RenderStereoENS_10RenderFlagE8CullFlagPNS_24PerformEyeRenderFunctionE
n5a:__ZN20LocalFileSystemPosix10ToAbsoluteEPKc
e9o:b111
DSm:__ZN30Regex_t3657309853_StaticFields11set_cache_0EP24FactoryCache_t2327118887
l0a:__Z23CollectSceneGameObjectsR13dynamic_arrayIiLj0EE
oJo:__ZN6il2cpp2vm13ComObjectBase16DisconnectObjectEj
yuk:_GenericComparer_1__ctor_m3652072706_gshared
Pm:f0
_ka:__ZN9BehaviourD0Ev
FYo:_getcwd
CUc:__ZN16b2CapsuleContact6CreateEP9b2FixtureiS1_iP16b2BlockAllocator
KZn:__ZNSt3__26__treeINS_12__value_typeIP11Il2CppClassS3_EENS_19__map_value_compareIS3_S4_NS_4lessIS3_EELb1EEENS_9allocatorIS4_EEE13__lower_boundIS3_EENS_15__tree_iteratorIS4_PNS_11__tree_nodeIS4_PvEEiEERKT_SH_PNS_15__tree_end_nodeIPNS_16__tree_node_baseISF_EEEE
Fma:__ZN25ThreadsafeLinearAllocatorD2Ev
Xef:_ILGenerator_Emit_m3083135129
bsc:__ZL50GetAndClearChangedTransformsForMultilpleSystemsJobP45GetChangedTransformsForMultipleSystemsJobDatajPK23TransformAccessReadOnlyPKyj
n$a:__Z21SendMessageToEveryoneRK17MessageIdentifier11MessageData
d2:__ZN21BillboardBatchManager16StaticInitializeEPv
dGi:_DateTime_AbsoluteDays_m4235097773
oV:__ZN12_GLOBAL__N_138ArchiveRedirectFileSystemStaticDestroyEPv
Qme:__ZL126U3CGetEnumeratorU3Ec__Iterator0_t1202911786_CustomAttributesCacheGenerator_U3CGetEnumeratorU3Ec__Iterator0_Dispose_m2078994225P21CustomAttributesCache
pqd:__Z13InvokeStartUpRKN4math12int3_storageE4PPtrI6ObjectEP7TilemapP10GameObject
_me:__ZL69Type_t_CustomAttributesCacheGenerator_Type_GetConstructor_m1195697116P21CustomAttributesCache
x7d:_DefaultControls_CreateScrollView_m3842770629
F4o:_emscripten_glLoadIdentity__wrapper
rfh:_InternalEnumerator_1_Dispose_m2788308318_gshared
Kjk:__ZN24Dictionary_2_t144469424911set_table_4EP22Int32U5BU5D_t385246372
NJn:_Physics2D_Raycast_m1407159225
Bqe:__ZL94EnumBuilder_t2400448213_CustomAttributesCacheGenerator_EnumBuilder_GetConstructors_m3294436155P21CustomAttributesCache
Lll:__Z55RuntimeInvoker_TableRange_t3332867892_Int32_t2950945753PFvvEPK10MethodInfoPvPS4_
S6g:_InternalEnumerator_1_MoveNext_m1020308708_gshared
BQn:__ZN39AnalyticsEvent_t4058973021_StaticFields18set_k_SdkVersion_0EP8String_t
bIb:__Z23CreateSparseTextureGLES9TextureIDii14GraphicsFormati
Chd:_otv_Anchor_validate
$Jg:__ZNK22ScrollRect_t413785581413get_m_Rect_35Ev
dBg:__ZN23LayoutGroup_t243613809037get_address_of_m_TotalPreferredSize_9Ev
dF:__ZN13dynamic_arrayI12SoundChannelLj0EE9push_backERKS0_
JOo:_GC_continue_reclaim
BXc:__Z18AddCollisionReportP11Collision2DR13dynamic_arrayINS_15CollisionReportELj0EE
yxj:_CCMath_mod_m3631663509
d8m:__ZN23GameManager_t153652365413set_canvas_10EP22GameObject_t1113636619
Axl:_TimeSpan_Negate_m1889505500_AdjustorThunk
a0l:_ReadOnlyCollection_1_System_Collections_ICollection_CopyTo_m2715087453_gshared
ASk:__ZNK24CspParameters_t23985263918get_ProviderName_3Ev
fGo:__ZN6il2cpp2os10ThreadImpl10APCRequestC2EPFvPvES3_
kth:_Transform_1__ctor_m2810088858_gshared
L8a:__ZN16MemoryFileSystemD0Ev
cen:_AnalyticsEventTracker_Awake_m2780522130
Zoi:__ZN23CipherSuite_t341474457517set_serverHMAC_20EP29KeyedHashAlgorithm_t112861511
GOc:__ZN5Unity9rapidjson12PrettyWriterI16TempBufferWriterNS0_4UTF8IcEES4_13JSONAllocatorE11WriteIndentEv
CRc:__ZNK12b2MotorJoint16GetReactionForceEf
M_n:__ZN6il2cpp2vm13MetadataCache37GetParameterDefaultValueDataFromIndexEi
pdn:__ZN24EventTrigger_t252745169519set_m_Repetitions_8Ei
Fjo:_il2cpp_class_get_assemblyname
JLd:__ZN9Scripting11UnityEngine12Experimental2XR19ReferencePointProxy12CleanupProxyEv
$4k:__Z50RuntimeInvoker_SByte_t1669577662_SByte_t1669577662PFvvEPK10MethodInfoPvPS4_
lee:_Graphic_OnFillVBO_m1026749972
ANn:__ZN6il2cpp2vm5Class15GetEnumBaseTypeEP11Il2CppClass
hsi:_Context_set_WriteSequenceNumber_m942577065
Gl:_glVertexAttrib4fv
v7i:_X509CertificateEnumerator_Reset_m4026698923
mKo:__ZNK6il2cpp5utils13VmStringUtils23CaseInsensitiveComparerclERKNSt3__212basic_stringIcNS3_11char_traitsIcEENS3_9allocatorIcEEEEPKc
T0d:_CanvasScaler_SetScaleFactor_m3006968999
Qnl:__Z78RuntimeInvoker_Boolean_t97287965_Navigation_t3049316579_Navigation_t3049316579PFvvEPK10MethodInfoPvPS4_
IVm:__ZNK27Uri_t100236324_StaticFields22get_UriSchemeMailto_23Ev
SKa:__ZNK9Texture2D16GetNpotTexelSizeEv
Bmj:_NumberFormatter_Init_m3576155222
j6a:__ZL33FileEntryInfoListToFolderContentsRKN4core12basic_stringIcNS_20StringStorageDefaultIcEEEERK19dynamic_block_arrayI13FileEntryInfoLj32EERNSt3__23setIS3_NSB_4lessIS3_EENSB_9allocatorIS3_EEEE
MCg:_LayoutUtility_GetLayoutProperty_m714717302
H2k:__Z71RuntimeInvoker_RuntimeObject_RuntimeObject_StreamingContext_t3711869237PFvvEPK10MethodInfoPvPS4_
EDl:__ZN23InterfaceActionInvoker1IP39UnhandledExceptionEventArgs_t2886101344E6InvokeEjP11Il2CppClassP12Il2CppObjectS1_
dPd:_EventSystem_set_sendNavigationEvents_m983981895
IYn:__ZL30GetImageForTypeDefinitionIndexi
kqi:__ZNK26SslCipherSuite_t198164574711get_pad1_21Ev
dKk:__ZN45MSCompatUnicodeTable_t1453885583_StaticFields20set_cjkCHScategory_6EPh
Cab:__ZN9GfxDevice22GetDefaultVertexBufferE26GfxDefaultVertexBufferTypej
m8j:_Array_InternalArray__ICollection_Contains_TisInt64_t3736567304_m2911357929_gshared
YXg:__ZN31InternalEnumerator_1_t9785884839set_idx_1Ei
Fxb:__Z17BeginSplashScreenb
BRl:_Collection_1_Remove_m3022471627_gshared
aZo:___fseeko_unlocked
UJa:__ZN4crnd12crn_unpacker22decode_alpha_endpointsEv
fZj:__ZNK27SecurityElement_t10460760919get_tag_1Ev
bnj:_Object_ToString_m1740002499
SYo:_sscanf
gFo:__ZNK6il2cpp5utils13dynamic_arrayIPNS_2os6ThreadELj4EE8capacityEv
F1d:__Z30IndexedSet_1_Clear_m4167420338P24IndexedSet_1_t3571286806PK10MethodInfo
VUa:__ZN14SafeBinaryRead21TransferSTLStyleArrayINSt3__26vectorI17BlendShapeChannelNS1_9allocatorIS3_EEEEEEvRT_17TransferMetaFlags
ZQb:__ZN29RenderNodeQueuePrepareContextD2Ev
sLl:_Array_Resize_TisUILineInfo_t4195266810_m3763058392_gshared
WSf:_SByte_ToString_m3584531119_AdjustorThunk
Bsk:__Z25Il2CppCodeGenWriteBarrierI30EqualityComparer_1_t1219088915EvPPT_S2_
DGa:__ZN10SpriteBone8TransferI24GenerateTypeTreeTransferEEvRT_
tXc:__ZNK4PPtrI7Joint2DEcvPS0_Ev
wHn:_SessionStateChanged_BeginInvoke_m1132835327
Iwh:__Z28Enumerator__ctor_m1558933899P22Enumerator_t2013587906P24Dictionary_2_t1444694249PK10MethodInfo
lIi:_Convert_ToInt32_m1876369743
lgi:_ModulusRing__ctor_m2420310199
vGi:_Convert_ToDateTime_m626620011
WPa:__ZN18StreamedBinaryRead21TransferSTLStyleArrayI13dynamic_arrayI26EnlightenSystemInformationLj0EEEEvRT_17TransferMetaFlags
gph:_Enumerator_System_Collections_IDictionaryEnumerator_get_Key_m2500634048_AdjustorThunk
Iva:__ZN12SharedObjectI19ShaderPropertySheetLb1E27SharedObjectDeleteReleaseOpIS0_EE5ResetEv
e2m:__ZN22TextEditor_t275985536615set_controlID_1Ei
Omo:__ZN14dense_hash_mapI10KeyWrapperIP11Il2CppClassES2_N6il2cpp8metadata16SZArrayClassHashENS3_14EqualsComparerINS5_19SZArrayClassCompareEEENSt3__29allocatorINSA_4pairIKS3_S2_EEEEE15set_deleted_keyERSD_
s1o:dynCall_vdd
Vem:_List_1_Remove_m3037048099_gshared
DFb:__ZN18GfxFramebufferGLES18GetFramebufferNameERK20GfxRenderTargetSetup
eYb:__Z23CullDynamicObjectsUmbraPK4AABBPKN5Umbra15OcclusionBufferER9IndexList
pOo:_GC_print_block_list
Pho:__ZN6il2cpp2vm14TypeNameParser12ParseVersionERKNSt3__212basic_stringIcNS2_11char_traitsIcEENS2_9allocatorIcEEEERtSB_SB_SB_
gwo:__ZNK30dense_hashtable_const_iteratorINSt3__24pairIK10KeyWrapperINS1_IPKcS4_EEEiEES6_24NamespaceAndNamePairHashN14dense_hash_mapIS6_iS9_NS6_14EqualsComparerI26NamespaceAndNamePairEqualsEENS0_9allocatorIS8_EEE9SelectKeyESD_SF_EneERKSI_
hxg:_InputField_MoveDown_m1455948167
jGc:__Z30Event_Get_Custom_PropCharacterP12Il2CppObject
S4:__ZN13PlayableGraph27SchedulePlayableDestructionERK9HPlayable
Ngd:_cff_get_mm_var
l9o:_glGetFramebufferAttachmentParameteriv__wrapper
$Ef:_ChannelServices_GetCurrentChannelInfo_m3041604116
rpf:__Z29il2cpp_codegen_marshal_stringP8String_t
ddh:_InternalEnumerator_1__ctor_m2635640285_AdjustorThunk
Cib:__Z22scripting_array_length17ScriptingArrayPtr
TYj:_Hash__ctor_m2891763106
zQj:_SynchronizedReader_Peek_m148942882
_Zk:__Z95RuntimeInvoker_Void_t1185182177_RuntimeObject_Int32_t2950945753_Int32_t2950945753_RuntimeObjectPFvvEPK10MethodInfoPvPS4_
xFg:__Z28HashSet_1_Remove_m1860968099P21HashSet_1_t4099546121P12Il2CppObjectPK10MethodInfo
Q7l:_Predicate_1_Invoke_m2308795536_gshared
rGa:__ZN14SafeBinaryRead20TransferTypelessDataEjPvi
xcg:_MeshRenderer_DontStripMeshRenderer_m3387425681
lTa:__ZN14SpriteRenderer18UpdateCachedSpriteEb
XCg:__ZN38LayoutUtility_t2745813735_StaticFields26set_U3CU3Ef__amU24cache6_6EP17Func_2_t235587086
hEo:__ZN15dense_hashtableINSt3__24pairIK10KeyWrapperIPcES3_EES4_N6il2cpp5utils15PassThroughHashIS3_EEN14dense_hash_mapIS4_S3_SA_NS4_14EqualsComparerINS0_8equal_toIS3_EEEENS0_9allocatorIS6_EEE9SelectKeyESF_SH_E3endEv
Dlo:__ZNK6il2cpp2gc9AllocatorIP12Il2CppThreadE8max_sizeEv
End:_Horizontal_Sweep_Init
hPc:__ZN9Scripting11UnityEngine19ParticleSystemProxy9InitProxyEv
aua:__Z19GetActiveColorSpacev
Jzo:__ZN6il2cpp2gc8GCHandle3NewEP12Il2CppObjectb
C_j:__ZNK28SecurityException_t97554447322get_permissionState_11Ev
tqn:_Vector3Int_get_z_m3022184939_AdjustorThunk
dba:__ZL54__ManagedRegistrationHelperFunction_RenderTextureProxyPv
stf:_MonoMethodInfo_GetDeclaringType_m2924452727
yRh:_RemotingSurrogate_SetObjectData_m2713731796
t0o:dynCall_fii
VT:__Z6StrCmpPKcS0_
Iej:_NumberFormatter_AppendIntegerString_m2257376141
gQn:_TileBase_GetTileData_m1994442890
eac:__Z21CheckGpuProgramUsable20ShaderGpuProgramType
Adc:__ZN13ProduceHelperI14Texture2DArrayLb0EE7ProduceE10MemLabelId18ObjectCreationMode
DGo:__ZN6il2cpp2os9Directory20GetFileSystemEntriesERKNSt3__212basic_stringIcNS2_11char_traitsIcEENS2_9allocatorIcEEEESA_iiPi
g3h:_Array_System_Collections_IList_Add_m1063688101
lXm:__ZNK27Uri_t100236324_StaticFields14get_schemes_28Ev
kXh:__ZN18PKCS12_t410153306012set__certs_4EP37X509CertificateCollection_t1542168549
Vad:__ZN20TextRenderingPrivate19NativeTextGenerator5SetupEv
j2n:__ZN6il2cpp6icalls8mscorlib6SystemL12GetFieldImplINS_5utils10functional6FilterINSt3__212basic_stringIcNS7_11char_traitsIcEENS7_9allocatorIcEEEENS4_13VmStringUtils23CaseInsensitiveComparerEEEEEP21Il2CppReflectionFieldP11Il2CppClassiRKT_
UUb:__ZNK15SharedLightData24GetFinalShadowResolutionEv
rPm:_PatternCompiler_EmitAlternationEnd_m2444359097
OJe:__ZL91GameObject_t1113636619_CustomAttributesCacheGenerator_GameObject_get_activeSelf_m1767405923P21CustomAttributesCache
Hum:_Collection_1_Insert_m162655676_gshared
Xzg:_LayoutElement_get_minHeight_m4160507569
Rlc:__ZN10GameObject14CopyPropertiesERS_
TGc:__Z44Register_UnityEngine_GUIStyle_get_fixedWidthv
k9j:_Array_InternalArray__ICollection_Remove_TisLink_t544317964_m1280781374_gshared
iGo:__ZNSt3__214__split_bufferIN6il2cpp2os10ThreadImpl10APCRequestERNS_9allocatorIS4_EEEC2EjjS7_
gvj:__ZN24StreamReader_t400993589913set_decoder_8EP19Decoder_t2204182725
J5h:_BitConverter_DoubleWordsAreSwapped_m1474345095
Iqn:__ZN34Vector3Int_t741115188_StaticFields12set_s_Left_7E21Vector3Int_t741115188
Ncl:__Z114RuntimeInvoker_Int32_t2950945753_Vector2_t2156229523_Vector2_t2156229523_ContactFilter2D_t3805203441_RuntimeObjectPFvvEPK10MethodInfoPvPS4_
jbi:_FixedSizeArrayListWrapper_set_Capacity_m4221053039
yZo:_rand
P9o:_emscripten_glFramebufferRenderbuffer__wrapper
nqc:__ZN13MeshScripting10CreateMeshE21ScriptingObjectOfTypeI4MeshE
aIf:__ZNK27BinaryFormatter_t319775320218get_filter_level_5Ev
H3o:b37
Qal:__Z56RuntimeInvoker_Void_t1185182177_PropertyName_t3749835189PFvvEPK10MethodInfoPvPS4_
scl:__Z51RuntimeInvoker_Void_t1185182177_Vector2_t2156229523PFvvEPK10MethodInfoPvPS4_
eRd:__ZN23InterfaceActionInvoker1IP25BaseEventData_t3903027533E6InvokeEjP11Il2CppClassP12Il2CppObjectS1_
yjb:__ZN14SafeBinaryRead21TransferSTLStyleArrayINSt3__26vectorI17AnimationCurveTplIfE13stl_allocatorIS4_L18MemLabelIdentifier1ELi16EEEEEEvRT_17TransferMetaFlags
Ubi:_SynchronizedArrayListWrapper_Contains_m3809499313
yvi:_HandshakeMessage_Compare_m2214647946
x9j:_Array_InternalArray__ICollection_Remove_TisLabelData_t360167391_m3556246844_gshared
iRn:__ZN15dense_hashtableINSt3__24pairIK10KeyWrapperIPK11Il2CppClassEPKcEES6_N6il2cpp5utils11PointerHashIS3_EEN14dense_hash_mapIS6_S9_SE_NS6_14EqualsComparerINS0_8equal_toIS5_EEEENS0_9allocatorISA_EEE9SelectKeyESJ_SL_E9set_valueEPSA_RKSA_
Hhe:__ZNK17Image_t267026965119get_m_FillMethod_36Ev
ebo:__ZN15dense_hashtableINSt3__24pairIK10KeyWrapperINS1_IPK11Il2CppImageP11Il2CppClassEEEjEES9_17ReflectionMapHashIS8_EN14dense_hash_mapIS9_jSD_NS9_14EqualsComparerINS0_8equal_toIS8_EEEENS0_9allocatorISB_EEE9SelectKeyESI_SK_E12expand_arrayEjN21dense_hash_map_traits17integral_constantIbLb0EEE
Ycb:__ZN9GfxDevice30ResolveComputeProgramResourcesE12ObjectHandleI18ComputeProgram_TagPvER19ComputeShaderKernelR13dynamic_arrayI15ComputeShaderCBLj0EERS6_I18ComputeShaderParamLj0EEb
aYf:_HMACSHA256__ctor_m346174875
q1f:_Color_op_Multiply_m2887457390
zPm:__ZN23QuickSearch_t258809011012set_ignore_2Eb
pXb:__Z22PrepareOptimizedPlanesPK5PlaneiPKN4math7_float4E
E$g:_InternalEnumerator_1__ctor_m1559487635_gshared
lRl:_Collection_1_System_Collections_IList_get_IsFixedSize_m1405161344_gshared
pP:__ZN11UnityEngine15CloudWebService17WebFileDownloaderINS0_20WebRequestRestClientENS0_23WebRequestRestHeaderMapEE10InitializeERKN4core12basic_stringIcNS5_20StringStorageDefaultIcEEEE
b2:__ZN17UniqueIDGenerator15CreatePureIndexEv
MDg:__ZNK40StencilMaterial_t3850132571_StaticFields12get_m_List_0Ev
Rag:__ZN21Matrix4x4_t181790184310set_m32_11Ef
uYh:__ZN26X509Certificate_t48924302413set_decoder_0EP16ASN1_t2114160832
xZg:__Z40InternalEnumerator_1_Dispose_m2342933386P32InternalEnumerator_1_t3437281436PK10MethodInfo
sLd:__ZL54__ManagedRegistrationHelperFunction_TrackingStateProxyPv
YAi:__ZNK17Queue_t363752339317get__growFactor_4Ev
Ucc:__Z48InitializeRectTransformAnimationBindingInterfacev
xsm:__Z59Enumerator_System_Collections_IEnumerator_Reset_m2261065994P22Enumerator_t1862690208PK10MethodInfo
aYk:__Z114RuntimeInvoker_Int32_t2950945753_RuntimeObject_Int32_t2950945753_RuntimeObject_Int32_t2950945753_Int32_t2950945753PFvvEPK10MethodInfoPvPS4_
pMn:__ZN15dense_hashtableINSt3__24pairIK10KeyWrapperIPK22Il2CppGenericParameterEP11Il2CppClassEES6_N6il2cpp5utils11PointerHashIS4_EEN14dense_hash_mapIS6_S9_SE_NS6_14EqualsComparerINS0_8equal_toIS5_EEEENS0_9allocatorISA_EEE9SelectKeyESJ_SL_E14squash_deletedEv
SCa:__ZN9ShaderLabL27GetDesiredRenderTextureDescEPK6Camera
nxe:__ZL131RSACryptoServiceProvider_t2683512874_CustomAttributesCacheGenerator_RSACryptoServiceProvider_t2683512874____PublicOnly_PropertyInfoP21CustomAttributesCache
YSc:__ZNK12b2MouseJoint17GetReactionTorqueEf
xJl:_Array_InternalArray__Insert_TisMark_t3471605523_m2854535880_gshared
Spc:__ZN4Mesh24UpdateSubMeshVertexRangeEi
UEc:__Z14GUIClipTextureP9Texture2DPhiiii
$Ve:__ZL52HumanBone_t2465339518_CustomAttributesCacheGeneratorP21CustomAttributesCache
RAa:__ZN13RenderTexture21FixInvalidDescOptionsER17RenderTextureDesc
Ash:__ZN26ShimEnumerator_t144141504621set_host_enumerator_0E22Enumerator_t3398877024
cRl:__ZN18VirtActionInvoker2Ii19Color32_t2600501292E6InvokeEjP12Il2CppObjectiS0_
EQh:_MethodReturnDictionary__cctor_m278392388
kEg:__ZN20MatEntry_t295710709221set_compareFunction_5Ei
WOb:__ZNK9Transform18TransformDirectionERK8Vector3f
fcm:__ZN30GenericInterfaceActionInvoker1IfE6InvokeEPK10MethodInfoP12Il2CppObjectf
X6a:__ZNK17ArchiveFileSystem12GetAssetGUIDERK13FileEntryData
gvg:__Z65SetPropertyUtility_SetStruct_TisInputType_t1770400679_m3206488413P12Il2CppObjectPiiPK10MethodInfo
m6e:__ZL80CanvasScaler_t2767979955_CustomAttributesCacheGenerator_m_ReferencePixelsPerUnitP21CustomAttributesCache
Uwe:__ZL47HMAC_t2621101144_CustomAttributesCacheGeneratorP21CustomAttributesCache
CPk:_PrimalityTests_RabinMillerTest_m1471415870
BAk:_Enumerator_MoveNext_m2114485647_gshared
Ucf:_GenericTypeParameterBuilder_GetCustomAttributes_m580748276
PZj:__ZN27WindowsIdentity_t294824240611set__type_1EP8String_t
Wen:_AnalyticsTracker_get_TP_m2800669040
_Jf:__ZNK24ObjectReader_t194095739218get__filterLevel_3Ev
d9k:__Z81RuntimeInvoker_Void_t1185182177_RuntimeObject_SByte_t1669577662_Int32_t2950945753PFvvEPK10MethodInfoPvPS4_
_tl:__ZN18VirtActionInvoker2IP12Il2CppObjectbE6InvokeEjS1_S1_b
RWd:__ZNK21MouseState_t38420393222get_m_TrackedButtons_0Ev
Std:__GLOBAL__sub_I_External_Yoga_Yoga_0_cpp
vgi:_Kernel_LeftShift_m4140742987
hoj:_Assembly_GetManifestResourceInternal_m1224391897
Nua:__Z30AddDefaultStreamsToMeshBuffersR9GfxDeviceR11MeshBuffersj17ShaderChannelMaskS3_
LU:__ZL16GetInterfaceImpl18UnityInterfaceGUID
FL:__ZNSt3__27__sort4IR14SortByHashPredI13FileEntryInfoN11UnityEngine15CloudWebService14DataDispatcher6HasherEEPS2_EEjT0_SA_SA_SA_T_
YJo:__ZN6il2cpp6icalls8mscorlib6System15MonoCustomAttrs27GetCustomAttributesInternalEP12Il2CppObjectP20Il2CppReflectionTypeb
Tb:invoke_viifi
Jmd:_UNITY_TT_Set_MM_Blend
Kif:__Z25Il2CppCodeGenWriteBarrierI21Hashtable_t1853889766EvPPT_S2_
gAk:__ZN22Enumerator_t36491843299set_ver_2Ei
bZi:__Z25Il2CppCodeGenWriteBarrierI24ServicePoint_t2786966844EvPPT_S2_
wzm:_InternalAsyncResult_get_FromWrite_m4228047810
M1k:__Z53RuntimeInvoker_MonoEventInfo_t346866618_RuntimeObjectPFvvEPK10MethodInfoPvPS4_
JUl:_Collection_1_CopyTo_m955200729_gshared
kyb:__ZN14PreloadManager35WaitForAllAsyncOperationsToCompleteEv
YHl:__ZN28RijndaelTransform_t6312222419set_Nr_15Ei
ZV:__ZNSt3__26__treeINS_12__value_typeIPKc11ShaderTagIDEENS_19__map_value_compareIS3_S5_27compare_tstring_insensitiveIS3_ELb1EEENS_9allocatorIS5_EEE7destroyEPNS_11__tree_nodeIS5_PvEE
Erk:_EqualityComparer_1__ctor_m1138336971_gshared
cno:__ZNK15dense_hashtableINSt3__24pairIK10KeyWrapperIP11Il2CppClassES4_EES5_N6il2cpp8metadata16SZArrayClassHashEN14dense_hash_mapIS5_S4_SA_NS5_14EqualsComparerINS9_19SZArrayClassCompareEEENS0_9allocatorIS7_EEE9SelectKeyESE_SG_E12bucket_countEv
SW:__ZNK18ScriptingObjectPtr17ToScriptingStringEv
I4j:__ZNK20Encoding_t152332205622get_encoder_fallback_4Ev
Cz:__ZL31InitializeAudioScriptingClassesv
nqn:_Vector3Int_get_x_m3022184941_AdjustorThunk
KWi:__ZN34TypeConverterAttribute_t327158442920set_converter_type_1EP8String_t
pOb:__Z14SortGUIByDepthP10GUIElementS0_
syg:__ZNK23SpriteState_t136298647921get_m_PressedSprite_1Ev
atb:__Z19TransferField_ArrayI18StreamedBinaryRead16Converter_StringEvRK23StaticTransferFieldInfoR31RuntimeSerializationCommandInfoRT0_
M3m:__ZNK37AesTransform_t2957123611_StaticFields10get_iT1_23Ev
c7k:__Z69RuntimeInvoker_UInt32_t2560061978_Int32_t2950945753_SByte_t1669577662PFvvEPK10MethodInfoPvPS4_
QXm:_UriParser__cctor_m3655686731
VEf:__ZN23ChannelData_t33536299728set_Id_2EP8String_t
zCg:_LayoutRebuilder_U3Cs_RebuildersU3Em__0_m589488547
C0o:dynCall_ii
tnl:__Z53RuntimeInvoker_KeyValuePair_2_t71524366_RuntimeObjectPFvvEPK10MethodInfoPvPS4_
ZLk:__ZNK25SortKeyBuffer_t294527527013get_source_16Ev
P5a:__ZNK20LocalFileSystemPosix21GetAvailableDiskSpaceEPKcRy
mx:__ZNSt3__26__treeIiNS_4lessIiEENS_9allocatorIiEEE7destroyEPNS_11__tree_nodeIiPvEE
hlf:__ZN31OpCodes_t126150456_StaticFields13set_Ldc_R8_35E17OpCode_t123070264
nab:__ZNK9GfxDevice14GetWorldMatrixEv
Jua:__Z30ExtractMeshBuffersAndDrawRangeR11MeshBuffersR16DrawBuffersRangeRK9GfxDeviceRK17MeshRenderingData16VertexInputMasksib
NHn:_RemoteConfigSettings_t1247263429_marshal_pinvoke
U0b:__ZNSt3__227__insertion_sort_incompleteIRPFbPK35RegisterRuntimeInitializeAndCleanupS3_EPPS1_EEbT0_S9_T_
sqg:_Transform_set_parent_m786917804
Uun:_AudioSampleProvider_InternalSetScriptingPtr_m3742743270
kQg:_Slider_get_value_m739683640
rda:__Z19scripting_array_new17ScriptingClassPtrjj
kml:__Z60RuntimeInvoker_PlayerLoopSystem_t105772105_Int32_t2950945753PFvvEPK10MethodInfoPvPS4_
YE:__ZN11SoundHandle13CreateChannelEb
K0h:__ZNK25SmallXmlParser_t97378783918get_resetColumn_11Ev
p3a:__Z30CreateBoxedObjectFromPrimitivei
Ntl:_WaitCallback_BeginInvoke_m3012509827
AQj:__ZNK30SynchronizedReader_t116311577512get_reader_1Ev
P6b:__ZNSt3__26vectorIN9ShaderLab20SerializedSubProgram16TextureParameterENS_9allocatorIS3_EEE6assignIPS3_EENS_9enable_ifIXaasr21__is_forward_iteratorIT_EE5valuesr16is_constructibleIS3_NS_15iterator_traitsISA_E9referenceEEE5valueEvE4typeESA_SA_
x2:__Z30CreateBoxedObjectFromPrimitiveb
lGk:__Z25Il2CppCodeGenWriteBarrierI17List_1_t496136383EvPPT_S2_
AUe:__ZL104Physics2D_t1528932956_CustomAttributesCacheGenerator_Physics2D_GetRayIntersectionAll_Internal_m643548862P21CustomAttributesCache
A_k:__Z122RuntimeInvoker_Void_t1185182177_RuntimeObject_RuntimeObject_ContractionU5BU5DU26_t2277527001_Level2MapU5BU5DU26_t359320357PFvvEPK10MethodInfoPvPS4_
kfo:__ZN15dense_hashtableINSt3__24pairIK10KeyWrapperIPK22Il2CppGenericParameterEPK24MonoGenericParameterInfoEES6_N6il2cpp5utils11PointerHashIS4_EEN14dense_hash_mapIS6_SA_SF_NS6_14EqualsComparerINS0_8equal_toIS5_EEEENS0_9allocatorISB_EEE9SelectKeyESK_SM_E15set_deleted_keyERKSB_
USf:_SByte_TryParse_m2431806379
Iul:_Thread_set_IsBackground_m3868016371
_Sn:__ZNK15dense_hashtableINSt3__24pairIK10KeyWrapperIP9FieldInfoEiEES5_N6il2cpp5utils11PointerHashIS3_EEN14dense_hash_mapIS5_iSB_NS5_14EqualsComparerINS0_8equal_toIS4_EEEENS0_9allocatorIS7_EEE9SelectKeyESG_SI_E8min_sizeEjj
UCe:__ZL64ObjectDisposedException_t21392786_CustomAttributesCacheGeneratorP21CustomAttributesCache
kAa:__ZN6prcoreL11inner_clearILj2EEEvPhjjj
$Om:_PatternCompiler_EmitSub_m193323684
yWf:_DSACryptoServiceProvider_get_KeySize_m786836990
sSc:__ZN12b2WheelJoint24SolvePositionConstraintsERK12b2SolverData
Te:_emscripten_exit_fullscreen
yMl:_Array_qsort_TisBoolean_t97287965_TisBoolean_t97287965_m214793583_gshared
xyk:_Enumerator_System_Collections_IEnumerator_Reset_m1564381721_gshared
_cc:__ZZL31RegisterRectTransformPropertiesR22GenericPropertyBindingEN39Wrapper_RectTransformAnchoredPositiony113GetFloatValueEPv
FCc:__ZNK19HexagonalCellLayout15CellLocalBoundsERKN4Grid9GridStateERKN4math7_float3ES7_
Rmj:_Object_MemberwiseClone_m1474068832
_hg:__ZN22Quaternion_t23019283317set_w_3Ef
SEo:__ZN6il2cpp6icalls8mscorlib6System6String19InternalAllocateStrEi
ENc:__Z29Transfer_Blittable_ArrayFieldI8JSONRead11QuaternionfEvRT_R9ArrayInfoRK23StaticTransferFieldInfo
w5a:__ZN20LocalFileSystemPosix8SetFlagsER13FileEntryDatajj
_Wd:__ZN22ButtonState_t85713993617set_m_EventData_1EP32MouseButtonEventData_t3190347560
jvc:__Z45Register_UnityEngine_Camera_get_targetDisplayv
fhc:__ZNK24RendererAnimationBinding15GenerateBindingERKN4core12basic_stringIcNS0_20StringStorageDefaultIcEEEEbRN11UnityEngine9Animation14GenericBindingE
J_i:_IPv6Address__ctor_m3704187391
Gzk:__Z34Enumerator_VerifyState_m2933667029P22Enumerator_t2146457487PK10MethodInfo
Dza:__Z15GetFlareManagerv
zmc:__ZN15ApplicationInfo24GetApplicationIdentifierEv
Ml:_llvm_ceil_f32
nZi:__ZNK43ServicePointManager_t170559685_StaticFields14get_useNagle_8Ev
Su:__ZN8Animator13GetAvatarRootEv
VCi:__ZNK17Stack_t232966228014get_contents_0Ev
sHc:__GLOBAL__sub_I_InputScriptingClasses_cpp
Mfk:_Array_InternalArray__ICollection_Add_TisResourceCacheItem_t51292791_m3851804827_gshared
GWo:___toread
Vvb:__ZNSt3__26vectorI10vector_mapIiiNS_4lessIiEE13stl_allocatorINS_4pairIiiEEL18MemLabelIdentifier38ELi16EEES4_IS9_LS7_38ELi16EEE26__swap_out_circular_bufferERNS_14__split_bufferIS9_RSA_EE
Lfi:_BigInteger_get_Rng_m3283260184
hdo:__ZN15dense_hashtableINSt3__24pairIK10KeyWrapperINS1_IPK9EventInfoP11Il2CppClassEEEjEES9_17ReflectionMapHashIS8_EN14dense_hash_mapIS9_jSD_NS9_14EqualsComparerINS0_8equal_toIS8_EEEENS0_9allocatorISB_EEE9SelectKeyESI_SK_E12maybe_shrinkEv
fw:__ZN8Animator22ScriptingStringToCRC32ERK11ICallString
DDe:__ZL55EventHandler_t1348719766_CustomAttributesCacheGeneratorP21CustomAttributesCache
QXd:_RaycastResult_ToString_m2678663776_AdjustorThunk
pPl:_Array_InternalArray__get_Item_TisKeyValuePair_2_t2530217319_m2886833132_gshared
gQo:__ZN6il2cpp2os11EventHandle3GetEv
WLg:_ScrollRect_OnEndDrag_m3202230060
ypf:__ZNK23TypeBuilder_t107394815422get_underlying_type_33Ev
QAc:__Z34Transform_CUSTOM_SetAsFirstSiblingP12Il2CppObject
t6n:__ZNK15dense_hashtableINSt3__24pairIK10KeyWrapperINS1_IPK14Il2CppAssemblyP11Il2CppClassEEEjEES9_17ReflectionMapHashIS8_EN14dense_hash_mapIS9_jSD_NS9_14EqualsComparerINS0_8equal_toIS8_EEEENS0_9allocatorISB_EEE9SelectKeyESI_SK_E10test_emptyEj
Fgn:__ZN27FieldWithTarget_t305875029317set_m_FieldPath_2EP8String_t
yDh:__ZNK28SinkProviderData_t415137297416get_properties_2Ev
aJe:__ZL57SetupCoroutine_t2062820429_CustomAttributesCacheGeneratorP21CustomAttributesCache
dxg:_InputField_Delete_m3471899192
VBe:__ZL79Convert_t2465617642_CustomAttributesCacheGenerator_Convert_ToUInt64_m1627266664P21CustomAttributesCache
aFo:___cxx_global_var_init_3_45779
Eto:__ZN10KeyWrapperIP14Il2CppIUnknownE14EqualsComparerINSt3__28equal_toIS1_EEEC2ES6_
hue:__ZL91UrlAttribute_t221584584_CustomAttributesCacheGenerator_UrlAttribute_IsContextOK_m1228378186P21CustomAttributesCache
Qyh:_RemotingConfiguration_get_ProcessId_m2180277012
NL:__ZN11UnityEngine15CloudWebService17SessionEventQueue14ParseEventDataERKN4core12basic_stringIcNS2_20StringStorageDefaultIcEEEE
CHk:_List_1_Remove_m2605758101_gshared
rTa:__ZThn356_N14SpriteRendererD1Ev
uEb:__ZN13TranslateGLES4InitERK12GraphicsCaps16GfxDeviceLevelGL
pLn:_NativeTypeAttribute_set_CodegenOptions_m3839252515
Npk:_EqualityComparer_1_get_Default_m180770000_gshared
Agj:_Int64_System_IConvertible_ToUInt16_m848637338_AdjustorThunk
ZFd:__Z32CustomEventData_CUSTOM_AddUInt32P12Il2CppObjectP12Il2CppStringj
_Xi:__ZN38FtpWebRequest_t1577818305_StaticFields24set_supportedCommands_14EP24StringU5BU5D_t1281789340
kTo:__ZN6il2cpp5utils9Exception26FormatInvalidCastExceptionEPK11Il2CppClassS4_
Cdk:_Array_InternalArray__IndexOf_TisLink_t544317964_m455584088_gshared
Mxo:__ZN10KeyWrapperIP18Il2CppGenericClassEC2ENS2_11KeyTypeEnumE
UA:__ZNK14SoundHandleAPI12GetLoadStateEv
P$l:_ReadOnlyCollection_1_IndexOf_m2539022912_gshared
kVk:_KeyGeneratedEventHandler__ctor_m1990062371
URm:_ExpressionAssertion_set_Reverse_m4141031406
u5e:__ZL66Selectable_t3250028441_CustomAttributesCacheGenerator_m_TransitionP21CustomAttributesCache
UTo:__ZN6il2cpp2os6Memory12AlignedAllocEjj
npk:_EqualityComparer_1_get_Default_m3783840260_gshared
w$i:__ZN43ServicePointManager_t170559685_StaticFields29set_maxServicePointIdleTime_3Ei
$2c:__ZN20SpriteTilingProperty8TransferI19StreamedBinaryWriteEEvRT_
GKc:__ZN9JSONWrite8TransferI13dynamic_arrayIN4math12int3_storageELj0EEEEvRT_PKc17TransferMetaFlags
HRg:_Text_set_alignByGeometry_m3828822280
tml:__Z56RuntimeInvoker_WorkRequest_t1354518612_Int32_t2950945753PFvvEPK10MethodInfoPvPS4_
Rmo:__ZNK14dense_hash_mapI10KeyWrapperIP11Il2CppClassES2_N6il2cpp8metadata16SZArrayClassHashENS3_14EqualsComparerINS5_19SZArrayClassCompareEEENSt3__29allocatorINSA_4pairIKS3_S2_EEEEE9SelectKeyclERKSE_
rlb:__Z18Transfer_BlittableI17RemapPPtrTransferLb0E11ColorRGBA32EvRK29SerializationCommandArgumentsR31RuntimeSerializationCommandInfo
K7n:__ZN15dense_hashtableINSt3__24pairIK10KeyWrapperINS1_IPK9FieldInfoP11Il2CppClassEEEjEES9_17ReflectionMapHashIS8_EN14dense_hash_mapIS9_jSD_NS9_14EqualsComparerINS0_8equal_toIS8_EEEENS0_9allocatorISB_EEE9SelectKeyESI_SK_E9copy_fromERKSN_j
ZTi:_HybridDictionary__ctor_m1681134385
gRk:__ZNK26BlockProcessor_t185103122515get_transform_0Ev
dqa:__ZN21ScalableBufferManager11GetInstanceEv
xmc:__ZN18BackgroundJobQueue19ScheduleJobInternalEPFvPvES0_RKNS_8JobFenceEN8JobQueue16JobQueuePriorityE
Iin:__ZNK24VertexHelper_t245330418912get_m_Uv1S_3Ev
IAo:__ZNSt3__218uninitialized_fillIPNS_4pairIK10KeyWrapperIP12Il2CppObjectEN6il2cpp2gc9CachedCCWEEESA_EEvT_SC_RKT0_
RHa:__ZN12CubemapArray23VirtualRedirectTransferER17RemapPPtrTransfer
Kxl:_TimeSpan_op_LessThan_m1594498345
Ssc:__ZL27GetComponentsImplementationILb0ELi0EEbR10GameObjectbRK17CompareParametersRK39GetComponentsImplementation_ReturnValue
D5m:__ZNK42U3CSunAnimationU3Ec__Iterator0_t390776827918get_U24disposing_3Ev
Lmg:__ZNK17Scene_t234837556114get_m_Handle_0Ev
yYm:_Event_GetHashCode_m3559153592
Wub:__ZN9Scripting36IsSystemCollectionsGenericDictionaryE17ScriptingClassPtr
Ldm:_UnityEvent_1_FindMethod_Impl_m322741469_gshared
MYo:___ofl_unlock
seg:__Z31Enumerator_MoveNext_m1050804954P22Enumerator_t2017297076PK10MethodInfo
Rue:__ZL92ConstructionCallDictionary_t686578562_CustomAttributesCacheGenerator_U3CU3Ef__switchU24map24P21CustomAttributesCache
Q5e:__ZL64Slider_t3903728902_CustomAttributesCacheGenerator_m_WholeNumbersP21CustomAttributesCache
qPf:__ZNK44MethodCallDictionary_t605791082_StaticFields18get_InternalKeys_6Ev
T_:__ZL16ReadTypeTreeImplILb0EEbR8TypeTreeRK16TypeTreeIteratorRPKhS6_i
oMm:_Interval_Contains_m110351300_AdjustorThunk
mIi:_Convert_ToInt32_m3048308591
u7e:__ZL77LayoutUtility_t2745813735_CustomAttributesCacheGenerator_U3CU3Ef__amU24cache6P21CustomAttributesCache
MHg:_RectMask2D_OnCanvasHierarchyChanged_m3195492255
ZNi:_DateTimeOffset_Equals_m3030958070
eza:__ZNK22BuiltinResourceManager21GetResourceInstanceIDEPKN5Unity4TypeERKN4core12basic_stringIcNS4_20StringStorageDefaultIcEEEE
yzc:__Z42Register_UnityEngine_RectOffset_set_bottomv
afn:_AnalyticsTracker_BuildParameters_m43920649
FGc:__Z28GUIStyleState_CUSTOM_CleanupP12Il2CppObject
ICj:_DateTimeFormatInfo_GetMonthName_m2034512315
tQb:__ZN28LightProbeProxyVolumeContext8CopyFromERKS_
RLn:_RequiredByNativeCodeAttribute_set_Optional_m1276771824
A0l:_ReadOnlyCollection_1_System_Collections_Generic_IListU3CTU3E_Insert_m2489506856_gshared
cpa:__ZN23TransformChangeDispatch32QueueTransformChangeIfHasChangedER18TransformHierarchy
cch:__Z75InternalEnumerator_1_System_Collections_IEnumerator_get_Current_m2102877703P32InternalEnumerator_1_t1012836222PK10MethodInfo
qbg:_Matrix4x4_MultiplyPoint_m1575665487
Wcl:__Z105RuntimeInvoker_RuntimeObject_Vector3_t3722313464_Vector3_t3722313464_Single_t1397266774_Int32_t2950945753PFvvEPK10MethodInfoPvPS4_
bHb:__ZN7ApiGLES18DeleteRenderbufferERj
nGb:__ZL23ProgramUniformMatrix4fvPK7ApiGLESjiihPKv
hXf:__ZNK16HMAC_t262110114421get__blockSizeValue_9Ev
lAb:__ZN7ApiGLES13CreateTextureEjj14GraphicsFormatiiiii
ook:_DefaultComparer__ctor_m3829525137_gshared
uJg:__Z25Il2CppCodeGenWriteBarrierI26ScrollRectEvent_t343079324EvPPT_S2_
ajo:_il2cpp_array_length
ZPn:__ZN20TileData_t204239423913set_m_Flags_4Ei
w6b:__ZN9ShaderLab20SerializedSubProgram15MatrixParameter8TransferI14SafeBinaryReadEEvRT_
L8o:_emscripten_glUniform2i__wrapper
GEj:__ZNK27NumberFormatInfo_t43587713830get_percentDecimalSeparator_22Ev
Usc:__ZL27GetComponentsImplementationILb0ELi1EEbR10GameObjectbRK17CompareParametersRK39GetComponentsImplementation_ReturnValue
N5i:_X509Store__ctor_m275383717
DNk:_SimpleCollator_LastIndexOfOrdinalIgnoreCase_m2984667899
Sld:_Round_Down_To_Grid
eXh:__ZNK31PKCS12_t4101533060_StaticFields31get_recommendedIterationCount_0Ev
Ara:__ZN13RenderTexture7ReleaseEv
iga:__ZN9Scripting11UnityEngine12Hash128Proxy12CleanupProxyEv
$Kc:__Z18Transfer_BlittableI8JSONReadLb1EN4math12int3_storageEEvRK29SerializationCommandArgumentsR31RuntimeSerializationCommandInfo
MSa:__ZN10MeshFilter23VirtualRedirectTransferER14SafeBinaryRead
V6e:__ZL64LayoutGroup_t2436138090_CustomAttributesCacheGenerator_m_PaddingP21CustomAttributesCache
AZh:_X509CertificateEnumerator_MoveNext_m2269241175
fWa:__ZN12MeshRenderer17MainThreadCleanupEv
Keb:__ZN22CreateGpuProgramOutput12CreateParamsEv
Eoh:__ZN22Enumerator_t208672792711set_stamp_2Ei
LA:__ZN10ObjectPoolIN4FMOD7ChannelENS0_8ChannelIEE7GetFreeEi
quj:_DynamicMethod_IsDefined_m2556354904
Eol:__Z96RuntimeInvoker_RuntimeObject_CustomAttributeNamedArgument_t287865710_RuntimeObject_RuntimeObjectPFvvEPK10MethodInfoPvPS4_
Xae:_FontData_get_font_m2720086288
s1g:_InternalEnumerator_1_System_Collections_IEnumerator_get_Current_m548105685_gshared
kEb:__ZNK14GfxContextGLES13GetDefaultFBOEv
_Rm:__ZN31ExpressionAssertion_t186121081112set_negate_2Eb
Cll:__Z99RuntimeInvoker_Void_t1185182177_UILineInfoU5BU5DU26_t2468919161_Int32_t2950945753_Int32_t2950945753PFvvEPK10MethodInfoPvPS4_
S6h:_Byte_System_IConvertible_ToType_m2251112646
kMo:_GC_unix_get_mem
lxc:__Z55Register_UnityEngine_MonoBehaviour_StopCoroutineManagedv
w$h:__ZN25SmallXmlParser_t97378783916set_attributes_8EP23AttrListImpl_t567962447
PMi:_DateTime_get_Hour_m4153505178_AdjustorThunk
Dtn:_AudioExtensionManager_WriteExtensionProperties_m3028464154
DYj:_Evidence_Equals_m1478353107
SMm:_CostDelegate__ctor_m4027655829
dpc:__Z13GetImagePixelI10ColorRGBAfET_PKhii13TextureFormat15TextureWrapModeS5_ii
Nkm:_List_1_System_Collections_IList_set_Item_m1842844683_gshared
oQb:__ZN19SharedRendererSceneC2E10MemLabelId
P9l:_EventFunction_1__ctor_m4292798223_gshared
LUh:__ZN46RemotingConfiguration_t4113740665_StaticFields29set_activatedServiceEntries_9EP21Hashtable_t1853889766
JQj:__ZNK30SynchronizedWriter_t172285322016get_neverClose_3Ev
$Bj:_CultureInfo_construct_datetime_format_m1928121315
R4j:__ZNK20Encoding_t152332205622get_decoder_fallback_3Ev
mAb:__ZNK13TranslateGLES25GetTextureTargetDimensionEj
Unj:_RankException__ctor_m3453633632
A4l:_Comparison_1__ctor_m533218197_gshared
bQh:_MethodResponse_System_Runtime_Remoting_Messaging_IInternalMessage_get_TargetIdentity_m3291545427
Ill:__Z96RuntimeInvoker_Void_t1185182177_Vector3U5BU5DU26_t3038522815_Int32_t2950945753_Int32_t2950945753PFvvEPK10MethodInfoPvPS4_
LTn:__ZN10KeyWrapperIPK19Il2CppGenericMethodEC2Ev
KZl:_ReadOnlyCollection_1_System_Collections_IList_Remove_m1842121503_gshared
Bgg:_PlayableHandle_Equals_m2546735654
fU:__ZN9profiling27GetBuiltinCategoryRgbaColorEt
_Ta:__Z16SnapToPixelSpaceRK8Vector3f
$uj:_File_OpenRead_m2936789020
JW:__ZN9Scripting12LogExceptionE21ScriptingExceptionPtriPKcb
Pbl:__Z94RuntimeInvoker_Void_t1185182177_RuntimeObject_PlayableGraph_t3515989261_RuntimeObject_IntPtr_tPFvvEPK10MethodInfoPvPS4_
ci:_emscripten_glVertexAttrib4f
Ezn:__ZL25UnresolvedVirtualCall_226P12Il2CppObject6Guid_tPK10MethodInfo
qkb:__ZN14SafeBinaryRead21TransferSTLStyleArrayI13dynamic_arrayIN4math12int3_storageELj0EEEEvRT_17TransferMetaFlags
Kim:__ZN18List_1_t305805257314set__version_3Ei
bsb:__Z19TransferField_ArrayI18StreamedBinaryRead27Converter_UnityEngineObjectEvRK23StaticTransferFieldInfoR31RuntimeSerializationCommandInfoRT0_
Efh:_InternalEnumerator_1_System_Collections_IEnumerator_Reset_m4072625129_AdjustorThunk
i7i:_X509CertificateCollection_AddRange_m3683116910
XXd:__ZN33StandaloneInputModule_t276046910123set_m_HorizontalAxis_23EP8String_t
bMf:__ZNK24ObjectWriter_t296840623120get__assemblyCache_3Ev
BHn:_CustomEventData_t317522481_marshal_pinvoke_cleanup
reo:__ZN10KeyWrapperIPK14Il2CppAssemblyEC2ENS3_11KeyTypeEnumE
hkc:__Z15tessGetElementsP14TESStesselator
MRb:__ZN11HaloManager21ReleaseGeometryJobMemEP25DynamicVBOGeometryJobData
fKj:_DirectoryNotFoundException__ctor_m1689636868
$6k:__Z88RuntimeInvoker_RuntimeObject_RuntimeObject_SByte_t1669577662_RuntimeObject_RuntimeObjectPFvvEPK10MethodInfoPvPS4_
ZVg:_InternalEnumerator_1_System_Collections_IEnumerator_Reset_m903423974_gshared
e_l:_ReadOnlyCollection_1_System_Collections_Generic_IListU3CTU3E_get_Item_m978644313_gshared
UUl:_Collection_1_get_Item_m2253972692_gshared
wpf:_RefEmitPermissionSet_t484390987_marshal_pinvoke_cleanup
brj:_CustomAttributeTypedArgument_Equals_m2261980307
wFa:__ZN19ShaderPropertySheet24SetTextureScaleAndOffsetERK23FastTexturePropertyName8Vector2fS3_
xoj:__ZNK10Assembly_t18get_assemblyName_9Ev
qPl:_Array_InternalArray__get_Item_TisLink_t544317964_m1669566993_gshared
jcb:__ZN9GfxDevice18SetGlobalDepthBiasEff
P1n:__ZN6il2cpp6icalls8mscorlib6System8MonoType12get_AssemblyEP20Il2CppReflectionType
QMj:_IsolatedStorageException__ctor_m3386787868
Ypf:_TypeBuilder_MakeGenericType_m2799607032
bVh:__ZNK41RemotingServices_t1401195504_StaticFields29get__serializationFormatter_1Ev
nwa:__ZN14SharedMeshData22ClearCachedBoneWeightsEv
lLm:_RepeatContext_get_Start_m1076992038
r3l:_ReadOnlyCollection_1_IndexOf_m3669095250_gshared
Cg:_emscripten_glGetPointerv
yCm:__ZN26X509Certificate_t48924302528set_m_signaturealgoparams_13EP22ByteU5BU5D_t4116647657
zkm:_List_1_System_Collections_Generic_IEnumerableU3CTU3E_GetEnumerator_m3687886202_gshared
cOl:_Dictionary_2_Do_CopyTo_TisKeyValuePair_2_t3842366416_TisRuntimeObject_m1564656153_gshared
Mzf:__ZN16VirtFuncInvoker0ItE6InvokeEjP12Il2CppObject
$xo:__ZN15dense_hashtableI10KeyWrapperIP18Il2CppGenericClassES3_N6il2cpp8metadata22Il2CppGenericClassHashEN14dense_hash_setIS3_S6_NS3_14EqualsComparerINS5_25Il2CppGenericClassCompareEEENSt3__29allocatorIS3_EEE8IdentityESA_SD_E5clearEv
txb:__Z26ApplyMaterialPassWithCacheRK18SharedMaterialDataR17ShaderPassContextP6ShaderPN9ShaderLab4PassEibPKNS6_10GrabPassesEPNS6_11SubProgramsEPK22DeviceRenderStateBlock
G5k:__Z55RuntimeInvoker_DateTime_t3738529785_TimeSpan_t881159249PFvvEPK10MethodInfoPvPS4_
AIe:__ZL81Camera_t4157153871_CustomAttributesCacheGenerator_Camera_RaycastTry2D_m2460696262P21CustomAttributesCache
Pqk:__ZNK42EqualityComparer_1_t770273628_StaticFields14get__default_0Ev
zog:_StackTraceUtility_SetProjectFolder_m830524047
amj:_MulticastDelegate_KPM_m22863605
zen:__ZNK24EventTrigger_t252745169516get_m_InitTime_6Ev
N9g:_InternalEnumerator_1_get_Current_m1897120917_AdjustorThunk
plj:_MonoType_ReorderParamArrayArguments_m2458683451
jHf:_FormatterConverter_ToInt16_m4282804414
g3k:__Z81RuntimeInvoker_Void_t1185182177_Int64_t3736567304_RuntimeObject_Int64_t3736567304PFvvEPK10MethodInfoPvPS4_
iZd:_StandaloneInputModule_ProcessTouchPress_m4019232747
ovj:_FileStream__ctor_m3151488352
x4h:_Array_swap_m547389985
DQa:__ZN8Renderer23VirtualRedirectTransferER14SafeBinaryRead
aCl:_UInt32_ToString_m2420423038
Q6l:__Z25Func_3_Invoke_m1194147890P18Func_3_t3398609381P12Il2CppObjectS2_PK10MethodInfo
k3l:_ReadOnlyCollection_1_System_Collections_IList_get_IsFixedSize_m1923250479_gshared
SKj:_FileStream_get_Length_m426703983
ezg:__ZN50U3CMouseDragOutsideRectU3Ec__Iterator1_t390924187819set_U3CrectU3E__1_2E16Rect_t2360479859
Hwh:_Enumerator__ctor_m1558933899_AdjustorThunk
zdm:__ZN24UnityEvent_1_t383260525719set_m_InvokeArray_4EP24ObjectU5BU5D_t2843939325
PDe:__ZL88BigInteger_t2902905090_CustomAttributesCacheGenerator_BigInteger_op_Implicit_m3414367033P21CustomAttributesCache
SNn:__ZN6il2cpp2vmL15GetBitmapNoInitEP11Il2CppClassPjRjj
rpm:_List_1_Remove_m2092085040_gshared
p3b:__ZL13MotionHandleriPK27EmscriptenDeviceMotionEventPv
z5g:__ZNK32InternalEnumerator_1_t23687585839get_idx_1Ev
xqi:__ZN19Context_t397123470720set_serverSettings_3EP29TlsServerSettings_t4144396432
hz:__ZN12AudioManager5ResetEv
wXk:__Z67RuntimeInvoker_Boolean_t97287965_RuntimeObject_SByteU26_t3619038962PFvvEPK10MethodInfoPvPS4_
S1d:__ZN27ClipperRegistry_t242868040916set_m_Clippers_1EP24IndexedSet_1_t2673511092
UHe:__ZL68DisallowMultipleComponent_t1422053217_CustomAttributesCacheGeneratorP21CustomAttributesCache
XZl:_ReadOnlyCollection_1_get_Count_m1336304542_gshared
C7e:__ZL111LayoutUtility_t2745813735_CustomAttributesCacheGenerator_LayoutUtility_U3CGetPreferredHeightU3Em__6_m3049688934P21CustomAttributesCache
Uih:__ZN16VirtFuncInvoker2Ii26DateTimeOffset_t3229287507S0_E6InvokeEjP12Il2CppObjectS0_S0_
H8:__ZN6prcoreL17RemapGenericFloatI17TexFormatRGBAHalf15TexFormatRGHalfEEvPKNS_9InnerInfoE
YYi:__ZNK26HttpWebRequest_t166943651519get_servicePoint_24Ev
Ueo:__ZNK15dense_hashtableINSt3__24pairIK10KeyWrapperIPK14Il2CppAssemblyEPK22Il2CppMonoAssemblyNameEES6_N6il2cpp5utils11PointerHashIS4_EEN14dense_hash_mapIS6_SA_SF_NS6_14EqualsComparerINS0_8equal_toIS5_EEEENS0_9allocatorISB_EEE9SelectKeyESK_SM_E10test_emptyEj
z0g:_InternalEnumerator_1_System_Collections_IEnumerator_Reset_m779787360_gshared
jDj:__ZNK30DateTimeFormatInfo_t240585370126get_fullDateTimePattern_21Ev
SGo:__ZN6il2cpp6icalls8mscorlib6System11Environment20GetWindowsFolderPathEi
kEi:_Convert_ToBoolean_m2833752130
Qhn:_Toggle_GraphicUpdateComplete_m2285510719
h9d:__Z27List_1_get_Item_m1187285853P17List_1_t487303889iPK10MethodInfo
Nfd:_UNITY_FT_RoundFix
Asf:__Z25Il2CppCodeGenWriteBarrierI18Missing_t508514592EvPPT_S2_
GPo:_GC_is_heap_ptr
iEc:__ZN9Scripting11UnityEngine8GUIProxy12CleanupProxyEv
Zvi:_HandshakeMessage_EncodeMessage_m3919107786
pQk:_ASN1_DecodeTLV_m1200977460
g6f:_UnityEventBase_PrepareInvoke_m1785382128
WQf:__ZN21InterfaceFuncInvoker1IsP12Il2CppObjectE6InvokeEjP11Il2CppClassS1_S1_
_qf:__ZN23InterfaceActionInvoker2IP12Il2CppObjectP20Delegate_t1188392813E6InvokeEjP11Il2CppClassS1_S1_S3_
hWa:__ZNK12MeshRenderer22GetTypeVirtualInternalEv
z8h:_Char_System_IConvertible_ToUInt32_m3901815580
fNg:_Scrollbar_set_onValueChanged_m346467699
B4c:__ZN13ProduceHelperI13BoxCollider2DLb0EE7ProduceE10MemLabelId18ObjectCreationMode
V2d:_ColorBlock_set_disabledColor_m2996580094
O5k:__Z157RuntimeInvoker_Int32_t2950945753_RuntimeObject_Int32_t2950945753_Int32_t2950945753_Int32_t2950945753_SByte_t1669577662_SByte_t1669577662_Int32U26_t1369213839PFvvEPK10MethodInfoPvPS4_
V6h:_Byte_System_IConvertible_ToBoolean_m2888023769_AdjustorThunk
Zln:_ListPool_1_Release_m957266927_gshared
Hve:__ZL105ConfigHandler_t4192437216_CustomAttributesCacheGenerator_ConfigHandler_ValidatePath_m3895556516____paths1P21CustomAttributesCache
Duc:__Z32Behaviour_Get_Custom_PropEnabledP12Il2CppObject
zIf:__ZN24ObjectRecord_t118746727216set_ArrayIndex_9EP22Int32U5BU5D_t385246372
eqg:_Transform_set_localPosition_Injected_m2951700666
J3g:__ZN32InternalEnumerator_1_t323283923111set_array_0EP11Il2CppArray
vYo:_write
Gdn:__ZNK24EventTrigger_t252745169513get_m_Rules_4Ev
NDa:__ZN14SafeBinaryRead19TransferSTLStyleMapINSt3__23mapIN4core12basic_stringIcNS3_20StringStorageDefaultIcEEEES7_NS1_4lessIS7_EE13stl_allocatorINS1_4pairIKS7_S7_EEL18MemLabelIdentifier1ELi16EEEEEEvRT_17TransferMetaFlags
Bca:__ZL51__ManagedRegistrationHelperFunction_QuaternionProxyPv
Wwd:__ZN2UI6Canvas27UpdateEventIndexesRecursiveERi
WL:__ZN11UnityEngine15CloudWebService16SessionContainer21PrepareDataErrorEventERN4core12basic_stringIcNS2_20StringStorageDefaultIcEEEE
VTn:__ZNK30dense_hashtable_const_iteratorINSt3__24pairIK10KeyWrapperIPK19Il2CppGenericMethodEPK26Il2CppGenericMethodIndicesEES6_N6il2cpp8metadata23Il2CppGenericMethodHashEN14dense_hash_mapIS6_SA_SE_NS6_14EqualsComparerINSD_26Il2CppGenericMethodCompareEEENS0_9allocatorISB_EEE9SelectKeyESI_SK_EneERKSN_
oRd:_ExecuteEvents_get_pointerUpHandler_m3515704212
J9h:_ArrayList_set_Item_m2003485935
RHo:__ZNSt3__218uninitialized_copyIPNS_4pairIK10KeyWrapperIPK19Il2CppGenericMethodEP10MethodInfoEESB_EET0_T_SD_SC_
pBf:_SatelliteContractVersionAttribute__ctor_m3630863995
CZb:__Z36CreateScriptingArrayFromUnityObjectsI13dynamic_arrayIP6CameraLj0EEE17ScriptingArrayPtrRKT_PKN5Unity4TypeE
SBe:__ZL79Convert_t2465617642_CustomAttributesCacheGenerator_Convert_ToUInt64_m3102114524P21CustomAttributesCache
BXd:_MouseButtonEventData_PressedThisFrame_m1060658845
jMd:_AxisEventData_get_moveVector_m270528189
e9g:_InternalEnumerator_1_System_Collections_IEnumerator_get_Current_m191386315_gshared
TWe:__ZL83AudioSource_t3935305588_CustomAttributesCacheGenerator_AudioSource_Play_m3389845180P21CustomAttributesCache
stn:__ZNK45AudioAmbisonicExtensionDefinition_t411842689016get_definition_1Ev
qqc:__Z28BuildSingleStreamChannelInfoP11ChannelInfo17ShaderChannelMaskS1_
Sap:_emscripten_glCopyTexSubImage2D__wrapper
qOa:__ZNK13ScreenManager12GetIsFocusedEv
ydg:_PlayerConnection_get_isConnected_m911966057
mfe:_GraphicRegistry_GetGraphicsForCanvas_m4219276355
DMj:__ZN23InterfaceActionInvoker3IP22ByteU5BU5D_t4116647657iiE6InvokeEjP11Il2CppClassP12Il2CppObjectS1_ii
mIf:__ZN24ObjectReader_t194095739219set__rootObjectID_9Ex
pUo:__ZN6il2cpp2os20ReaderWriterLockImpl16ReleaseExclusiveEv
Hej:_NumberFormatter_FastToDecHex_m699829267
GOm:_PatternCompiler_MakeFlags_m1977119795
PKc:__Z35Transfer_Blittable_FixedBufferFieldI8JSONReadiEvRK29SerializationCommandArgumentsR31RuntimeSerializationCommandInfo
swe:__ZL59StreamingContext_t3711869237_CustomAttributesCacheGeneratorP21CustomAttributesCache
c0n:__ZNSt3__213__vector_baseIN6il2cpp2os19SocketHandleWrapperENS_9allocatorIS3_EEED2Ev
fne:__ZL48_Type_t3588564251_CustomAttributesCacheGeneratorP21CustomAttributesCache
p9h:__ZN26CharEnumerator_t112147042112set_length_2Ei
GPk:_BigInteger_GeneratePseudoPrime_m1941064930
k3e:__ZL81FontUpdateTracker_t1839077620_CustomAttributesCacheGenerator_U3CU3Ef__mgU24cache0P21CustomAttributesCache
mRa:__ZN28ReflectionProbeAnchorManager18RemoveCachedAnchorERK4PPtrI9TransformE
Qb:invoke_viiffi
ype:__ZL103RegionInfo_t1090270226_CustomAttributesCacheGenerator_RegionInfo_t1090270226____NativeName_PropertyInfoP21CustomAttributesCache
$0b:__ZN13sorted_vectorINSt3__24pairIN4core12basic_stringIcNS2_20StringStorageDefaultIcEEEEPK17MessageIdentifierEEN10vector_mapIS6_S9_NS0_4lessIS6_EENS0_9allocatorISA_EEE13value_compareESF_E10insert_oneERKSA_
jtl:_Monitor_Monitor_wait_m3706677354
HBj:__ZNK23CultureInfo_t415784306815get_textInfo_16Ev
uqi:__Z25Il2CppCodeGenWriteBarrierI27SslClientStream_t3914624661EvPPT_S2_
hBf:_ResourceSet_ReadResources_m3663669011
Tua:__ZL13MeshExtractorPv16VertexInputMasksiR11MeshBuffersR16DrawBuffersRangeRiS5_
OHa:__ZNK12CubemapArray20GetRuntimeMemorySizeEv
sxl:_TimeSpan_FromHours_m1109641064
SCm:__ZNK29X501_t1758824426_StaticFields25get_stateOrProvinceName_5Ev
r7b:__Z14resize_trimmedINSt3__26vectorIN9ShaderLab18SerializedPropertyENS0_9allocatorIS3_EEEEEvRT_j
pNd:__ZNK27BaseInputModule_t201926887819get_m_EventSystem_6Ev
mcn:_SpeedBox_Start_m233292792
Okb:__Z18Transfer_BlittableI17RemapPPtrTransferLb0EN4math12int3_storageEEvRK29SerializationCommandArgumentsR31RuntimeSerializationCommandInfo
gHe:__ZL92StaticAccessorAttribute_t2432663902_CustomAttributesCacheGenerator_U3CNameU3Ek__BackingFieldP21CustomAttributesCache
G3g:__Z41InternalEnumerator_1_MoveNext_m2234422530P32InternalEnumerator_1_t1765566171PK10MethodInfo
Gch:_InternalEnumerator_1__ctor_m4124630986_gshared
jNa:__ZN12SharedObjectI23TextureStreamingResultsLb1E27SharedObjectDeleteReleaseOpIS0_EE5ResetEv
ZOd:_EventSystem_set_current_m38955169
i3c:__ZN13BoxCollider2D23VirtualRedirectTransferER18StreamedBinaryRead
Zwk:_KeyValuePair_2_set_Value_m3358607572_gshared
s5e:__ZL53Selectable_t3250028441_CustomAttributesCacheGeneratorP21CustomAttributesCache
$sd:__ZNSt3__26__treeIN4math12int3_storageE20TilemapPosition_Less13stl_allocatorIS2_L18MemLabelIdentifier95ELi16EEE25__emplace_unique_key_argsIS2_JRKS2_EEENS_4pairINS_15__tree_iteratorIS2_PNS_11__tree_nodeIS2_PvEEiEEbEERKT_DpOT0_
UMm:_CostDelegate_EndInvoke_m2797921932
FGa:__ZN10VertexData8TransferI24GenerateTypeTreeTransferEEvRT_
CGj:__ZN6Guid_t9set__k_10Eh
gBh:__ZNK26ClientIdentity_t142804684421get__proxyReference_7Ev
vHi:__ZN21InterfaceFuncInvoker1I19Decimal_t2948259380P12Il2CppObjectE6InvokeEjP11Il2CppClassS2_S2_
mHo:__ZN13Il2CppHashMapIPK19Il2CppGenericMethodP10MethodInfoN6il2cpp8metadata23Il2CppGenericMethodHashENS6_26Il2CppGenericMethodCompareENSt3__29allocatorINS9_4pairIK10KeyWrapperIS2_ES4_EEEEEC2EjRKS7_RKS8_
uHh:__ZN19Context_t328544694424set_context_properties_7EP21ArrayList_t2718874744
fng:_Screen_get_dpi_m495672463
drl:_UTF8Encoding_InternalGetByteCount_m2120178851
eli:__ZN18VirtActionInvoker1I25RSAParameters_t1728406613E6InvokeEjP12Il2CppObjectS0_
aU:__ZN24ProfilerCallbacksHandler22CreateCategoryCallbackEtPv
eMo:_GC_default_oom_fn
PWb:__ZL10CullLightsRK22SceneCullingParametersR11CullResults
P5m:__ZN18Galaxy_t220907393512set_direct_5Ei
awg:_InputField_SendOnSubmit_m3463846103
rKi:_Convert_ToUInt64_m3170916409
Ebm:_InvokableCall_3__ctor_m4245235439_gshared
ogj:_Int64_System_IConvertible_ToInt16_m4062196970_AdjustorThunk
Rlj:_MonoType_GetGenericTypeDefinition_m3201894896
Doc:__Z40GetTemporaryCachePathApplicationSpecificv
Kab:__ZN9GfxDevice16EndAsyncJobFrameEv
Vcl:__Z99RuntimeInvoker_Int32_t2950945753_Ray_t3785851493_RuntimeObject_Single_t1397266774_Int32_t2950945753PFvvEPK10MethodInfoPvPS4_
Sbo:__ZNK15dense_hashtableINSt3__24pairIK10KeyWrapperINS1_IPK12PropertyInfoP11Il2CppClassEEEjEES9_17ReflectionMapHashIS8_EN14dense_hash_mapIS9_jSD_NS9_14EqualsComparerINS0_8equal_toIS8_EEEENS0_9allocatorISB_EEE9SelectKeyESI_SK_E10test_emptyERK30dense_hashtable_const_iteratorISB_S9_SD_SM_SI_SK_E
xid:_UNITY_tt_face_load_hhea
Imj:_NumberFormatter_NumberToString_m2529982306
wC:__ZN12AudioManager27InitialCompleteDomainReloadEv
nBj:__ZN36CultureInfo_t4157843068_StaticFields23set_shared_table_lock_5EP12Il2CppObject
Iy:__ZN4PPtrI15AudioMixerGroupE8TransferI19StreamedBinaryWriteEEvRT_
Tpg:__ZN28TrackedReference_t119977755611set_m_Ptr_0Ei
re:___syscall3
LLe:__ZL95MonoBehaviour_t3962482529_CustomAttributesCacheGenerator_MonoBehaviour_CancelInvoke_m3252264575P21CustomAttributesCache
Lcl:__Z135RuntimeInvoker_RaycastHit2D_t2279581989_Vector2_t2156229523_Vector2_t2156229523_Single_t1397266774_Int32_t2950945753_Single_t1397266774PFvvEPK10MethodInfoPvPS4_
Be:___syscall6
Qbb:__ZN9GfxDevice15GetNextCPUFenceEv
ve:___syscall4
AU:__ZN24ProfilerCallbacksHandler27RegisterCreateEventCallbackEPFvPK23UnityProfilerMarkerDescPvES3_
LRh:_ReturnMessage__ctor_m2352989078
pgg:__ZN39PlayableBinding_t354260709_StaticFields21set_DefaultDuration_5Ed
cKn:__ZN34Physics2D_t1528932956_StaticFields31set_m_LastDisabledRigidbody2D_0EP18List_1_t2411569343
u9l:__ZN16VirtFuncInvoker1Ib19Vector3_t3722313464E6InvokeEjP12Il2CppObjectS0_
G9a:__ZNSt3__26__treeINS_12__value_typeIN4core12basic_stringIcNS2_20StringStorageDefaultIcEEEEPN16MemoryFileSystem4NodeEEENS_19__map_value_compareIS6_SA_NS_4lessIS6_EELb1EEE13stl_allocatorISA_L18MemLabelIdentifier55ELi16EEE7destroyEPNS_11__tree_nodeISA_PvEE
sRg:__ZNK16Text_t190188271442get_m_DisableFontTextureRebuiltCallback_35Ev
hdl:__Z67RuntimeInvoker_Boolean_t97287965_TextGenerationSettings_t1351628751PFvvEPK10MethodInfoPvPS4_
eBo:__ZN6il2cpp2vm3RCW14QueryInterfaceILb1EEEP14Il2CppIUnknownP15Il2CppComObjectRK10Il2CppGuid
yri:_TlsServerCertificateRequest__ctor_m1334974076
fMk:__ZNK23Contraction_t158927535417get_Replacement_1Ev
sPc:__ZN27PerformanceReportingManager23VirtualRedirectTransferER14SafeBinaryRead
Ct:__ZN9Scripting11UnityEngine30RuntimeAnimatorControllerProxy9InitProxyEv
T1h:__ZN40AppDomain_t1571427825_ThreadStaticFields30set_type_resolve_in_progress_3EP21Hashtable_t1853889766
xBo:__ZN6il2cpp2vmL25InflatePropertyDefinitionEPK12PropertyInfoPS1_P11Il2CppClassP20Il2CppGenericContext
pIi:_Convert_ToInt32_m1613163543
iml:__Z52RuntimeInvoker_TimeSpan_t881159249_Int32_t2950945753PFvvEPK10MethodInfoPvPS4_
gEg:_MatEntry__ctor_m1949610076
BZl:_ReadOnlyCollection_1_System_Collections_ICollection_CopyTo_m3127175806_gshared
oh:_emscripten_glShaderBinary
BZj:_String_op_Inequality_m215368492
hN:__ZN15DownloadHandler19OnFinishReceiveDataEv
dBl:_UInt16_ToString_m760649087
H5a:__ZNK20LocalFileSystemPosix6ExistsERK13FileEntryData
dBi:_Queue_Dequeue_m2397857002
q6k:__Z21RuntimeInvoker_Guid_tPFvvEPK10MethodInfoPvPS4_
l7k:__Z46RuntimeInvoker_CipherAlgorithmType_t1174400495PFvvEPK10MethodInfoPvPS4_
sZg:__ZNK32InternalEnumerator_1_t343728143611get_array_0Ev
zCm:__ZN26X509Certificate_t48924302521set_issuerUniqueID_19EP22ByteU5BU5D_t4116647657
L0f:_Camera_GetAllCameras_m668492922
a1k:__Z32RuntimeInvoker_Label_t2281661643PFvvEPK10MethodInfoPvPS4_
osm:__ZNK19Queue_1_t120077810614get__version_3Ev
Jzd:__Z58Register_UnityEngine_Canvas_GetETC1SupportedCanvasMaterialv
Jxl:_TimeSpan_op_Inequality_m2467851530
EUf:__ZN27DES_t821106792_StaticFields19set_semiWeakKeys_11EP25ByteU5BU2CU5D_t4116647658
nMl:_Array_Sort_TisUIVertex_t4057497605_m3996333845_gshared
SVj:_ToBase64Transform_get_CanReuseTransform_m702204640
tVi:__ZNK36NameObjectCollectionBase_t209184736419get_m_defCapacity_5Ev
OUe:__ZL73ContactFilter2D_t3805203441_CustomAttributesCacheGenerator_maxNormalAngleP21CustomAttributesCache
pof:__ZN31OpCodes_t126150456_StaticFields13set_Ldftn_205E17OpCode_t123070264
Oal:__Z53RuntimeInvoker_PropertyName_t3749835189_RuntimeObjectPFvvEPK10MethodInfoPvPS4_
V4h:_Swapper_BeginInvoke_m1688449973
w3f:_Display_get_renderingWidth_m1970428952
uGn:__ZNK21HumanBone_t246533951817get_m_HumanName_1Ev
p7k:__Z81RuntimeInvoker_Void_t1185182177_RuntimeObject_Int32_t2950945753_Int64_t3736567304PFvvEPK10MethodInfoPvPS4_
G8b:__ZN15SerializeTraitsI13dynamic_arrayIN9ShaderLab21SerializedBindChannelELj0EEE8TransferI19StreamedBinaryWriteEEvRS3_RT_
JWo:_islower
xhm:_List_1_System_Collections_IList_Remove_m3654336679_gshared
dw:__ZNSt3__26vectorIN4core12basic_stringIcNS1_20StringStorageDefaultIcEEEE13stl_allocatorIS5_L18MemLabelIdentifier1ELi16EEE21__push_back_slow_pathIS5_EEvOT_
MCk:_Enumerator_System_Collections_IEnumerator_Reset_m3057416204_AdjustorThunk
DLe:__ZL92Mesh_t3648964284_CustomAttributesCacheGenerator_Mesh_SetTriangles_m2205169959____baseVertex3P21CustomAttributesCache
Cjl:__Z52RuntimeInvoker_Int32_t2950945753_HitInfo_t3229609740PFvvEPK10MethodInfoPvPS4_
M3k:__Z86RuntimeInvoker_Boolean_t97287965_Int16_t2552820387_Int16_t2552820387_Int32_t2950945753PFvvEPK10MethodInfoPvPS4_
pAe:__ZL80Convert_t2465617642_CustomAttributesCacheGenerator_Convert_ToBoolean_m2807110707P21CustomAttributesCache
eia:__ZN9Scripting11UnityEngine11CameraProxy12CleanupProxyEv
Ekn:_IndexedSet_1_IndexOf_m241693686_gshared
RWl:_Collection_1_System_Collections_IList_Add_m1802516464_gshared
Ozk:__ZNK22Enumerator_t214645748710get_next_1Ev
HCd:__ZN11UnityEngine15PlatformWrapper30GetGraphicsDriverLibraryStringEv
Lpb:__ZL17Transfer_GUIStyleI19StreamedBinaryWriteLb1EEvRK29SerializationCommandArgumentsR31RuntimeSerializationCommandInfo
Y1d:__Z32IndexedSet_1_Contains_m896713622P24IndexedSet_1_t3571286806P12Il2CppObjectPK10MethodInfo
Jzh:_CADMethodReturnMessage_GetException_m4034410903
yCl:_UInt64_System_IConvertible_ToSingle_m925613075_AdjustorThunk
Wdo:__ZN6il2cpp2vm10Reflection27GetCustomAttributesCacheForEPK12PropertyInfo
gwn:__ZL24UnresolvedVirtualCall_40P12Il2CppObjectS0_PK10MethodInfo
Wmn:_ListPool_1__cctor_m704263611_gshared
tgh:_InternalEnumerator_1_System_Collections_IEnumerator_Reset_m158730371_gshared
su:__ZN16MecanimAnimation24DeleteAnimatedPropertiesERP26IAnimatedPropertyEvaluator
Psd:__Z28RegisterModuleICalls_Tilemapv
uij:_Math_Min_m3468062251
tLj:__ZN28StreamAsyncResult_t78024851212set_nbytes_4Ei
vMb:__Z14DrawGUITextureRK5RectTIfEP7Texture11ColorRGBA32P8Materiali
kEk:__ZN22Enumerator_t326161813313set_current_3E22UILineInfo_t4195266810
Hdf:__ZN23ILTokenInfo_t232577511414set_code_pos_1Ei
$Zl:_ReadOnlyCollection_1_System_Collections_Generic_ICollectionU3CTU3E_Add_m2686599243_gshared
Gqg:_Transform_IsChildOf_m224006092
FVc:__ZNK11b2EdgeShape7RayCastEP15b2RayCastOutputRK14b2RayCastInputRK11b2Transformi
lSg:__Z27Action_1_Invoke_m1892723854P19Action_1_t269755560bPK10MethodInfo
yKc:__ZN9JSONWrite8TransferI4AABBEEvRT_PKc17TransferMetaFlags
y5b:__ZN15dense_hashtableINSt3__24pairIKiN4core17string_with_labelILi1EEEEEi18SInt32HashFunctionN14dense_hash_mapIiS5_S7_NS0_8equal_toIiEE13stl_allocatorIS6_L18MemLabelIdentifier1ELi16EEE9SelectKeyESA_SD_E12expand_arrayEjN21dense_hash_map_traits17integral_constantIbLb0EEE
Jem:_List_1_Clear_m2154023298_gshared
I3i:__ZN27X509Certificate2_t71404912618set_issuer_name_10EP32X500DistinguishedName_t875709727
_Ld:_AbstractEventData_get_used_m2991176710
NKe:__ZL91RectOffset_t1369453676_CustomAttributesCacheGenerator_RectOffset_InternalCreate_m1442450486P21CustomAttributesCache
Ngl:__Z94RuntimeInvoker_Void_t1185182177_ObjectU5BU5DU26_t712384779_Int32_t2950945753_Int32_t2950945753PFvvEPK10MethodInfoPvPS4_
o$c:__ZN10Collider2D13AwakeFromLoadE17AwakeFromLoadMode
y3m:_Aes__ctor_m178909601
IKa:__ZNK9Texture2D20GetRuntimeMemorySizeEv
y0d:_CanvasScaler_set_screenMatchMode_m2975492035
dOc:__ZN5Unity9rapidjson13GenericReaderINS0_4UTF8IcEES3_13JSONAllocatorE9ParseTrueILj0ENS0_19GenericStringStreamIS3_EENS0_15GenericDocumentIS3_S4_S4_EEEEvRT0_RT1_
zon:_Vector2_op_Implicit_m4260192859
Kh:_emscripten_glUniform2iv
THj:_Guid_ToString_m2120285561
X0g:__Z69InternalEnumerator_1_System_Collections_IEnumerator_Reset_m3873091784P31InternalEnumerator_1_t348664125PK10MethodInfo
pFk:_Enumerator_Dispose_m2367629053_gshared
Trl:_UnicodeEncoding_CopyChars_m785272451
Vvk:_Enumerator_Dispose_m1204547613_AdjustorThunk
Jbd:_UNITY_FT_Outline_Transform
noi:_CipherSuite_get_ExchangeAlgorithmType_m1633709183
PGe:__ZL118NativeMethodAttribute_t4187428193_CustomAttributesCacheGenerator_NativeMethodAttribute_set_HasExplicitThis_m2961870915P21CustomAttributesCache
xOn:__ZN6il2cpp2vm5Class10GetMethodsEP11Il2CppClassPPv
vbg:__ZNK34Matrix4x4_t1817901843_StaticFields21get_identityMatrix_17Ev
pId:__ZNK25UnityWebRequestJavaScript17GetUploadProgressEv
ySb:__Z30AddDefaultStreamsToMeshBuffersR9GfxDeviceR11MeshBuffersRK16DrawBuffersRange17ShaderChannelMaskS6_
G3h:_Array_GetValue_m2528546681
bvj:__ZN24StreamReader_t400993589917set_base_stream_9EP18Stream_t1273022909
Xim:_List_1_GetEnumerator_m1430071802_gshared
DTg:__ZNK31ArrayReadOnlyList_1_t147838354311get_array_0Ev
FGb:__ZN7ApiGLES17DeleteFramebufferERN2gl6HandleILNS0_10ObjectTypeE9EEES3_
K6o:_glGenFramebuffers__wrapper
VIb:__ZN15UniformTFMethod13MapBoneBufferEj
jvd:__ZN2UI14CanvasRendererD2Ev
JPl:_Array_InternalArray__get_Item_TisParameterModifier_t1461694466_m29553316_gshared
prf:_FieldInfo_internal_from_handle_type_m3256989094
Ggj:_Int64_CompareTo_m1928360444_AdjustorThunk
o3n:__ZN6il2cpp6icalls8mscorlib6SystemL23GetPropertiesByNameImplINS_5utils10functional6FilterINSt3__212basic_stringIcNS7_11char_traitsIcEENS7_9allocatorIcEEEENS4_13VmStringUtils21CaseSensitiveComparerEEEEEP11Il2CppArrayPK10Il2CppTypejRKT_
Qxb:__Z9SetupArgviPPKc
KIi:_Convert_ToInt64_m2075031821
IOe:__ZL111ScriptableObject_t2528358522_CustomAttributesCacheGenerator_ScriptableObject_CreateScriptableObject_m3504774547P21CustomAttributesCache
U4g:_InternalEnumerator_1__ctor_m236665673_gshared
pLd:__ZL55__ManagedRegistrationHelperFunction_ReferencePointProxyPv
WUh:_RemotingException__ctor_m1015537352
R7j:_Array_get_swapper_TisVector3_t3722313464_m1221246401_gshared
WKk:__ZNK26SimpleCollator_t287783472917get_cjkLv1Table_5Ev
zto:___cxx_global_var_init_1_45201
ISg:__ZN25GenericVirtActionInvoker2IP12Il2CppObjectiE6InvokeEPK10MethodInfoS1_S1_i
SHa:__ZN12CubemapArray23VirtualRedirectTransferER24GenerateTypeTreeTransfer
x$:__ZN12FileAccessor4OpenER15FileSystemEntry14FilePermission16FileAutoBehavior
pxa:__ZNSt3__26vectorI4PPtrI6ShaderE13stl_allocatorIS3_L18MemLabelIdentifier53ELi16EEE8__appendEj
CGo:__ZN6il2cpp2os9Directory6CreateERKNSt3__212basic_stringIcNS2_11char_traitsIcEENS2_9allocatorIcEEEEPi
ASn:__ZNK10KeyWrapperIPKcE8isNormalEv
$oa:__ZN23TransformChangeDispatch32QueueTransformChangeIfHasChangedERK15TransformAccess
rmj:__ZN40NumberFormatter_t1182924621_StaticFields34get_address_of_TensExponentTable_1Ev
$ap:_glTexImage3D__wrapper
n7a:__ZN15ArchiveReadFile5WriteEyPKvPy
BDk:_Enumerator_VerifyState_m3505660202_AdjustorThunk
coj:_Assembly_get_FullName_m293988418
x5c:__ZN22WorldContactListener2D8PreSolveEP9b2ContactPK10b2Manifold
Wgf:__ZN25MethodBuilder_t280731675311set_ilgen_8EP23ILGenerator_t1388622344
r0f:_Camera_get_pixelRect_Injected_m2326986893
uyn:__ZL25UnresolvedVirtualCall_162P12Il2CppObjectiaPK10MethodInfo
nVm:_Uri_Parse_m736300106
Lbm:__ZN27InvokableCall_4_t275698074614set_Delegate_0EP24UnityAction_4_t682480391
Nfa:__ZN9Scripting11UnityEngine25ManagedStreamHelpersProxy9InitProxyEv
x:tempValue
BTj:__ZN23SHA384Managed_t741585759set_H7_14Ey
D2b:__Z29StdTemplateConversionFunctionIaiEbPvR14SafeBinaryRead
ZUo:__ZN6il2cpp8metadata24Il2CppGenericContextHash4HashEPK20Il2CppGenericContext
J5g:_InternalEnumerator_1_get_Current_m356936020_AdjustorThunk
hNb:__ZN6Camera21RenderODSWorldTextureERK11CullResultsRK19SharedRendererSceneR17ShaderPassContextNS_10RenderFlagE
avd:__ZN4PPtrI6CameraE8TransferI19StreamedBinaryWriteEEvRT_
y1f:__ZN19Color32_t260050129210set_rgba_0Ei
Vfj:_Int32_ToString_m141394615_AdjustorThunk
kX:__Z29scripting_class_from_fullnamePKcS0_S0_
fwj:_Directory_GetCurrentDirectory_m219218555
wAf:__Z36il2cpp_codegen_com_get_or_create_ccwI14Il2CppIUnknownEPT_P12Il2CppObject
Sl:_llvm_floor_f32
TIk:__ZN45MSCompatUnicodeTable_t1453885583_StaticFields21set_tailoringInfos_16EP31TailoringInfoU5BU5D_t1797664499
o0h:_SmallXmlParser_UnexpectedEndError_m1914362401
c8c:__ZThn356_N10SpriteMask18UpdateCachedSpriteEb
Wve:__ZL61FormatterTypeStyle_t3400733584_CustomAttributesCacheGeneratorP21CustomAttributesCache
Pae:__ZN19FontData_t74662006915set_m_BestFit_3Eb
YIo:__ZN4utf88internal20is_overlong_sequenceIiEEbjT_
v0b:__ZN20TextureStreamingData19AllocateTextureInfoEP17StreamingRendererjPK20StreamingTextureInfo
gF:__ZN11AudioSource19CreateOpenALRolloffEfff
rid:_UNITY_FT_Stream_ReadAt
pxk:__Z36KeyValuePair_2_set_Value_m3305319569P26KeyValuePair_2_t3842366416bPK10MethodInfo
D0d:__ZNK24CanvasScaler_t276797995521get_m_PhysicalUnit_11Ev
Y_n:__ZN24dense_hashtable_iteratorINSt3__24pairIK10KeyWrapperIP9FieldInfoEiEES5_N6il2cpp5utils11PointerHashIS3_EEN14dense_hash_mapIS5_iSB_NS5_14EqualsComparerINS0_8equal_toIS4_EEEENS0_9allocatorIS7_EEE9SelectKeyESG_SI_EC2EPK15dense_hashtableIS7_S5_SB_SK_SG_SI_EPS7_SQ_b
wwl:_TimeSpan__ctor_m1896986612_AdjustorThunk
jFl:__ZNK36RC2Transform_t458321487_StaticFields14get_pitable_18Ev
yeb:__ZN13ComputeBuffer7SetDataER9GfxDevicePKvjj
crk:_EqualityComparer_1_System_Collections_IEqualityComparer_Equals_m1907027006_gshared
JFh:__Z25Il2CppCodeGenWriteBarrierI23ChannelData_t3353629972EvPPT_S2_
yWh:_ArgumentException__ctor_m1216717135
ajg:_Ray_ToString_m1732834890_AdjustorThunk
O5n:__ZN10KeyWrapperINSt3__24pairIPK14Il2CppAssemblyP11Il2CppClassEEEC2ERKS7_
Mtl:__ZNK32RegisteredWaitHandle_t152953845417get__finalEvent_6Ev
mKc:__ZN9JSONWrite8TransferI13dynamic_arrayI5RectTIfELj0EEEEvRT_PKc17TransferMetaFlags
Dkm:_List_1_System_Collections_IList_Contains_m3860993176_gshared
XKi:__ZN46CurrentSystemTimeZone_t3998352255_StaticFields20set_this_year_dlt_10EP24DaylightTime_t2582425773
NI:__ZN11AudioModule22CreateAudioClipFromWWWEP10IWWWStreamPKcbbi
Ddc:__ZN9Texture2DC2E10MemLabelId18ObjectCreationMode
Mzb:__Z17DebugStringToFileIA59_cEvRKT_iPKci15LogMessageFlagsiiPFvRK11CppLogEntryE
CGf:_ObjectRecord_get_IsUnsolvedObjectReference_m1163921033
hBl:_UInt32_System_IConvertible_ToBoolean_m1763673183_AdjustorThunk
fin:__Z22Func_2__ctor_m16758224P18Func_2_t3446800538P12Il2CppObjectiPK10MethodInfo
$5f:_UnityEvent_AddListener_m2276267359
tGa:__ZN13dynamic_arrayI11ChannelInfoLj0EE18resize_initializedEj12ResizePolicy
Y9k:__Z35RuntimeInvoker_RangeInt_t2094684618PFvvEPK10MethodInfoPvPS4_
H$f:_Bounds_get_extents_m1304537151
mAa:__ZN6prcoreL11inner_clearILj4EEEvPhjjj
Lxn:__ZL25UnresolvedVirtualCall_125P12Il2CppObjectS0_aPK10MethodInfo
iPh:_MethodCall_get_Args_m148309537
nQm:__ZNK18Parser_t24305093839get_gap_5Ev
NNm:__ZN30Match_t3408321083_StaticFields12set_empty_10EP17Match_t3408321083
WPh:_DictionaryEnumerator_get_Value_m2166220004
ROd:__ZN23EventSystem_t100366658828set_m_sendNavigationEvents_8Eb
tsn:_PCMReaderCallback_BeginInvoke_m3391809637
zQ:__GLOBAL__sub_I_Runtime_SceneManager_0_cpp
pZk:__Z74RuntimeInvoker_Void_t1185182177_RuntimeObject_StreamingContext_t3711869237PFvvEPK10MethodInfoPvPS4_
Tcj:_NumberFormatter_FormatExponential_m1436810062
_zk:_Enumerator_MoveNext_m2142368520_AdjustorThunk
Qdf:__ZNK17OpCode_t1230702649get_op1_0Ev
zug:_SetPropertyUtility_SetColor_m2229203028
ojo:_il2cpp_class_get_field_from_name
y$o:___cxa_guard_abort
wZ:__ZN14MessageHandler28MessageIDToMessageIdentifierEi
Pan:_U3CModifyGravityU3Ec__Iterator1_Reset_m1657592066
nHa:__ZNK11SpriteAtlas20GetRuntimeRenderDataEPK6Sprite
f4f:__ZNK25ArgumentCache_t218795839919get_m_IntArgument_2Ev
PJj:_FileSystemInfo__ctor_m3035148496
kfj:_Int32_System_IConvertible_ToDecimal_m2190376994_AdjustorThunk
fxk:_KeyValuePair_2_set_Key_m2121548577_AdjustorThunk
Kml:__Z46RuntimeInvoker_RefEmitPermissionSet_t484390987PFvvEPK10MethodInfoPvPS4_
ezn:__ZL25UnresolvedVirtualCall_200P12Il2CppObjectaaPK10MethodInfo
Yye:__ZL88UTF7Encoding_t2644108479_CustomAttributesCacheGenerator_UTF7Encoding_GetBytes_m521917477P21CustomAttributesCache
fte:__ZL61ClassInterfaceType_t4029497327_CustomAttributesCacheGeneratorP21CustomAttributesCache
wdn:__Z25Il2CppCodeGenWriteBarrierI18List_1_t3418373063EvPPT_S2_
uw:__Z51Register_UnityEngine_Animator_get_hasBoundPlayablesv
Gxm:_Collection_1_CopyTo_m3142835220_gshared
Lm:emscriptenWebGLGetUniform
ao:FUNCTION_TABLE_iiiiiiiiiii
fZm:_GUI_CallWindowDelegate_m3309453386
Lgd:_cff_set_mm_blend
nGn:_AnimationScriptPlayable_GetHandle_m632811930_AdjustorThunk
Xvb:__ZN19GfxThreadableDevice15OnDeviceCreatedEb
GYb:__ZL10CleanUpJobP20CullingGroupsJobData
JVa:__ZN16BlendShapeVertex8TransferI19StreamedBinaryWriteEEvRT_
wSb:__Z20IsRunningNativeTestsv
DJj:_DirectoryInfo_get_Exists_m3142069876
LSa:__ZN10MeshFilter23VirtualRedirectTransferER24GenerateTypeTreeTransfer
mMb:__ZN13RenderManager15BatchModeUpdateEv
U7l:_Predicate_1__ctor_m327447107_gshared
Ox:__ZN20DiagnosticSwitchEnumI23FMODDebugDisplayOptionsE18SetValueFromStringEPKc
Uy:__ZL16FMOD_ErrorString11FMOD_RESULT_656
H5i:_X509Chain_get_CertificateAuthorities_m804805415
bTb:__Z14SetupLightmapsRK8Vector4fS1_R17ShaderPassContext
FUe:__ZL71ContactFilter2D_t3805203441_CustomAttributesCacheGenerator_useLayerMaskP21CustomAttributesCache
LYj:__ZNK20Evidence_t200814414815get__hashCode_3Ev
Eon:_Vector2_get_one_m738793577
a1c:__ZN10ClipperLib7Clipper15SetWindingCountERNS_5TEdgeE
XPf:_InstanceComparer_System_Collections_IHashCodeProvider_GetHashCode_m1305577427
zpc:__ZNK4Mesh14GetIndexFormatEv
QTg:__ZN43U3CGetEnumeratorU3Ec__Iterator0_t375079332416set_U3CiU3E__0_0Ei
qon:_Vector2_get_magnitude_m2752892833_AdjustorThunk
QVd:__ZNK28PointerEventData_t380790109238get_U3CclickCountU3Ek__BackingField_18Ev
Ekj:__ZNK24MonoTypeInfo_t336698902518get_default_ctor_1Ev
F4m:__Z56Component_GetComponent_TisPlayer_t3266647312_m3431077271P21Component_t1923634451PK10MethodInfo
oWm:_UriParser_set_DefaultPort_m4007715058
bAo:__ZN14dense_hash_mapI10KeyWrapperIP12Il2CppObjectEN6il2cpp2gc9CachedCCWENS4_5utils11PointerHashIS1_EENS3_14EqualsComparerINSt3__28equal_toIS2_EEEENSB_9allocatorINSB_4pairIKS3_S6_EEEEE13set_empty_keyERSH_
Nga:__ZN9Scripting11UnityEngine12Experimental9Rendering21CameraPropertiesProxy9InitProxyEv
Hl:_glVertexAttribIPointer
ppl:_StringBuilder_ToString_m3317489284
apc:__ZNK6Sprite10GetPaddingE20SpriteRenderDataMode
N9j:_Array_InternalArray__ICollection_Remove_TisUInt32_t2560061978_m733727733_gshared
qTf:_CryptographicException__ctor_m503735289
KPn:_TileBase__ctor_m587868030
fce:__Z30Dictionary_2__ctor_m2330267198P23Dictionary_2_t369343732PK10MethodInfo
KMh:_ConstructionCall_get_CallSiteActivationAttributes_m3498917408
xam:__Z30InterlockedCompareExchangeImplIP24UnityAction_1_t682124106ET_PS2_S2_S2_
ALj:_Stream_EndRead_m1896469262
HWk:__Z93RuntimeInvoker_Boolean_t97287965_Int32_t2950945753_SByte_t1669577662_ExceptionU26_t3600731591PFvvEPK10MethodInfoPvPS4_
hHj:_Guid_CompareTo_m243656946
ajd:_UNITY_ft_glyphslot_alloc_bitmap
n3g:__ZN32InternalEnumerator_1_t176556617111set_array_0EP11Il2CppArray
_jk:_Dictionary_2_GetObjectData_m3463318060_gshared
wfh:__Z41InternalEnumerator_1_MoveNext_m1396448578P31InternalEnumerator_1_t807363631PK10MethodInfo
OXl:_ReadOnlyCollection_1_System_Collections_IList_Add_m3642938800_gshared
Rwi:_RSASslSignatureDeformatter_SetHashAlgorithm_m895570787
GV:__ZL36TransformAccessArray_InitializeClassPv
VJm:_X509CrlEntry__ctor_m4013514048
vwi:__ZN25SslStreamBase_t166741340714set_protocol_6EP26RecordProtocol_t3759049701
kHj:__ZNK6Guid_t8get__b_1Ev
BUn:__ZN15dense_hashtableI10KeyWrapperIPK17Il2CppGenericInstES4_N6il2cpp8metadata21Il2CppGenericInstHashEN14dense_hash_setIS4_S7_NS4_14EqualsComparerINS6_24Il2CppGenericInstCompareEEENSt3__29allocatorIS4_EEE8IdentityESB_SE_E16reset_thresholdsEv
D9k:__Z87RuntimeInvoker_Color_t2555686324_Color_t2555686324_Color_t2555686324_Single_t1397266774PFvvEPK10MethodInfoPvPS4_
qha:__ZN9Scripting11UnityEngine31ExcludeFromPresetAttributeProxy12CleanupProxyEv
Rnd:_ft_raster1_render
GAm:__ZNK29TlsServerSettings_t414439643218get_certificates_0Ev
dej:__ZNK40NumberFormatter_t1182924621_StaticFields19get_TenPowersList_4Ev
Fyc:__Z47Register_UnityEngine_Mesh_RecalculateBoundsImplv
oEk:_Enumerator_get_Current_m3382684163_AdjustorThunk
GXg:_InternalEnumerator_1_System_Collections_IEnumerator_Reset_m3677481164_AdjustorThunk
skf:_OpCode_get_OperandType_m1634816806_AdjustorThunk
hId:__ZN9Scripting11UnityEngine10Networking23CertificateHandlerProxy12CleanupProxyEv
N1i:__ZNK33X509KeyUsageExtension_t204210159116get__keyUsages_7Ev
j_o:__ZNKSt3__221__basic_string_commonILb1EE20__throw_length_errorEv
Wqk:_EqualityComparer_1_System_Collections_IEqualityComparer_Equals_m245992594_gshared
z5k:__Z52RuntimeInvoker_UInt64_t4134040092_Single_t1397266774PFvvEPK10MethodInfoPvPS4_
eOm:__ZNK27MatchCollection_t139536372010get_list_1Ev
FUh:__ZN46RemotingConfiguration_t4113740665_StaticFields19set_applicationID_0EP8String_t
iof:__ZN31OpCodes_t126150456_StaticFields17set_Prefixref_198E17OpCode_t123070264
kUh:_RealProxy_GetObjectData_m3709348912
Vdk:_Array_InternalArray__IndexOf_TisParameterModifier_t1461694466_m1227120810_gshared
oHb:__ZN18GfxFramebufferGLES13ReadbackImageER14ImageReferenceiiiiii
FOc:__ZN5Unity9rapidjson6WriterI16TempBufferWriterNS0_4UTF8IcEES4_13JSONAllocatorE11WriteStringEPKcj
OJk:__ZNK45MSCompatUnicodeTable_t1453885583_StaticFields20get_ignorableFlags_1Ev
C_e:__ZL95WebRequestUtils_t3541624225_CustomAttributesCacheGenerator_WebRequestUtils_RedirectTo_m55747000P21CustomAttributesCache
k9:__ZN6prcoreL12RemapGenericI17TexFormatARGB888815TexFormatRGB565EEvPKNS_9InnerInfoE
tA:__ZN4FMOD7Channel19setReverbPropertiesEPK29FMOD_REVERB_CHANNELPROPERTIES
ofh:__ZNK31InternalEnumerator_1_t80736363111get_array_0Ev
WOj:_StreamReader_Dispose_m156389394
_Y:__ZN13MonoBehaviour22GetScriptFullClassNameEv
lko:_il2cpp_object_get_class
JVj:_SymmetricAlgorithm_get_Padding_m1011382560
fnc:__ZN13ProduceHelperI11MonoManagerLb0EE7ProduceE10MemLabelId18ObjectCreationMode
WFl:_RIPEMD160Managed_JJ_m112143231
sgm:_List_1_System_Collections_IList_Contains_m727430316_gshared
Zjh:_Comparer_1__ctor_m191896560_gshared
$Nk:_PreviousInfo_t2148130204_marshal_pinvoke_back
u9a:__ZNK16MemoryFileSystem9EnumerateEPKcP19dynamic_block_arrayI13FileEntryInfoLj32EEbPPv19FileEnumerationFlag
Eub:__ZN13MonoBehaviour9CallAwakeEv
fyg:_SpriteState_get_pressedSprite_m3868967445
Uoj:__ZN37AssemblyDelaySignAttribute_t17644165411set_delay_0Eb
p_j:__ZN40SecurityElement_t1046076091_StaticFields19set_invalid_chars_8EP22CharU5BU5D_t3528271667
aAa:__ZN20SphericalHarmonicsL211AddWeightedERKS_f
pan:_U3CJumpingU3Ec__Iterator2_MoveNext_m3909601122
MZk:__Z82RuntimeInvoker_RuntimeObject_Int64_t3736567304_Int64_t3736567304_Int64_t3736567304PFvvEPK10MethodInfoPvPS4_
aai:__Z41Array_IndexOf_TisRuntimeObject_m828474689P12Il2CppObjectP24ObjectU5BU5D_t2843939325S0_iiPK10MethodInfo
_lb:__Z19TransferField_ArrayI17RemapPPtrTransfer27Converter_SimpleNativeClassI8GUIStyleEEvRK23StaticTransferFieldInfoR31RuntimeSerializationCommandInfoRT0_
Ine:__ZL56AsyncCallback_t3962456242_CustomAttributesCacheGeneratorP21CustomAttributesCache
zVj:__ZNK30SymmetricAlgorithm_t425422308713get_IVValue_1Ev
RHc:__ZN9JSONWrite8TransferI10ColorRGBAfEEvRT_PKc17TransferMetaFlags
sIj:__ZN16VirtFuncInvoker5IiP22ByteU5BU5D_t4116647657iiP22CharU5BU5D_t3528271667iE6InvokeEjP12Il2CppObjectS1_iiS3_i
yFd:__ZN11UnityEngine9Analytics22EventLimitResumedEventC2EjRKN4core12basic_stringIcNS2_20StringStorageDefaultIcEEEEb
Vdh:_InternalEnumerator_1__ctor_m3913006324_AdjustorThunk
qZ:__Z25scripting_method_get_name18ScriptingMethodPtr
Nvk:__ZN22Enumerator_t335023290913set_current_3EP12Il2CppObject
Eyi:_SslCipherSuite_ComputeKeys_m661027754
gej:__ZN21CustomInfo_t43517979828set_DecimalTailSharpDigits_3Ei
skb:__Z19TransferField_ArrayI14SafeBinaryRead16Converter_StringEvRK23StaticTransferFieldInfoR31RuntimeSerializationCommandInfoRT0_
$ud:__ZN2UI6Canvas8TransferI19StreamedBinaryWriteEEvRT_
m5m:__Z64Component_GetComponent_TisSpriteRenderer_t3235626157_m2253180502P21Component_t1923634451PK10MethodInfo
uNe:__ZL68UpdateCanvasRectTransform_t1832875547_CustomAttributesCacheGeneratorP21CustomAttributesCache
mSh:__Z25Il2CppCodeGenWriteBarrierI34MethodReturnDictionary_t2551046119EvPPT_S2_
Qej:__ZN27NumberFormatter_t118292462122set__isCustomFormat_10Eb
oEi:_Convert_ToBoolean_m481380807
tPi:_Decimal_Equals_m2486655999
_Oo:_GC_exit_check
Lpj:_AssemblyName_SetPublicKeyToken_m582470133
mRg:__ZN16Text_t190188271413set_m_Text_31EP8String_t
jFk:__Z58Enumerator_System_Collections_IEnumerator_Reset_m688431936P22Enumerator_t1222580846PK10MethodInfo
Rzm:__ZNK31InternalAsyncResult_t350428282014get__offset_10Ev
Hao:__ZNK30dense_hashtable_const_iteratorINSt3__24pairIK10KeyWrapperINS1_IPK11Il2CppImageP11Il2CppClassEEEjEES9_17ReflectionMapHashIS8_EN14dense_hash_mapIS9_jSD_NS9_14EqualsComparerINS0_8equal_toIS8_EEEENS0_9allocatorISB_EEE9SelectKeyESI_SK_EdeEv
Bnh:__Z26Enumerator__ctor_m65667165P22Enumerator_t1957567516P21Dictionary_2_t3384741PK10MethodInfo
LD:__ZNK4PPtrI9AudioClipEcvPS0_Ev
aY:__Z20UnlockObjectCreationv
ckh:__ZN16VirtFuncInvoker2Ii19Color32_t2600501292S0_E6InvokeEjP12Il2CppObjectS0_S0_
yTb:__Z34SetupObjectBakedOcclusionInForwardbRK15SharedLightDataRK26SharedLightmapSettingsDataRK15LightmapIndicesR17ShaderPassContext
MRk:_DSAManaged_get_Random_m923751780
KV:__ZL29TransformAccessChangeCallbackPK15TransformAccessj
IQc:__ZL53__ManagedRegistrationHelperFunction_RaycastHit2DProxyPv
gpn:_Vector3_set_Item_m1772472431_AdjustorThunk
xaj:_Interpreter_PopulateGroup_m4042796257
Yoj:__ZN38AssemblyFileVersionAttribute_t1492797210set_name_0EP8String_t
wso:__ZN6il2cpp2vm13LivenessState25FieldCanContainReferencesEP9FieldInfo
t1b:__ZNSt3__26vectorINS_4pairIN4core12basic_stringIcNS2_20StringStorageDefaultIcEEEES6_EE13stl_allocatorIS7_L18MemLabelIdentifier38ELi16EEE6insertENS_11__wrap_iterIPKS7_EERSD_
s7f:_RenderPipelineManager_DoRenderLoop_Internal_m3799666479
GKf:__ZNK25TypeTagU5BU5D_t156391866414GetAtUncheckedEj
fVm:__ZN14Uri_t10023632414set_userinfo_8EP8String_t
Vvn:__ZL24UnresolvedVirtualCall_27P12Il2CppObjectS0_aPK10MethodInfo
enj:_Object_FieldSetter_m3873125190
vh:_emscripten_glStencilOpSeparate
YRl:_Collection_1_System_Collections_IList_IndexOf_m3894953546_gshared
dHl:_RSACryptoServiceProvider_OnKeyGenerated_m863837376
AGm:_PKCS12_get_Certificates_m26161562
rVi:_NameObjectCollectionBase_Init_m2525481323
xSb:__ZN15SkyboxGenerator28GetCubemapSkyboxVertexFormatEv
Jdb:__ZN19ShaderPropertySheet24SetTextureWithExplicitIDERK23FastTexturePropertyNameP7Texture9TextureID
$$n:__ZN6il2cpp2os19SocketHandleWrapperC2ERKS1_
AHk:_List_1_Insert_m1582252370_gshared
JJo:__ZN6il2cpp2vm6String8NewUtf16EPKDsi
eGo:__ZN6il2cpp2os10ThreadImpl12QueueUserAPCEPFvPvES2_
Qec:__ZZN12MeshRenderer15InitializeClassEvEN29FunctorImpl_207kDidModifyMesh4CallEPviR11MessageData
zFd:__ZN22BaseUnityConnectClient10QueueEventERN11UnityEngine15CloudWebService17CloudServiceEventEPKcjb
XIg:_DelegatePInvokeWrapper_RaycastAllCallback_t1884415901
a_l:_ReadOnlyCollection_1_System_Collections_Generic_ICollectionU3CTU3E_Clear_m522482168_gshared
u4c:__ZN13ProduceHelperI17PhysicsMaterial2DLb0EE7ProduceE10MemLabelId18ObjectCreationMode
Btj:_DerivedType_IsByRefImpl_m2585680005
Vqi:__Z25Il2CppCodeGenWriteBarrierI18Stream_t1273022909EvPPT_S2_
abg:__ZNK21Matrix4x4_t18179018439get_m21_6Ev
eHc:__Z69Register_UnityEngine_GUILayoutUtility_Internal_GetWindowRect_Injectedv
RMh:_ConstructionCall_InitMethodProperty_m2021094586
Izc:__Z27Texture_CUSTOM_GetDataWidthP12Il2CppObject
_3j:__ZN20Encoding_t152332205624set_is_mail_news_save_12Eb
sia:__ZN9Scripting11UnityEngine15BoneWeightProxy12CleanupProxyEv
Ldc:__ZN23TextureStreamingResultsC2Ev
Hdg:__ZN40U3CRegisterU3Ec__AnonStorey0_t240559509015set_messageId_0E6Guid_t
HXc:__ZN7b2World19ContactsCollideTaskEv
XK:__ZN23CloudWebServicesManager25RemoveCloudServiceHandlerEP19CloudServiceHandler
ald:_UNITY_FT_Hypot
iDh:_MethodDictionary_get_InternalProperties_m321207497
t4b:__ZN15SerializeTraitsIN4math14float3_storageEE8TransferI14SafeBinaryReadEEvRS1_RT_
qsm:__Z25Il2CppCodeGenWriteBarrierI19Queue_1_t1200778106EvPPT_S2_
t6e:__ZL74CanvasScaler_t2767979955_CustomAttributesCacheGenerator_m_DefaultSpriteDPIP21CustomAttributesCache
xGo:__ZN6il2cpp5utils9HashUtils18AlignedPointerHashEPv
_Zf:__ZNK26DelegateU5BU5D_t170362784014GetAtUncheckedEj
MQm:__ZN28CaptureAssertion_t378608458911set_group_2EP25CapturingGroup_t751358689
wg:_emscripten_glGetError
Mdf:__ZN23ILGenerator_t138862234414set_code_len_2Ei
yB:__Z14FMOD_FILE_SeekPvjS_
Y4g:__Z37InternalEnumerator_1__ctor_m236665673P32InternalEnumerator_1_t1391455104P11Il2CppArrayPK10MethodInfo
UZn:__ZN14dense_hash_mapI10KeyWrapperIPK11Il2CppClassEPKcN6il2cpp5utils11PointerHashIS1_EENS4_14EqualsComparerINSt3__28equal_toIS3_EEEENSC_9allocatorINSC_4pairIKS4_S6_EEEEE3endEv
yFg:_MaskableGraphic_OnDisable_m1757789159
qHh:__ZN39ClientContextTerminatorSink_t406411502114set__context_0EP19Context_t3285446944
gBa:__ZN7TextureC2E10MemLabelId18ObjectCreationMode
yAg:_LayoutGroup__ctor_m2162961217
eGd:__Z56Register_UnityEngine_Analytics_CustomEventData_AddStringv
WDl:_ValueType_t3640485471_marshal_pinvoke_cleanup
SZb:__ZNK13RenderTexture32CalculateNeedsInvertedProjectionEv
H3b:__ZN10systeminfo18GetOperatingSystemEv
yef:_Label__ctor_m4171632839
Awo:__ZN14dense_hash_mapI10KeyWrapperINSt3__24pairIPKcS4_EEEi24NamespaceAndNamePairHashNS6_14EqualsComparerI26NamespaceAndNamePairEqualsEENS1_9allocatorINS2_IKS6_iEEEEED2Ev
M$:__Z19CanReplaceComponentRN5Unity9ComponentEPKNS_4TypeEPN4core12basic_stringIcNS5_20StringStorageDefaultIcEEEE
eSj:_UnmanagedMemoryStream_Flush_m1540584491
Bzh:__ZN25ReturnMessage_t137698560816set__exception_6EP11Exception_t
y4d:__ZN17Color_t25556863247set_r_0Ef
LGj:_GuidParser_ParseGuid2_m1914838819
agc:__ZN12CubemapArray11InitTextureEiii13TextureFormatb
Nrc:__Z17GetSceneBuildInfoRKN4core12basic_stringIcNS_20StringStorageDefaultIcEEEEiR14SceneBuildInfo
Dhm:_List_1_System_Collections_IList_get_Item_m1112579679_gshared
ntf:_MonoMethodInfo_GetCallingConvention_m3156036493
GVg:_InternalEnumerator_1_System_Collections_IEnumerator_get_Current_m55999184_gshared
Wlj:__ZN19MulticastDelegate_t15set_kpm_next_10EPS_
Pxh:_ValueCollection_System_Collections_Generic_ICollectionU3CTValueU3E_Contains_m1842955046_gshared
bPo:_GC_print_all_errors
w8n:__ZN24dense_hashtable_iteratorINSt3__24pairIK10KeyWrapperIPK10Il2CppTypeEjEES6_N6il2cpp8metadata14Il2CppTypeHashEN14dense_hash_mapIS6_jSB_NS6_14EqualsComparerINSA_26Il2CppTypeEqualityComparerEEENS0_9allocatorIS8_EEE9SelectKeyESF_SH_E30advance_past_empty_and_deletedEv
MQk:_BitConverterLE_GetULongBytes_m1393773100
VAl:_UInt32_Parse_m3755665066
tde:_Graphic_get_depth_m815589653
gRh:__ZN29MonoMethodMessage_t28076369449set_uri_8EP8String_t
v3d:_ContentSizeFitter_get_horizontalFit_m2773126143
uBg:_LayoutGroup_SetLayoutInputForAxis_m2458344630
kTb:__ZL24AssignProjectorQueuesJobP30AssignProjectorQueuesJobHeader
muj:__ZNK25DynamicMethod_t253777957013get_method_15Ev
Oxk:_KeyValuePair_2_get_Key_m1218836954_gshared
Kxn:__ZL25UnresolvedVirtualCall_124P12Il2CppObjectPK10MethodInfo
Mwf:_ParameterModifier_t1461694466_marshal_pinvoke
rah:__Z44InternalEnumerator_1_get_Current_m1007906068P32InternalEnumerator_1_t1629489814PK10MethodInfo
V9b:__ZNSt3__26vectorIN9ShaderLab20SerializedSubProgram15StructParameterENS_9allocatorIS3_EEE21__push_back_slow_pathIS3_EEvOT_
Ibj:_Int16_System_IConvertible_ToUInt32_m3410279543
I9b:__ZN9ShaderLab20SerializedSubProgram14SetConstBufferEPKci
y5n:__ZN6il2cpp2os4File5CloseEPNS0_10FileHandleEPi
pph:__ZNK23Dictionary_2_t13254515214get_keySlots_6Ev
Uyf:__ZN26ResourceReader_t330049263915set_formatter_2EP12Il2CppObject
tpg:_Touch_get_fingerId_m859576425_AdjustorThunk
uul:_Thread_GetDomain_m1615404259
W$m:__ZNK26GUILayoutGroup_t215778969522get_m_ChildMaxWidth_23Ev
fil:__Z48RuntimeInvoker_Boolean_t97287965_Link_t544317964PFvvEPK10MethodInfoPvPS4_
DMh:__ZNK28ConstructionCall_t401159474522get__activationType_15Ev
aed:_cf2_getStdVW
xjm:_List_1_System_Collections_ICollection_CopyTo_m2688165607_gshared
Qhl:__Z53RuntimeInvoker_UIVertex_t4057497605_Int32_t2950945753PFvvEPK10MethodInfoPvPS4_
KAl:_UInt16_CompareTo_m2664746316_AdjustorThunk
Zxh:_ValueCollection_GetEnumerator_m616748621_gshared
Kln:__ZNK25TweenRunner_1_t352024108213get_m_Tween_1Ev
T9a:__ZN9GfxDevice13SetActiveTierE12GraphicsTier
FMc:__Z29Transfer_Blittable_ArrayFieldI8JSONReadjEvRT_R9ArrayInfoRK23StaticTransferFieldInfo
QAd:__ZN11UnityEngine9Analytics15DeviceInfoEvent7GFXInfoD2Ev
ePo:_GC_check_finalizer_nested
epb:__Z18Transfer_BlittableI19StreamedBinaryWriteLb0E8Vector4fEvRK29SerializationCommandArgumentsR31RuntimeSerializationCommandInfo
Ke:__setLetterbox
hFi:__ZNK33DateTime_t3738529785_StaticFields27get_DayMonthShortFormats_10Ev
PLg:_ScrollRect_OnScroll_m3861066534
oVg:__ZNK32InternalEnumerator_1_t423993200911get_array_0Ev
y8j:_Array_InternalArray__ICollection_Contains_TisResourceCacheItem_t51292791_m2991582559_gshared
sJn:__ZN27ContactFilter2D_t380520344127set_useOutsideNormalAngle_5Eb
Mkn:_U3CStartU3Ec__Iterator0_MoveNext_m524356752_gshared
Awk:__ZNK21HashSet_1_t164505563811get_links_5Ev
c7l:__ZNK51U3CCreateWhereIteratorU3Ec__Iterator1D_1_t23012983312get_source_0Ev
USe:__ZL72FormerlySerializedAsAttribute_t2859083114_CustomAttributesCacheGeneratorP21CustomAttributesCache
kPm:_PatternCompiler_EmitFastRepeat_m3012952683
arn:_Vector4_get_sqrMagnitude_m3767723558_AdjustorThunk
_Ua:__ZNSt3__26vectorI17BlendShapeChannelNS_9allocatorIS1_EEE6assignINS_11__wrap_iterIPS1_EEEENS_9enable_ifIXaasr21__is_forward_iteratorIT_EE5valuesr16is_constructibleIS1_NS_15iterator_traitsISA_E9referenceEEE5valueEvE4typeESA_SA_
AWh:_StrongName__ctor_m3939359439
Nzb:__Z12SetGfxDeviceP9GfxDevice
WUn:__ZNK10KeyWrapperIPK17Il2CppGenericInstE8isNormalEv
Q5m:_Galaxy_Start_m2546138707
Uqc:__ZN22AnimationCurveBindings7SetKeysEP17AnimationCurveTplIfERK13dynamic_arrayI11KeyframeTplIfELj0EE
A3b:__ZN11TimeManager11GetRealtimeEv
ffg:_Object_GetHashCode_m1944636947
IIj:_BinaryReader_ReadUInt32_m2210658763
cBk:_Enumerator_Dispose_m3500272053_gshared
UB:__ZN29AudioEffectInternalDefinitionC2EP26UnityAudioEffectDefinitionb
g3l:_ReadOnlyCollection_1_System_Collections_IList_Remove_m2434650390_gshared
ESn:__ZN14dense_hash_mapI10KeyWrapperIP9FieldInfoEiN6il2cpp5utils11PointerHashIS1_EENS3_14EqualsComparerINSt3__28equal_toIS2_EEEENS9_9allocatorINS9_4pairIKS3_iEEEEED2Ev
_sh:_ShimEnumerator_get_Value_m1878724567_gshared
Klk:_Dictionary_2_System_Collections_Generic_ICollectionU3CSystem_Collections_Generic_KeyValuePairU3CTKeyU2CTValueU3EU3E_Contains_m2803718146_gshared
byj:_CultureInfo_get_IcuName_m2258611679
qHg:__ZNK35RectangularVertexClipper_t62661113620get_m_WorldCorners_0Ev
wYc:__ZN35b2SynchronizeContinuousFixturesTaskD2Ev
Rio:__ZNSt3__2plIcNS_11char_traitsIcEENS_9allocatorIcEEEENS_12basic_stringIT_T0_T1_EERKS9_PKS6_
mdg:__ZN40PlayerEditorConnectionEvents_t341178751321set_connectionEvent_1EP33ConnectionChangeEvent_t3251856151
WAe:__ZL77Convert_t2465617642_CustomAttributesCacheGenerator_Convert_ToInt64_m260173354P21CustomAttributesCache
$2k:__Z110RuntimeInvoker_Void_t1185182177_RuntimeObject_StreamingContext_t3711869237_Int32_t2950945753_Int32_t2950945753PFvvEPK10MethodInfoPvPS4_
sIa:_stbir_resize
Pck:_Array_IndexOf_TisCustomAttributeTypedArgument_t2723150157_m3158556463_gshared
aqk:_EqualityComparer_1_System_Collections_IEqualityComparer_GetHashCode_m360549782_gshared
wr:__GLOBAL__sub_I_AnimationScriptingClasses_cpp
Huj:_Environment_GetOSVersionString_m407782784
q5j:_DecoderExceptionFallback_Equals_m1082173956
qtk:_EqualityComparer_1_System_Collections_IEqualityComparer_GetHashCode_m345188086_gshared
Gvf:__ZNK28MonoPropertyInfo_t308735606612get_parent_0Ev
F0g:__ZNK32InternalEnumerator_1_t38580098709get_idx_1Ev
ure:__ZL69Assembly_t_CustomAttributesCacheGenerator_Assembly_GetName_m981771927P21CustomAttributesCache
wLe:__ZL93Mesh_t3648964284_CustomAttributesCacheGenerator_Mesh_GetAllocArrayFromChannelImpl_m3084065604P21CustomAttributesCache
USa:__ZN4PPtrI4MeshE8TransferI14SafeBinaryReadEEvRT_
KUc:__ZN24b2ChainAndCapsuleContact6CreateEP9b2FixtureiS1_iP16b2BlockAllocator
qBm:__ZN25SslStreamBase_t166741340714set_disposed_8Eb
bNa:__ZN13dynamic_arrayI29StreamingTextureFinalMipLevelLj0EE18resize_initializedEjRKS0_12ResizePolicy
M7a:__Z37ReadDirectoryInfo_UnityWebAndUnityRawR12FileAccessorRKN20ArchiveStorageHeader6HeaderERNS1_13DirectoryInfoE
_V:__ZNSt3__26__treeINS_12__value_typeIPKciEENS_19__map_value_compareIS3_S4_15compare_tstringIS3_ELb1EEENS_9allocatorIS4_EEE7destroyEPNS_11__tree_nodeIS4_PvEE
gJl:_Array_InternalArray__Insert_TisIntPtr_t_m189626842_gshared
G3i:_X509Certificate2_get_IssuerName_m1277209535
Iue:__ZL52LeaseState_t747101024_CustomAttributesCacheGeneratorP21CustomAttributesCache
QHk:_Locale_GetText_m3374010885
ZVl:_Collection_1_System_Collections_IEnumerable_GetEnumerator_m1598238343_gshared
gIl:_RijndaelManaged_CreateEncryptor_m263736311
Jtl:_WaitCallback__ctor_m1893321019
rff:__ZNK21LabelFixup_t85850205415get_label_idx_2Ev
Ona:__ZN17GlobalGameManager23VirtualRedirectTransferER18StreamedBinaryRead
eQb:__ZN20DynamicPropertySheet14SetValueQueuedEN9ShaderLab16FastPropertyNameEN19ShaderPropertySheet12PropertyTypeEjNS2_8SetFlagsE
WIf:__ZNK27BaseFixupRecord_t318565345622get_NextSameRequired_3Ev
E8m:_MeteorSpawner__ctor_m2158906300
_4f:_InvokableCallList_ClearPersistent_m1904264973
uL:__ZN11UnityEngine15CloudWebService14DataDispatcher30FindSessionContainerToDispatchEv
Mvb:__ZN25PathNamePersistentManagerD2Ev
D_a:__ZN17PersistentManager48IntegrateObjectAndUnlockIntegrationMutexInternalEi
lRe:__ZL85NativeDisableUnsafePtrRestrictionAttribute_t2582701661_CustomAttributesCacheGeneratorP21CustomAttributesCache
Cqn:_Vector3Int_ToString_m3033835977_AdjustorThunk
C7:__ZZ29InitializeSortingGroupManagerPvEN44PostLateUpdateSortingGroupsUpdateRegistrator7ForwardEv
a0e:__ZL55EventTrigger_t1076084509_CustomAttributesCacheGeneratorP21CustomAttributesCache
s_j:_SecurityElement_SearchForChildByTag_m900466299
Rp:__ZN6Object12SetHideFlagsENS_9HideFlagsE
STc:__ZN9b2Fixture11SynchronizeEP12b2BroadPhaseRK11b2TransformS4_
i2m:__ZN22TextEditor_t275985536621set_isPasswordField_5Eb
kJi:_Convert_ToSingle_m3227075028
JHh:__ZNK19Context_t328544694422get_callback_object_13Ev
gZb:__ZN13RendererScene15InitializeUmbraEv
xNf:__ZN46U3CRegisterObjectU3Ec__AnonStorey3_t35165111439set_obj_1EP12Il2CppObject
Txa:__Z28CalculateGlobalMatrixInverse23TransformAccessReadOnly
ycg:_MonoBehaviour__ctor_m1579109191
GYe:__ZL59GUITargetAttribute_t25796337_CustomAttributesCacheGeneratorP21CustomAttributesCache
Uuk:_GenericEqualityComparer_1_Equals_m3457564127_gshared
fgi:_BigInteger_ModInverse_m2426215562
h6:__ZN17CallbackArrayBaseIPFvPK9IndexListPK16RendererCullDataEPFvPKvS2_S5_EE8RegisterES7_SB_S9_
Qu:__ZN7mecanim9animation21CreateAvatarWorkspaceEPKNS0_14AvatarConstantER20RuntimeBaseAllocator
uFb:__ZN4gles15UpdateDepthTestER15DeviceStateGLESPK20DeviceDepthStateGLESb
m5j:_DecoderExceptionFallback__ctor_m4044614564
iRg:__ZN40StencilMaterial_t3850132571_StaticFields12set_m_List_0EP17List_1_t134214538
q1g:_InternalEnumerator_1_System_Collections_IEnumerator_Reset_m3011999097_AdjustorThunk
Ikh:__ZN16VirtFuncInvoker2Ii20UIVertex_t4057497605S0_E6InvokeEjP12Il2CppObjectS0_S0_
vAh:__ZN16VirtFuncInvoker1IP11Il2CppArrayP6Type_tE6InvokeEjP12Il2CppObjectS3_
RRd:__Z33EventFunction_1__ctor_m1181351694P27EventFunction_1_t3995630009P12Il2CppObjectiPK10MethodInfo
Klo:__ZN6il2cpp2vm6Thread17FullMemoryBarrierEv
$hj:_LocalDataStoreSlot__cctor_m644942532
XUo:__ZN6il2cpp6icalls8mscorlib6System6Object7GetTypeEP12Il2CppObject
tvf:_MonoProperty_CachePropertyInfo_m2968057423
oId:__ZNK25UnityWebRequestJavaScript18GetDownloadedBytesEv
_ig:_Ray_GetPoint_m1852405345_AdjustorThunk
tpe:__ZL53RegionInfo_t1090270226_CustomAttributesCacheGeneratorP21CustomAttributesCache
oif:__ZN18VirtActionInvoker1I17OpCode_t123070264E6InvokeEjP12Il2CppObjectS0_
Ake:__ZL74Single_t1397266774_CustomAttributesCacheGenerator_Single_IsNaN_m4024467661P21CustomAttributesCache
uOj:__ZN29Path_t1605229823_StaticFields21set_dirEqualsVolume_7Eb
IZe:__ZL92TileBase_t3985733243_CustomAttributesCacheGenerator_TileBase_GetTileAnimationData_m904755430P21CustomAttributesCache
zId:__ZN12HeaderHelper14SetUnvalidatedERKN4core12basic_stringIcNS0_20StringStorageDefaultIcEEEES6_b
_z:__ZN4FMOD6SoundI7releaseEv
_Sa:__ZN14SpriteRenderer13AwakeFromLoadE17AwakeFromLoadMode
Cfd:_cff_parse_num
k8a:__ZN10MemoryFile9SetLengthEy
dob:__ZN5RectTIiE8TransferI24GenerateTypeTreeTransferEEvRT_
ESc:__ZNK15b2RevoluteJoint10GetAnchorBEv
Vwj:_Exception_get_ClassName_m2428844642
gvb:__Z28scripting_class_is_interface17ScriptingClassPtr
hl:_glTexStorage2D
qhc:__ZN15QualitySettings15InitializeClassEv
bmf:__ZN31OpCodes_t126150456_StaticFields15set_Stind_I4_83E17OpCode_t123070264
uAi:_SyncHashtable_get_Item_m2686606216
pDa:__ZNK9ShaderLab10SubProgram14EnsureCompiledEv
qhf:_MethodBuilder_GetGenericArguments_m1765425737
bNi:_DateTime_CompareTo_m3687348273
ssj:__ZN23DerivedType_t428630201317set_elementType_8EP6Type_t
INo:_GC_push_marked
zNi:_DateTime_ToUniversalTime_m1945318289_AdjustorThunk
ywk:__Z25Il2CppCodeGenWriteBarrierI22LinkU5BU5D_t1236856784EvPPT_S2_
JOd:__Z26List_1_Contains_m403158780P18List_1_t1327982029P25BaseRaycaster_t4150874583PK10MethodInfo
OSi:_Enum_t4135868527_marshal_pinvoke
_Hi:_Convert_ToInt16_m1336719169
gZ:__Z18BuildScriptClassId17ScriptingClassPtr
dEn:_CanvasRenderer_CreateUIVertexStreamInternal_m543814397
CUk:_RSAManaged_Finalize_m3915335854
Eug:__ZN22InputField_t376291743134get_address_of_m_SelectionColor_35Ev
Op:__ZNK16LevelGameManager7GetNameEv
x3n:__ZNKSt3__26vectorIN6il2cpp6icalls8mscorlib6System12PropertyPairENS_9allocatorIS5_EEE8max_sizeEv
Sxf:_TypeDelegator_GetElementType_m4265261164
X5a:__ZL31DeleteLastPathNameComponentImplRKN4core12basic_stringIcNS_20StringStorageDefaultIcEEEEPKc
xLi:_DBNull_System_IConvertible_ToUInt64_m4072736670
vAd:__ZN18UnityConnectClient15GetCloudServiceEv
Pjb:__Z29Transfer_Blittable_ArrayFieldI14SafeBinaryRead5RectTIiEEvRT_R9ArrayInfoRK23StaticTransferFieldInfo
a3g:_InternalEnumerator_1_get_Current_m2698009637_gshared
U$n:__ZN6il2cpp2os19SocketHandleWrapperD2Ev
Rdg:_U3CAddAndCreateU3Ec__AnonStorey1__ctor_m1186055370
oUc:__ZN15b2CircleContact6CreateEP9b2FixtureiS1_iP16b2BlockAllocator
bvb:__ZL28SerializationCommandGroupForRK31TransferFunctionScriptingTraits17ScriptingClassPtr17ScriptingFieldPtrRK20CoreScriptingClasses
jna:__ZN10TagManager32RegisterDefaultTagsAndLayerMasksEv
Tui:__ZN24TlsClientHello_t9796599812set_random_9EP22ByteU5BU5D_t4116647657
Tnm:_List_1_System_Collections_IList_get_IsReadOnly_m1729002068_gshared
O4k:__Z50RuntimeInvoker_Double_t594665363_Int32_t2950945753PFvvEPK10MethodInfoPvPS4_
Y7l:_Predicate_1_EndInvoke_m1490920825_gshared
CCe:__ZL78LoaderOptimization_t1484956347_CustomAttributesCacheGenerator_DisallowBindingsP21CustomAttributesCache
Llk:_Dictionary_2_System_Collections_Generic_ICollectionU3CSystem_Collections_Generic_KeyValuePairU3CTKeyU2CTValueU3EU3E_CopyTo_m3122240003_gshared
bfl:__Z104RuntimeInvoker_Void_t1185182177_Color_t2555686324_Single_t1397266774_SByte_t1669577662_SByte_t1669577662PFvvEPK10MethodInfoPvPS4_
nnm:_List_1_Remove_m3853969205_gshared
kFk:_Enumerator_System_Collections_IEnumerator_get_Current_m1540440674_gshared
_$j:_Single_System_IConvertible_ToInt16_m809233024_AdjustorThunk
gGd:__Z56Register_UnityEngine_Analytics_CustomEventData_AddUInt32v
qYo:_fmodf
Nwf:__ZNK29ParameterModifier_t146169446612get__byref_0Ev
y7m:__ZNK46U3CStartingCutsceneU3Ec__Iterator1_t282802777218get_U24disposing_6Ev
r6c:__Z75Register_UnityEngine_Physics2D_GetRayIntersectionNonAlloc_Internal_Injectedv
tEb:__ZN4gles8InitCapsEP7ApiGLESP12GraphicsCapsR16GfxDeviceLevelGL
Uv:__ZN4PPtrI13MonoBehaviourE8TransferI18StreamedBinaryReadEEvRT_
vCb:__ZN13GfxDeviceGLES22GetNativeBufferPointerEP9GfxBuffer
PKf:__ZNK24ObjectReader_t194095739224get__typeMetadataCache_6Ev
Lza:__Z24CalculateVertexLightDataRK15SharedLightDataR14GfxVertexLight
Sj:_glEnable
Dbo:__ZN15dense_hashtableINSt3__24pairIK10KeyWrapperINS1_IPK12PropertyInfoP11Il2CppClassEEEjEES9_17ReflectionMapHashIS8_EN14dense_hash_mapIS9_jSD_NS9_14EqualsComparerINS0_8equal_toIS8_EEEENS0_9allocatorISB_EEE9SelectKeyESI_SK_E15insert_noresizeERKSB_
o9g:_InternalEnumerator_1_MoveNext_m973048327_gshared
lDa:__ZNK9ShaderLab7Program28BeginReadUnsupportedVariantsEv
xka:__ZN12CachedWriter11Align4WriteEv
qZa:__ZNSt3__26vectorIN30RuntimeInitializeOnLoadManager9ClassInfoE13stl_allocatorIS2_L18MemLabelIdentifier13ELi16EEE7reserveEj
J9m:_U3CModifyGravityU3Ec__Iterator1__ctor_m124358317
VXm:__ZNK21UriParser_t389015040017get_scheme_name_2Ev
bIc:__Z35Transfer_Blittable_FixedBufferFieldI9JSONWriteiEvRK29SerializationCommandArgumentsR31RuntimeSerializationCommandInfo
nHo:__ZN14dense_hash_mapI10KeyWrapperIPK19Il2CppGenericMethodEP10MethodInfoN6il2cpp8metadata23Il2CppGenericMethodHashENS4_14EqualsComparerINS8_26Il2CppGenericMethodCompareEEENSt3__29allocatorINSD_4pairIKS4_S6_EEEEED2Ev
SWe:__ZL85AudioSource_t3935305588_CustomAttributesCacheGenerator_AudioSource_set_clip_m31653938P21CustomAttributesCache
irg:__ZN22InputField_t376291743120set_m_ContentType_22Ei
SLn:__ZN41RequiredByNativeCodeAttribute_t413084635735set_U3COptionalU3Ek__BackingField_0Eb
wvk:_Enumerator__ctor_m1590062855_AdjustorThunk
$fo:__ZN14dense_hash_mapI10KeyWrapperINSt3__24pairIPK10MethodInfoP11Il2CppClassEEEj17ReflectionMapHashIS8_ENS9_14EqualsComparerINS1_8equal_toIS8_EEEENS1_9allocatorINS2_IKS9_jEEEEEC2EjRKSB_RKSF_
tyb:__ZN19RuntimeSceneManager11CreateSceneEv
vrb:__Z18Transfer_BlittableI18StreamedBinaryReadLb1E10Matrix4x4fEvRK29SerializationCommandArgumentsR31RuntimeSerializationCommandInfo
avh:__ZN16VirtFuncInvoker2I26KeyValuePair_2_t2401056908P12Il2CppObjectiE6InvokeEjS2_S2_i
Eqn:__ZN34Vector3Int_t741115188_StaticFields12set_s_Zero_3E21Vector3Int_t741115188
Nve:__ZL54SoapServices_t133988723_CustomAttributesCacheGeneratorP21CustomAttributesCache
yOl:_Component_GetComponents_TisRuntimeObject_m2416546752_gshared
Yym:__ZNK28SslHandshakeHash_t210758177217get_outerPadMD5_9Ev
yRj:_UnexceptionalStreamReader_Peek_m1842169584
sKk:__ZN47MSCompatUnicodeTableUtil_t88013251_StaticFields12set_CjkCHS_5EP28CodePointIndexer_t4134431086
Uln:__Z25Il2CppCodeGenWriteBarrierI24ObjectPool_1_t4122643707EvPPT_S2_
ktm:_Queue_1_System_Collections_IEnumerable_GetEnumerator_m3464578225_gshared
Orn:_TypeInferenceRuleAttribute__ctor_m2736695831
K$f:_Bounds_GetHashCode_m1844059663_AdjustorThunk
MZj:__ZNK27WindowsIdentity_t294824240611get__name_4Ev
G4e:__ZL66Navigation_t3049316579_CustomAttributesCacheGenerator_m_SelectOnUpP21CustomAttributesCache
_1i:__ZNK25OidCollection_t423476684411get__list_0Ev
lLf:_BinaryFormatter_NoCheckDeserializeMethodResponse_m1919376975
Yqn:_Vector4_Equals_m1779210055_AdjustorThunk
lt:__ZN9Scripting11UnityEngine14HumanBoneProxy12CleanupProxyEv
tKi:_Convert_ChangeType_m739676612
Qlo:__ZN14dense_hash_mapI10KeyWrapperINSt3__24pairIP11Il2CppClassjEEES4_N6il2cpp8metadata14ArrayClassHashENS6_14EqualsComparerINS8_17ArrayClassCompareEEENS1_9allocatorINS2_IKS6_S4_EEEEED2Ev
pKb:__ZN20ArchiveStorageReader10InitializeER15FileSystemEntryyb
QZo:_atol
QNm:__ZNK30Match_t3408321083_StaticFields12get_empty_10Ev
b$j:__ZNK36RuntimeDeclSecurityEntry_t314446915610get_blob_0Ev
Rhf:_TypeBuilder_CreateType_m3375483507
bYl:_ReadOnlyCollection_1_GetEnumerator_m3690861713_gshared
gPk:_ModulusRing_BarrettReduction_m167376748
ZBh:_RemotingServices_GetRealProxy_m2081098851
Ddo:__ZNK30dense_hashtable_const_iteratorINSt3__24pairIK10KeyWrapperINS1_IPK9EventInfoP11Il2CppClassEEEjEES9_17ReflectionMapHashIS8_EN14dense_hash_mapIS9_jSD_NS9_14EqualsComparerINS0_8equal_toIS8_EEEENS0_9allocatorISB_EEE9SelectKeyESI_SK_EeqERKSN_
dRk:_BlockProcessor_Core_m189015002
CSn:__ZN15dense_hashtableINSt3__24pairIK10KeyWrapperIPKcEP11Il2CppClassEES5_N6il2cpp5utils11StringUtils12StringHasherIS4_EEN14dense_hash_mapIS5_S8_SE_NS5_14EqualsComparerINSB_13VmStringUtils21CaseSensitiveComparerEEENS0_9allocatorIS9_EEE9SelectKeyESJ_SL_EC2EjRKSE_RKSJ_RKSN_
Y9o:_emscripten_glScissor__wrapper
No:FUNCTION_TABLE_viifi
Phf:_ModuleBuilder_CreateGlobalType_m3933178429
dhe:__ZN42HorizontalOrVerticalLayoutGroup_t72972557042get_address_of_m_ChildForceExpandHeight_14Ev
qAl:_UInt16_System_IConvertible_ToDouble_m333121300_AdjustorThunk
OYh:__ZNK26X509Certificate_t48924302416get_signature_11Ev
X0e:__ZL102PointerEventData_t3807901092_CustomAttributesCacheGenerator_PointerEventData_set_lastPress_m2928324031P21CustomAttributesCache
APk:_PrimalityTests_Test_m2932837908
Wme:__ZL37Type_t_CustomAttributesCacheGeneratorP21CustomAttributesCache
cmd:_UNITY_tt_face_free_hdmx
PWc:__ZNSt3__26__sortIRN18Overlap2DQueryBase29ColliderHitsByDepthComparitorEPP10Collider2DEEvT0_S7_T_
LUn:__ZNK30dense_hashtable_const_iteratorI10KeyWrapperIPK17Il2CppGenericInstES4_N6il2cpp8metadata21Il2CppGenericInstHashEN14dense_hash_setIS4_S7_NS4_14EqualsComparerINS6_24Il2CppGenericInstCompareEEENSt3__29allocatorIS4_EEE8IdentityESB_SE_EdeEv
h0f:_Bounds_ToString_m4208690781
imo:__ZN15dense_hashtableINSt3__24pairIK10KeyWrapperINS1_IP11Il2CppClassjEEES4_EES6_N6il2cpp8metadata14ArrayClassHashEN14dense_hash_mapIS6_S4_SB_NS6_14EqualsComparerINSA_17ArrayClassCompareEEENS0_9allocatorIS8_EEE9SelectKeyESF_SH_E5clearEv
x$k:__Z88RuntimeInvoker_RuntimeObject_RuntimeObject_RuntimeObject_Int32_t2950945753_RuntimeObjectPFvvEPK10MethodInfoPvPS4_
GRn:__ZNSt3__218uninitialized_copyIPNS_4pairIK10KeyWrapperIPK11Il2CppClassEPKcEESB_EET0_T_SD_SC_
who:__ZN6il2cpp2vm14TypeNameParser5ParseEb
rPo:_GC_grow_table
TJe:__ZL100GameObject_t1113636619_CustomAttributesCacheGenerator_GameObject_SendMessage_m3720186693____options2P21CustomAttributesCache
BPj:_StreamWriter_Initialize_m3490883444
Acj:__ZNK27NumberFormatter_t118292462111get__ind_24Ev
Azl:_Type_GetGenericArguments_m3500465462
V_n:__ZN15dense_hashtableINSt3__24pairIK10KeyWrapperIP9FieldInfoEiEES5_N6il2cpp5utils11PointerHashIS3_EEN14dense_hash_mapIS5_iSB_NS5_14EqualsComparerINS0_8equal_toIS4_EEEENS0_9allocatorIS7_EEE9SelectKeyESG_SI_E12resize_deltaEjj
Cuh:__ZN16VirtFuncInvoker2IP12Il2CppObjectS1_bE6InvokeEjS1_S1_b
FHd:__ZN23UnityPurchasingSettingsC2Ev
Rsf:_Module_IsDefined_m2423524910
_ng:_Sprite__ctor_m332781120
zLj:_FileStream_EndRead_m3904255625
xXe:__ZL60EventType_t3528516131_CustomAttributesCacheGenerator_repaintP21CustomAttributesCache
Y4m:_Finish_Update_m640290459
Zra:__ZN17GPUFenceInternals7ReleaseEv
t5e:__ZL66Selectable_t3250028441_CustomAttributesCacheGenerator_m_NavigationP21CustomAttributesCache
qyf:_ResolveEventHandler__ctor_m1911137231
rpc:__ZN17MaterialScripting18CreateWithMaterialE21ScriptingObjectOfTypeI8MaterialEPS1_
qsb:__ZN8Gradient8TransferI18StreamedBinaryReadEEvRT_
p7l:__Z35il2cpp_codegen_is_fake_boxed_objectP12Il2CppObject
eMm:_Interval_get_IsEmpty_m2731597232_AdjustorThunk
Nck:_Array_IndexOf_TisCustomAttributeNamedArgument_t287865710_m2817957199_gshared
EXg:__Z37InternalEnumerator_1__ctor_m619554185P32InternalEnumerator_1_t4116331090P11Il2CppArrayPK10MethodInfo
Ryj:__ZN23CultureInfo_t415784306815set_win3lang_24EP8String_t
VUo:__ZNKSt3__26__treeINS_12__value_typeIPFvvEPK10MethodInfoEENS_19__map_value_compareIS3_S7_NS_4lessIS3_EELb1EEENS_9allocatorIS7_EEE10__root_ptrEv
JEm:_ExtendedKeyUsageExtension_ToString_m2116504780
p1a:__ZNK5Unity9Component38MarkGameObjectAndComponentDependenciesER27GarbageCollectorThreadState
pIj:_BinaryReader_Read_m3708759962
XVg:_InternalEnumerator_1__ctor_m3349908318_AdjustorThunk
OG:__ZNK7Texture21GetShadowSamplingModeEv
HZ:__ZNK11TypeManager15ClassNameToRTTIEPKcb
CNm:__ZN17Match_t340832108313set_machine_7EP12Il2CppObject
_Db:__ZN9GfxDevice26CreateDefaultVertexBuffersEv
Yce:__Z36Dictionary_2_TryGetValue_m3280491376P24Dictionary_2_t2296117448P18Canvas_t3310196443PP24IndexedSet_1_t3109723551PK10MethodInfo
yan:_U3CJumpingU3Ec__Iterator2_System_Collections_IEnumerator_get_Current_m1506054752
bIl:__ZNK41RijndaelTransform_t631222241_StaticFields11get_SBox_17Ev
QJd:__ZN13RuntimeStaticINSt3__26vectorIPN5physx15PxVehicleWheelsENS0_9allocatorIS4_EEEELb0EE13StaticDestroyEPv
CQj:_SynchronizedReader_ReadToEnd_m2160105378
B4a:__ZN12HandlerChain19InitializeFileEntryER13FileEntryData
XJa:__ZN4crnd12symbol_codec32decode_receive_static_data_modelERNS_25static_huffman_data_modelE
hec:__ZN18ScriptingArguments8AddFloatEf
s0i:__ZN20WebProxy_t201676054216set_bypassList_2EP21ArrayList_t2718874744
Whe:_Image_set_fillOrigin_m469806249
AGo:__ZN6il2cpp2vmL24HexValueToLowercaseAsciiEh
UBd:__ZN11UnityEngine15PlatformWrapper16GetVRRenderScaleEv
uZd:__Z56ExecuteEvents_Execute_TisIMoveHandler_t933334182_m109549P12Il2CppObjectP22GameObject_t1113636619P25BaseEventData_t3903027533P27EventFunction_1_t3912835512PK10MethodInfo
bJc:__Z18Transfer_BlittableI9JSONWriteLb0EaEvRK29SerializationCommandArgumentsR31RuntimeSerializationCommandInfo
Trm:__ZNK22Enumerator_t35882777609get_ver_2Ev
dpd:__Z51Register_UnityEngine_TextGenerator_Internal_Destroyv
eL:__ZN11UnityEngine15CloudWebService14DataDispatcher34OnSessionContainerArchivedAndReadyERNS0_16SessionContainerE
ldg:_ConnectionChangeEvent__ctor_m764126802
tRc:__ZN7b2World11CreateJointEPK10b2JointDef
FYd:__ZN33StandaloneInputModule_t276046910126set_m_InputPointerEvent_22EP28PointerEventData_t3807901092
gkj:_IntComparer__ctor_m2901422390
NBe:__ZL79Convert_t2465617642_CustomAttributesCacheGenerator_Convert_ToUInt32_m1767593911P21CustomAttributesCache
gtd:__Z58Register_UnityEngine_Tilemaps_Tilemap_RefreshTile_Injectedv
Vwe:__ZL50HMACMD5_t2742219965_CustomAttributesCacheGeneratorP21CustomAttributesCache
Hih:_Comparer_1__ctor_m1078828713_gshared
R3c:__ZN7b2World11DestroyBodyEP6b2Body
dCk:_Enumerator_VerifyState_m2621680056_gshared
v_m:__ZN26GUILayoutEntry_t321461157014set_minWidth_0Ef
iWm:_UriParser_InternalRegister_m3643767086
i5b:__ZN14SafeBinaryRead19TransferSTLStyleMapINSt3__23mapIN4core12basic_stringIcNS3_20StringStorageDefaultIcEEEEiNS1_4lessIS7_EENS1_9allocatorINS1_4pairIKS7_iEEEEEEEEvRT_17TransferMetaFlags
KCj:_DateTimeFormatInfo_get_RawAbbreviatedDayNames_m1257850285
$Gl:_RSACryptoServiceProvider_EncryptValue_m944137256
Zao:__ZN15dense_hashtableINSt3__24pairIK10KeyWrapperINS1_IPK11Il2CppImageP11Il2CppClassEEEjEES9_17ReflectionMapHashIS8_EN14dense_hash_mapIS9_jSD_NS9_14EqualsComparerINS0_8equal_toIS8_EEEENS0_9allocatorISB_EEE9SelectKeyESI_SK_ED2Ev
rkd:_gray_move_to
tLi:_DBNull_System_IConvertible_ToSingle_m13713620
S3f:__Z25Il2CppCodeGenWriteBarrierI33DisplaysUpdatedDelegate_t51287044EvPPT_S2_
_8h:_Char_ToLowerInvariant_m1926695830
b7e:__ZL127U3CDelayedSetDirtyU3Ec__Iterator0_t3170500204_CustomAttributesCacheGenerator_U3CDelayedSetDirtyU3Ec__Iterator0_Reset_m160466733P21CustomAttributesCache
Seo:__ZNK10KeyWrapperIPK14Il2CppAssemblyEcvRKS2_Ev
yAo:__ZNK10KeyWrapperIP12Il2CppObjectEcvRKS1_Ev
X0f:_CameraCallback__ctor_m899467377
$Yl:_ReadOnlyCollection_1_System_Collections_IList_Contains_m1327645028_gshared
mie:_Image_GetDrawingDimensions_m3060965396
oOm:__Z25Il2CppCodeGenWriteBarrierI27MatchCollection_t1395363720EvPPT_S2_
Tzl:_TypeLoadException__ctor_m1154572625
YEa:__ZNSt3__27__sort4IRPFbRKNS_4pairIN9ShaderLab16FastPropertyNameE10ColorRGBAfEES7_EPS5_EEjT0_SC_SC_SC_T_
Voj:_AssemblyDescriptionAttribute__ctor_m3993445315
gsi:_Context_get_WriteSequenceNumber_m1115956887
o1h:_Activator_CreateInstanceInternal_m1337209899
oOl:_Dictionary_2_Do_ICollectionCopyTo_TisKeyValuePair_2_t2401056908_m1169495264_gshared
zkf:_OpCodes__cctor_m3821715395
s3d:_ContentSizeFitter__ctor_m2349275633
dyf:__ZN16VirtFuncInvoker2IbP6Type_tbE6InvokeEjP12Il2CppObjectS1_b
DEe:__ZL56TypeConverter_t2249118273_CustomAttributesCacheGeneratorP21CustomAttributesCache
pdi:__Z25Il2CppCodeGenWriteBarrierI43CaseInsensitiveHashCodeProvider_t1962629119EvPPT_S2_
k4n:__ZN6il2cpp5utils9PathUtils13DirectoryNameIcEENSt3__212basic_stringIT_NS3_11char_traitsIS5_EENS3_9allocatorIS5_EEEERKNS0_10StringViewIS5_EE
jTl:_Collection_1_RemoveAt_m3506636491_gshared
Hjd:_tt_cmap_init
xNc:__ZN8JSONRead8TransferI9BoundsIntEEvRT_PKc17TransferMetaFlagsb
dEo:__ZN24dense_hashtable_iteratorINSt3__24pairIK10KeyWrapperIPcES3_EES4_N6il2cpp5utils15PassThroughHashIS3_EEN14dense_hash_mapIS4_S3_SA_NS4_14EqualsComparerINS0_8equal_toIS3_EEEENS0_9allocatorIS6_EEE9SelectKeyESF_SH_E30advance_past_empty_and_deletedEv
Kb:invoke_viidi
u8a:__ZN25SingleBlockMemoryFileData9SetLengthEy
YLl:_Array_Sort_TisOrderBlock_t1585977831_m2922111197_gshared
XIn:__ZNSt3__211char_traitsIcE6lengthEPKc
rBe:__ZL78Convert_t2465617642_CustomAttributesCacheGenerator_Convert_ToUInt16_m867476252P21CustomAttributesCache
u5h:__ZN16VirtFuncInvoker0IP12MemberInfo_tE6InvokeEjP12Il2CppObject
hSf:_SByte_System_IConvertible_ToChar_m1489191771_AdjustorThunk
Qz:__ZN9AudioClip7CleanupEv
lIo:__ZNK24dense_hashtable_iteratorINSt3__24pairIK10KeyWrapperIPK19Il2CppGenericMethodEP10MethodInfoEES6_N6il2cpp8metadata23Il2CppGenericMethodHashEN14dense_hash_mapIS6_S9_SD_NS6_14EqualsComparerINSC_26Il2CppGenericMethodCompareEEENS0_9allocatorISA_EEE9SelectKeyESH_SJ_EdeEv
uZc:__ZN21b2ReportPostSolveTaskD0Ev
WEm:__ZN24GeneralNames_t270229415912set_ipAddr_4EP21ArrayList_t2718874744
fll:__Z76RuntimeInvoker_Void_t1185182177_Int32_t2950945753_PlayableBinding_t354260709PFvvEPK10MethodInfoPvPS4_
XLm:_Interval_t1802865632_marshal_pinvoke_cleanup
koo:__ZNK15dense_hashtableINSt3__24pairIK10KeyWrapperIP11Il2CppClassES4_EES5_N6il2cpp8metadata16SZArrayClassHashEN14dense_hash_mapIS5_S4_SA_NS5_14EqualsComparerINS9_19SZArrayClassCompareEEENS0_9allocatorIS7_EEE9SelectKeyESE_SG_E12test_deletedEj
iIi:_Convert_ToInt16_m1223489986
Yde:_Graphic_GraphicUpdateComplete_m1502194795
YLc:__Z18Transfer_BlittableI8JSONReadLb0EdEvRK29SerializationCommandArgumentsR31RuntimeSerializationCommandInfo
DLa:__ZN14SafeBinaryRead22TransferWithTypeStringI7CubemapEEvRT_PKcS5_17TransferMetaFlags
cJh:_SynchronizationAttribute_EnterContext_m1660729920
SEm:__ZN24GeneralNames_t270229415920set_directoryNames_2EP21ArrayList_t2718874744
dDn:_Canvas_get_referencePixelsPerUnit_m3420541976
fZl:_ReadOnlyCollection_1_System_Collections_ICollection_get_SyncRoot_m2522539235_gshared
uYm:_Event_get_current_m2393892120
U_h:__ZNK26X509Certificate_t48924302412get_m_from_2Ev
hok:_DefaultComparer_Equals_m3688244916_gshared
Esj:__ZN30ConstructorBuilder_t281352410818set_paramModReq_11EP28TypeU5BU5DU5BU5D_t4042077012
oab:__ZNK9GfxDevice13GetViewMatrixEv
fSj:_UnmanagedMemoryStream_Dispose_m2681886347
h4h:_Array_Copy_m1988610914
OJh:_Lease_get_CurrentState_m2210872233
q0a:__ZN17RemapPPtrTransferC2E24TransferInstructionFlagsb
mXg:_InternalEnumerator_1_System_Collections_IEnumerator_get_Current_m1295084274_gshared
mHi:_Convert_ToDecimal_m889385228
M_:__ZN8TypeTree8BlobReadERPKhS1_ib
fmo:__ZN10KeyWrapperINSt3__24pairIP11Il2CppClassjEEEC2Ev
yAf:__ZN6il2cpp2vm9Exception13RaiseIfFailedEibP19Il2CppSequencePoint
wJe:__ZL87Display_t1387065949_CustomAttributesCacheGenerator_Display_GetSystemExtImpl_m2808197389P21CustomAttributesCache
LZg:__Z44InternalEnumerator_1_get_Current_m2223614542P32InternalEnumerator_1_t1451382081PK10MethodInfo
L8d:_Dropdown_ClearOptions_m4085591601
a2d:_CanvasUpdateRegistry_InternalRegisterCanvasElementForGraphicRebuild_m3522560454
Zzi:__ZNK21HashValues_t61838744510get_host_0Ev
k0d:__ZNK24CanvasScaler_t276797995519get_m_UiScaleMode_4Ev
Q_a:__ZN18LoadSceneOperation23GetAllowSceneActivationEv
kqa:__ZN6CameraD0Ev
dPn:__ZNK6il2cpp2vm17TypeNameParseInfo10is_boundedEv
xum:_Collection_1_System_Collections_IList_get_IsReadOnly_m2319019412_gshared
DXe:__ZL57EventModifiers_t2016417398_CustomAttributesCacheGeneratorP21CustomAttributesCache
MDd:__ZN11UnityEngine9Analytics20BasePersistentValues5ResetEv
llj:__ZN16VirtFuncInvoker7IP12MethodBase_tiP27MethodBaseU5BU5D_t779831733PP24ObjectU5BU5D_t2843939325P35ParameterModifierU5BU5D_t2943407543P23CultureInfo_t4157843068P24StringU5BU5D_t1281789340PP12Il2CppObjectE6InvokeEjSE_iS3_S6_S8_SA_SC_SF_
cWl:_Collection_1_System_Collections_IList_IndexOf_m837396833_gshared
eZa:__ZN14SafeBinaryRead21TransferSTLStyleArrayINSt3__26vectorIi13stl_allocatorIiL18MemLabelIdentifier13ELi16EEEEEEvRT_17TransferMetaFlags
m6j:_EncoderFallback__cctor_m3806755293
tYg:_InternalEnumerator_1__ctor_m962177456_AdjustorThunk
tcd:_raccess_guess_apple_double
Rrj:__Z25Il2CppCodeGenWriteBarrierI22StrongName_t4093849377EvPPT_S2_
lLd:__ZL50__ManagedRegistrationHelperFunction_SubsystemProxyPv
VFb:__ZL18ProgramUniform1uivPK7ApiGLESjiihPKv
jgc:__ZN14Texture2DArray13RebuildMipMapEv
iUn:__ZN13Il2CppHashSetIPK17Il2CppGenericInstN6il2cpp8metadata21Il2CppGenericInstHashENS4_24Il2CppGenericInstCompareENSt3__29allocatorI10KeyWrapperIS2_EEEEC2EjRKS5_RKS6_
Shb:__Z18Transfer_BlittableI14SafeBinaryReadLb1EaEvRK29SerializationCommandArgumentsR31RuntimeSerializationCommandInfo
Bmg:__ZN48RenderTextureDescriptor_t1974534975_StaticFields21set_depthFormatBits_6EP22Int32U5BU5D_t385246372
J9b:__ZN9ShaderLab20SerializedSubProgram14AddVectorParamEPKcii15ShaderParamTypei
_jm:_List_1_GetEnumerator_m563931292_gshared
HEa:__ZN18StreamedBinaryRead19TransferSTLStyleMapINSt3__23mapIN9ShaderLab16FastPropertyNameEfNS1_4lessIS4_EENS1_9allocatorINS1_4pairIKS4_fEEEEEEEEvRT_17TransferMetaFlags
NMo:_GC_max
Fqd:__ZN21TilemapRefCountedDataI4PPtrI6ObjectEE8TransferI14SafeBinaryReadEEvRT_
Jvd:__ZN2UI14CanvasRenderer12CleanupClassEv
gDi:_Enumerator__ctor_m3362421874
azj:__ZN30DateTimeFormatInfo_t240585370119set_m_isReadOnly_10Eb
nWe:__ZL94AudioSampleProvider_t3950279772_CustomAttributesCacheGenerator_U3CtrackIndexU3Ek__BackingFieldP21CustomAttributesCache
A8l:__ZN16VirtFuncInvoker1Ib19Color32_t2600501292E6InvokeEjP12Il2CppObjectS0_
szo:__ZN6il2cpp2vm6Object3BoxEP11Il2CppClassPv
Jlo:__ZN6il2cpp2vm6Thread7SetNameEP12Il2CppThreadP12Il2CppString
Rck:__ZN16VirtFuncInvoker2Ib40CustomAttributeTypedArgument_t2723150157S0_E6InvokeEjP12Il2CppObjectS0_S0_
KM:__ZN11UnityEngine15CloudWebService10RestClientINS0_23WebRequestRestHeaderMapEE16SetRequestHeaderERKN4core12basic_stringIcNS4_20StringStorageDefaultIcEEEESA_
jZa:__ZN30RuntimeInitializeOnLoadManager15ClassMethodInfo8TransferI14SafeBinaryReadEEvRT_
oMh:_ConstructionCall_InitDictionary_m2824447813
wxf:_TargetException__ctor_m3701535709
Tjl:__Z86RuntimeInvoker_Int32_t2950945753_Vector3_t3722313464_Vector3_t3722313464_RuntimeObjectPFvvEPK10MethodInfoPvPS4_
IJ:__ZL22InitializeModule_Audiov
cIl:__ZNK41RijndaelTransform_t631222241_StaticFields10get_iT1_24Ev
g9a:__ZN16MemoryFileSystem8IsLockedERK13FileEntryData
Fxk:__Z35KeyValuePair_2_ToString_m2480962023P26KeyValuePair_2_t3842366416PK10MethodInfo
lro:__ZN6il2cpp6icalls8mscorlib6System2IO6MonoIO5WriteEiP11Il2CppArrayiiPi
vag:_Mathf_InverseLerp_m4155825980
R0k:__Z92RuntimeInvoker_RuntimeObject_RuntimeObject_RuntimeObject_SByte_t1669577662_SByte_t1669577662PFvvEPK10MethodInfoPvPS4_
gf:_emscripten_glBindRenderbuffer
XWm:_UriScheme__ctor_m1399779782
Lzj:__ZNK43DateTimeFormatInfo_t2405853701_StaticFields39get_INVARIANT_ABBREVIATED_MONTH_NAMES_6Ev
Yqk:__ZNK43EqualityComparer_1_t1530079185_StaticFields14get__default_0Ev
Ati:_Context_set_ReadSequenceNumber_m2154909392
Y0i:__ZN15Oid_t355212026012set__value_0EP8String_t
FRn:__ZN30dense_hashtable_const_iteratorINSt3__24pairIK10KeyWrapperIPK11Il2CppClassEPKcEES6_N6il2cpp5utils11PointerHashIS3_EEN14dense_hash_mapIS6_S9_SE_NS6_14EqualsComparerINS0_8equal_toIS5_EEEENS0_9allocatorISA_EEE9SelectKeyESJ_SL_EC2EPK15dense_hashtableISA_S6_SE_SN_SJ_SL_EPKSA_SU_b
SOo:_GC_dirty_init
qUk:__ZNK25PrivateKeyInfo_t66802799210get__key_2Ev
Rbh:__ZN32InternalEnumerator_1_t101283622211set_array_0EP11Il2CppArray
_wo:__ZN6il2cpp2vm5Image33GetCachedMemoryMappedResourceFileEP24Il2CppReflectionAssembly
qxo:__ZN6il2cpp2vm5Field14GetValueObjectEP9FieldInfoP12Il2CppObject
$wd:__ZNK2UI6Canvas16GetTargetDisplayEv
Xhl:__Z69RuntimeInvoker_Void_t1185182177_Int32_t2950945753_Vector2_t2156229523PFvvEPK10MethodInfoPvPS4_
dGd:__Z63Register_UnityEngine_Analytics_CustomEventData_Internal_Destroyv
hNl:__ZN46CustomAttributeNamedArgumentU5BU5D_t371046479514SetAtUncheckedEj39CustomAttributeNamedArgument_t287865710
gxl:_TimeSpan_CompareTo_m3633415627_AdjustorThunk
nrb:__Z35Transfer_Blittable_FixedBufferFieldI18StreamedBinaryReadtEvRK29SerializationCommandArgumentsR31RuntimeSerializationCommandInfo
LJc:__ZN9JSONWrite8TransferI4PPtrI9Texture2DEEEvRT_PKc17TransferMetaFlags
eTk:__ZNK30KeyPairPersistence_t209454746116get__container_7Ev
Mxm:_Collection_1_Remove_m3611142372_gshared
yub:__ZN13MonoBehaviour17RemoveFromManagerEv
WMm:__ZNK21Enumerator_t7377252769get_ptr_1Ev
epn:_Vector3_get_Item_m668685504_AdjustorThunk
Xqa:__ZN12ImageFilters14AddImageFilterERK11ImageFilter
rPf:_ClrTypeMetadata_get_RequiresTypes_m1619438370
vNa:__ZL11DecodeValuePPKcS0_
xMh:__ZN27MethodDictionary_t20789420417set__methodKeys_2EP24StringU5BU5D_t1281789340
IZj:_WindowsIdentity_System_Runtime_Serialization_IDeserializationCallback_OnDeserialization_m3428853631
mR:__ZN13MemoryManagerC2Ev
hSn:__ZNK15dense_hashtableINSt3__24pairIK10KeyWrapperIPKcEP11Il2CppClassEES5_N6il2cpp5utils11StringUtils12StringHasherIS4_EEN14dense_hash_mapIS5_S8_SE_NS5_14EqualsComparerINSB_13VmStringUtils21CaseSensitiveComparerEEENS0_9allocatorIS9_EEE9SelectKeyESJ_SL_E8min_sizeEjj
zKg:_ScrollRect_SetDirty_m214267968
jnl:__Z74RuntimeInvoker_Int32_t2950945753_UIVertex_t4057497605_UIVertex_t4057497605PFvvEPK10MethodInfoPvPS4_
mph:__Z73Enumerator_System_Collections_IDictionaryEnumerator_get_Value_m3510383352P22Enumerator_t2086727927PK10MethodInfo
HHl:_RSAParameters_t1728406613_marshal_pinvoke_cleanup
z8a:__ZN20ArchiveStorageReader28AcquireAndPrefillUnusedBlockEjPNS_11CacheResultE
e6h:_Boolean_System_IConvertible_ToDateTime_m603510836
egc:__Z12NHxRoughnessIA4_tEvP9Texture2DPT_iiii
b4l:__ZN28GenericInterfaceFuncInvoker2IibbE6InvokeEPK10MethodInfoP12Il2CppObjectbb
tFd:__ZN11UnityEngine15PlatformWrapper33GetTimeSinceStartupInMillisecondsEv
eFn:__ZNK42AnimationMotionXToDeltaPlayable_t27223155114get_m_Handle_0Ev
Hvl:__ZN29Timer_t716671026_StaticFields15set_scheduler_1EP21Scheduler_t3215764947
E2:__ZN18AsyncUploadManagerD2Ev
Tek:__ZN21InterfaceFuncInvoker2Ii20UIVertex_t4057497605S0_E6InvokeEjP11Il2CppClassP12Il2CppObjectS0_S0_
d3a:__ZN9Transform5ResetEv
AQi:_DelegateSerializationHolder__ctor_m23226427
Lca:__ZL59__ManagedRegistrationHelperFunction_GraphicsDeviceTypeProxyPv
nIi:_Decimal_op_Explicit_m1842265407
sob:__Z22TransferField_NonArrayI24GenerateTypeTreeTransfer16Converter_StringEvRK23StaticTransferFieldInfoR31RuntimeSerializationCommandInfoRT0_
VNa:__ZNK9Texture3D16ExtractImageImplEP14ImageReference13ImageBlitModebi
fgd:_UNITY_FT_CMap_New
vAc:__Z38Transform_CUSTOM_set_position_InjectedP12Il2CppObjectRK8Vector3f
ruc:__Z57Register_UnityEngine_RectTransform_get_anchorMax_Injectedv
j1k:__Z109RuntimeInvoker_Void_t1185182177_RuntimeObject_RuntimeObject_RuntimeObject_SByte_t1669577662_SByte_t1669577662PFvvEPK10MethodInfoPvPS4_
lWg:_InternalEnumerator_1_MoveNext_m154749640_AdjustorThunk
Nwb:__Z17MainLoopKeepalivePv
SKe:__ZL99RectOffset_t1369453676_CustomAttributesCacheGenerator_RectOffset_t1369453676____bottom_PropertyInfoP21CustomAttributesCache
M5e:__ZL62Slider_t3903728902_CustomAttributesCacheGenerator_m_HandleRectP21CustomAttributesCache
asa:__ZN12SharedObjectI22RenderingCommandBufferLb1E27SharedObjectDeleteReleaseOpIS0_EE5ResetEv
HUn:__ZN15dense_hashtableI10KeyWrapperIPK17Il2CppGenericInstES4_N6il2cpp8metadata21Il2CppGenericInstHashEN14dense_hash_setIS4_S7_NS4_14EqualsComparerINS6_24Il2CppGenericInstCompareEEENSt3__29allocatorIS4_EEE8IdentityESB_SE_E12expand_arrayEjN21dense_hash_map_traits17integral_constantIbLb0EEE
hah:_InternalEnumerator_1_get_Current_m1588647567_AdjustorThunk
Bto:__ZN14dense_hash_mapI10KeyWrapperIP14Il2CppIUnknownEjN6il2cpp5utils11PointerHashIS1_EENS3_14EqualsComparerINSt3__28equal_toIS2_EEEENS9_9allocatorINS9_4pairIKS3_jEEEEED2Ev
_ef:_ILGenerator_Emit_m2239205197
lte:__ZL51GCHandle_t3351438187_CustomAttributesCacheGeneratorP21CustomAttributesCache
nNl:__ZN28OrderBlockU5BU5D_t238920259014SetAtUncheckedEj22OrderBlock_t1585977831
CXd:__ZNK32MouseButtonEventData_t319034756017get_buttonState_0Ev
Ock:__ZN16VirtFuncInvoker2Ib39CustomAttributeNamedArgument_t287865710S0_E6InvokeEjP12Il2CppObjectS0_S0_
eug:_InputField_get_caretBlinkRate_m3620074524
L0a:__ZN11PreloadData39ShouldIgnoreInGarbageDependencyTrackingEv
wYg:_InternalEnumerator_1_System_Collections_IEnumerator_Reset_m1716381123_AdjustorThunk
ljf:__ZN16VirtFuncInvoker3IP6Type_tP8String_tbbE6InvokeEjP12Il2CppObjectS3_bb
yHl:_RSAPKCS1SignatureFormatter_CreateSignature_m3191980616
fDa:__ZN10builtintex16GetDefaultTexEnvE16TextureDimensionb
$Pb:__Z19SetupLODFadeKeywordR17ShaderPassContextb
dIb:__ZL25CheckCopyTextureArgumentsRK7ApiGLESP11GLESTextureS3_
pVd:_PointerEventData_get_pointerCurrentRaycast_m2627585223
lah:_InternalEnumerator_1__ctor_m362401472_AdjustorThunk
Nhm:_List_1_AsReadOnly_m2400800347_gshared
k5o:_glDeleteShader__wrapper
A5:__ZNK15PlayableMethods18InvokeOnGraphStartER18ScriptingObjectPtrRK9HPlayable
u4m:__ZN21BlackHole_t373134803321set_ForceMultiplier_6Ef
Rnb:__Z29Transfer_Blittable_ArrayFieldI24GenerateTypeTreeTransferyEvRT_R9ArrayInfoRK23StaticTransferFieldInfo
_Dl:_ValueType_Equals_m1524437845
aIe:__ZL71RuntimePlatform_t4159857903_CustomAttributesCacheGenerator_OSXWebPlayerP21CustomAttributesCache
pqh:__Z31Enumerator_MoveNext_m3542650857P22Enumerator_t1626871233PK10MethodInfo
KA:__ZN4FMOD7SystemI9playSoundE17FMOD_CHANNELINDEXPNS_5SoundEbPPNS_7ChannelE
Egl:__Z123RuntimeInvoker_RuntimeObject_Ray_t3785851493_RuntimeObject_Single_t1397266774_Int32_t2950945753_RuntimeObject_RuntimeObjectPFvvEPK10MethodInfoPvPS4_
Jgj:_Int64_GetHashCode_m703091690
gCj:_CultureInfo_set_DateTimeFormat_m1843682751
cNn:__ZN30dense_hashtable_const_iteratorINSt3__24pairIK10KeyWrapperIPK22Il2CppGenericParameterEP11Il2CppClassEES6_N6il2cpp5utils11PointerHashIS4_EEN14dense_hash_mapIS6_S9_SE_NS6_14EqualsComparerINS0_8equal_toIS5_EEEENS0_9allocatorISA_EEE9SelectKeyESJ_SL_EC2ERK24dense_hashtable_iteratorISA_S6_SE_SN_SJ_SL_E
vZj:__ZNK22StrongName_t367572461410get_name_1Ev
vKm:_X509CrlEntry_get_RevocationDate_m606796547
c2c:__ZN17PhysicsMaterial2D5ResetEv
lYm:_Event_get_commandName_m4275147343
tHi:_Decimal_op_Implicit_m4256234411
uib:__Z24TransferPPtrToMonoObjecti17ScriptingClassPtrP23DataToCreateNullWrapper24TransferInstructionFlags
_bn:__ZN15Saw_t315501985416set_currentDir_6EP21Transform_t3600365921
EZk:__Z60RuntimeInvoker_RuntimeObject_RuntimeObject_Int16_t2552820387PFvvEPK10MethodInfoPvPS4_
n8m:_Goal_Update_m3324646694
i8l:__ZN28GenericInterfaceFuncInvoker1Ib40CustomAttributeTypedArgument_t2723150157E6InvokeEPK10MethodInfoP12Il2CppObjectS0_
QOj:_StreamReader__ctor_m3941437302
nga:__ZN9Scripting11UnityEngine13GradientProxy9InitProxyEv
jTd:__Z25Il2CppCodeGenWriteBarrierI27EventFunction_1_t2658898854EvPPT_S2_
B_i:_IPv6Address_get_Address_m1389170741
YYa:__ZN30RuntimeInitializeOnLoadManager23VirtualRedirectTransferER17RemapPPtrTransfer
Q1o:dynCall_viif
xEf:_RemoteActivator_Activate_m3917386814
rpj:_AssemblyName_get_Flags_m1616840602
One:__ZL72MonoDocumentationNoteAttribute_t493035051_CustomAttributesCacheGeneratorP21CustomAttributesCache
XUd:__ZN28PointerEventData_t380790109238set_U3CclickCountU3Ek__BackingField_18Ei
vQj:_StringReader_ReadLine_m2337102945
WKi:__ZN33CurrentSystemTimeZone_t399835225522set_utcOffsetWithDLS_8E19TimeSpan_t881159249
Yfn:__Z28List_1_get_Count_m3831796040P18List_1_t3952196670PK10MethodInfo
sdn:__ZN24EventTrigger_t252745169513set_m_Rules_4EP32TriggerListContainer_t2032715483
zlb:__ZL26Transfer_SimpleNativeClassI17RemapPPtrTransfer8GradientLb0EEvRK29SerializationCommandArgumentsR31RuntimeSerializationCommandInfo
gKe:__ZL49Shader_t4151988712_CustomAttributesCacheGeneratorP21CustomAttributesCache
W2f:__ZN23InterfaceActionInvoker3IiP8String_tP24ObjectU5BU5D_t2843939325E6InvokeEjP11Il2CppClassP12Il2CppObjectiS1_S3_
rBf:__Z25Il2CppCodeGenWriteBarrierI19Version_t3456873960EvPPT_S2_
D6h:_Boolean_Equals_m2410333903_AdjustorThunk
Q1n:__ZN6il2cpp6icalls8mscorlib6System8MonoType14get_attributesEP20Il2CppReflectionType
dwe:__ZL61ISurrogateSelector_t3040401154_CustomAttributesCacheGeneratorP21CustomAttributesCache
EQg:_Slider_OnPointerDown_m3052086073
T1o:dynCall_viifffi
rnc:__ZL41RuntimeInitializeOnSceneLoadedBeforeAwakeiR18AwakeFromLoadQueue16SceneLoadingMode
yBj:__ZNK23CultureInfo_t415784306816get_territory_25Ev
FN:__ZN13UploadHandlerD2Ev
Rw:__GLOBAL__sub_I_Modules_AssetBundle_Public_1_cpp
k2o:dynCall_viiiiiffi
xrl:__ZN23UTF8Decoder_t215921486218set_leftOverBits_2Ej
a5f:_InvokableCallList_PrepareInvoke_m4003891334
of:_emscripten_glBlendFuncSeparate
hSl:_Collection_1_Add_m809543251_gshared
Bea:__ZN9Scripting11UnityEngine9Rendering28AsyncGPUReadbackRequestProxy9InitProxyEv
TW:__Z20scripting_string_newPKc
Dxa:__ZN18StreamedBinaryRead21TransferSTLStyleArrayI13dynamic_arrayI21PlatformShaderDefinesLj0EEEEvRT_17TransferMetaFlags
D0i:__ZNK20WebProxy_t201676054213get_address_0Ev
jKk:__ZN45MSCompatUnicodeTable_t1453885583_StaticFields19set_cjkKOcategory_9EPh
_Qm:_Parser_IsSingleline_m326238187
wOk:_BigInteger_Randomize_m2194703121
Jdi:_CollectionBase_get_Count_m1708965601
aXf:_HMAC__ctor_m97939284
c$l:_ReadOnlyCollection_1_System_Collections_IList_get_Item_m1005238747_gshared
dCe:__ZL49DBNull_t3725197148_CustomAttributesCacheGeneratorP21CustomAttributesCache
ZDl:_ValueType_DefaultEquals_m2927252100
IHc:__ZN9JSONWrite12AppendToNodeEPN5Unity9rapidjson12GenericValueINS1_4UTF8IcEE13JSONAllocatorEEPKcRS6_
DQk:_ASN1_ToString_m1340204511
uwi:__ZNK25SslStreamBase_t166741340713get_context_5Ev
$4f:__Z23List_1_Clear_m803816076P18List_1_t4176035766PK10MethodInfo
ETc:__ZN16PhysicsManager2D20GetRigidBodyVelocityERK11Rigidbody2D
X5i:_X509Store_get_Certificates_m2149701265
Xdb:__ZN20GfxAsyncReadbackDataD2Ev
Tmk:_DefaultComparer_GetHashCode_m2865442331_gshared
bzl:_Type_GetField_m2961003358
R1e:__ZL144StandaloneInputModule_t2760469101_CustomAttributesCacheGenerator_StandaloneInputModule_t2760469101____allowActivationOnMobileDevice_PropertyInfoP21CustomAttributesCache
_ao:__ZN15dense_hashtableINSt3__24pairIK10KeyWrapperINS1_IPK11Il2CppImageP11Il2CppClassEEEjEES9_17ReflectionMapHashIS8_EN14dense_hash_mapIS9_jSD_NS9_14EqualsComparerINS0_8equal_toIS8_EEEENS0_9allocatorISB_EEE9SelectKeyESI_SK_E15destroy_bucketsEjj
Czh:__ZN25ReturnMessage_t137698560817set__methodBase_7EP12MethodBase_t
upl:_StringBuilder_set_Chars_m3548656617
m5n:__ZN6il2cpp2os4File17GetFileAttributesERKNSt3__212basic_stringIcNS2_11char_traitsIcEENS2_9allocatorIcEEEEPi
rjl:__Z59RuntimeInvoker_Int32_t2950945753_X509ChainStatus_t133602714PFvvEPK10MethodInfoPvPS4_
GG:__ZN17AudioCustomFilterD2Ev
dGc:__ZN11IMGUIModule26SetDeveloperConsoleVisibleEb
Arb:__Z18Transfer_BlittableI18StreamedBinaryReadLb0E12PropertyNameEvRK29SerializationCommandArgumentsR31RuntimeSerializationCommandInfo
hkl:__Z56RuntimeInvoker_Void_t1185182177_MonoResource_t4103430009PFvvEPK10MethodInfoPvPS4_
y2a:__ZN9Transform16ResetReplacementEv
hao:__ZN30dense_hashtable_const_iteratorINSt3__24pairIK10KeyWrapperINS1_IPK10MethodInfoP11Il2CppClassEEEjEES9_17ReflectionMapHashIS8_EN14dense_hash_mapIS9_jSD_NS9_14EqualsComparerINS0_8equal_toIS8_EEEENS0_9allocatorISB_EEE9SelectKeyESI_SK_EC2ERK24dense_hashtable_iteratorISB_S9_SD_SM_SI_SK_E
_oe:__ZL64DebuggerBrowsableState_t747501856_CustomAttributesCacheGeneratorP21CustomAttributesCache
ZGb:__ZN18GfxFramebufferGLES18ReleaseFramebufferEP17RenderSurfaceBaseP14GfxContextGLES
vTi:__ZNK37MonoEnumInfo_t3694469084_StaticFields20get_long_comparer_10Ev
OKc:__Z18Transfer_BlittableI8JSONReadLb1EiEvRK29SerializationCommandArgumentsR31RuntimeSerializationCommandInfo
AFl:__ZNK23RC2Transform_t4583214879get_R1_13Ev
Yqb:__Z18Transfer_BlittableI18StreamedBinaryReadLb1EN4math12int2_storageEEvRK29SerializationCommandArgumentsR31RuntimeSerializationCommandInfo
WQj:_TextReader_Dispose_m4253712522
hO:__ZN19CloudServiceHandler34HandleSaveFileWebRequestPlayerLoopEv
KDe:__ZL82BigInteger_t2902905090_CustomAttributesCacheGenerator_BigInteger__ctor_m2474659844P21CustomAttributesCache
YF:__Z31GetParentSampleClipFromInstancePN11SoundHandle8InstanceE
VAm:_InternalAsyncResult_get_BytesRead_m3975435112
Icc:__ZNK28RectTransformPropertyBinding13GetFloatValueERKN11UnityEngine9Animation10BoundCurveE
n_b:__ZN6Camera22StandaloneCustomRenderENS_10RenderFlagEP6ShaderRKN4core12basic_stringIcNS3_20StringStorageDefaultIcEEEEPNS_21PerformRenderFunctionE
Adk:_Array_InternalArray__IndexOf_TisKeyValuePair_2_t2401056908_m4118889689_gshared
Vlf:__ZN31OpCodes_t126150456_StaticFields15set_Ldind_I8_75E17OpCode_t123070264
YWl:_Collection_1_System_Collections_ICollection_get_IsSynchronized_m500240145_gshared
bhg:__ZN32PlayableOutputHandle_t420805379315set_m_Version_1Ej
qVo:__ZN6il2cpp2os16ThreadLocalValue8GetValueEPPv
O3i:_X509Certificate2_get_PublicKey_m370665820
sqh:__Z34Enumerator_get_Current_m2704389975P22Enumerator_t1626871233PK10MethodInfo
Bmn:_ListPool_1_Release_m591299672_gshared
F$g:__ZN32InternalEnumerator_1_t150172948011set_array_0EP11Il2CppArray
FH:__ZN13AudioListener17ReadExtensionNameEi
pl:_glUniform1uiv
lxm:_Collection_1_System_Collections_Generic_ICollectionU3CTU3E_get_IsReadOnly_m1419845799_gshared
byn:__ZL25UnresolvedVirtualCall_143P12Il2CppObject29CullingGroupEvent_t1722745023PK10MethodInfo
gTe:__ZL96Transform_t3600365921_CustomAttributesCacheGenerator_Transform_Rotate_m1886816857____relativeTo1P21CustomAttributesCache
V0b:__Z25RegisterModuleICalls_Jobsv
Aen:_U3CTimedTriggerU3Ec__Iterator0_System_Collections_Generic_IEnumeratorU3CobjectU3E_get_Current_m3822291412
nH:__ZN9AudioClip15InitializeClassEv
sp:setThrew
ozi:_SslClientStream_OnLocalPrivateKeySelection_m1934775249
$mo:__ZN15dense_hashtableINSt3__24pairIK10KeyWrapperIP11Il2CppClassES4_EES5_N6il2cpp8metadata16SZArrayClassHashEN14dense_hash_mapIS5_S4_SA_NS5_14EqualsComparerINS9_19SZArrayClassCompareEEENS0_9allocatorIS7_EEE9SelectKeyESE_SG_E5clearEv
PHe:__ZL106AsyncOperation_t1445031843_CustomAttributesCacheGenerator_AsyncOperation_InvokeCompletionEvent_m1410305036P21CustomAttributesCache
J7h:_Byte_ToString_m721125428
k5b:__ZN14SafeBinaryRead21TransferSTLStyleArrayINSt3__26vectorIN9ShaderLab20SerializedSubProgramENS1_9allocatorIS4_EEEEEEvRT_17TransferMetaFlags
_dk:_Array_InternalArray__IndexOf_TisX509ChainStatus_t133602714_m48896230_gshared
_5a:__ZN19dynamic_block_arrayI13FileEntryInfoLj32EE4growEj
XKc:__Z15Transfer_StringI8JSONReadLb1EEvRK29SerializationCommandArgumentsR31RuntimeSerializationCommandInfo
e3:__ZN16LightmapSettings15AppendLightmapsEiRK13dynamic_arrayI12LightmapDataLj0EE
PIj:__ZN24BinaryWriter_t399259504212set_buffer_3EP22ByteU5BU5D_t4116647657
Y7:__ZN6prcoreL17RemapGenericFloatI17TexFormatRGBFloat15TexFormatRGHalfEEvPKNS_9InnerInfoE
QAo:__ZN14dense_hash_mapI10KeyWrapperIP12Il2CppObjectEN6il2cpp2gc9CachedCCWENS4_5utils11PointerHashIS1_EENS3_14EqualsComparerINSt3__28equal_toIS2_EEEENSB_9allocatorINSB_4pairIKS3_S6_EEEEE4findERSH_
yue:__ZL63IContributeEnvoySink_t2817847987_CustomAttributesCacheGeneratorP21CustomAttributesCache
uid:_sfnt_load_face
Fbd:_UNITY_FT_Render_Glyph_Internal
opo:__ZNSt3__212basic_stringIDsNS_11char_traitsIDsEENS_9allocatorIDsEEE21__grow_by_and_replaceEjjjjjjPKDs
vgd:_UNITY_ft_service_list_lookup
slb:__Z18Transfer_BlittableI17RemapPPtrTransferLb1E11ColorRGBA32EvRK29SerializationCommandArgumentsR31RuntimeSerializationCommandInfo
$Ec:__ZN5IMGUI21SelectReceivingWindowER8GUIStateb
_Km:_IntStack_set_Count_m756607812
SXf:_HMAC_Initialize_m3157696427
Ns:__ZL59__ManagedRegistrationHelperFunction_RotationConstraintProxyPv
_Xo:___strchrnul
x6:__ZN4core8hash_mapINS_12basic_stringIcNS_20StringStorageDefaultIcEEEEPKvNS_4hashIS4_EENSt3__28equal_toIS4_EEEixERKS4_
xS:__ZN13BaseAllocator13TryDeallocateEPv
Vmn:_ListPool_1_Release_m1363449253_gshared
x1i:_X509SubjectKeyIdentifierExtension__ctor_m2055934916
_Kk:__ZNK26SimpleCollator_t287783472917get_level2Maps_11Ev
iwj:__ZNK29Path_t1605229823_StaticFields21get_dirEqualsVolume_7Ev
GUh:__ZN46RemotingConfiguration_t4113740665_StaticFields23set_defaultConfigRead_3Eb
UCk:_Enumerator_Dispose_m2531396701_AdjustorThunk
Q8a:__ZN16MemoryFileSystem5WriteER13FileEntryDatayPvPy
tie:__ZNK33UIVertex_t4057497605_StaticFields17get_simpleVert_10Ev
YXc:__ZNK21b2ClearBodyForcesTask13GetRangeCountEv
OWo:_sprintf
Vrg:__ZNK22InputField_t376291743122get_m_TextComponent_20Ev
sac:__ZN9Scripting25CreateNullExceptionObjectE18ScriptingObjectPtr
pyf:__ZN28ResolveEventArgs_t177945650112set_m_Name_1EP8String_t
tUk:_PrivateKeyInfo_DecodeRSA_m2889346634
tG:__ZN13AudioListener17RemoveFromManagerEv
Qi:_glAttachShader
N3d:_ContentSizeFitter_SetLayoutHorizontal_m2833273874
UXl:_ReadOnlyCollection_1_System_Collections_IList_RemoveAt_m134366701_gshared
f4k:__Z53RuntimeInvoker_Int32_t2950945753_Int32U26_t1369213839PFvvEPK10MethodInfoPvPS4_
rni:__ZN28GenericInterfaceFuncInvoker1IbP22Int32U5BU5D_t385246372E6InvokeEPK10MethodInfoP12Il2CppObjectS1_
Ipa:__ZNK6Camera19GetProjectionMatrixEv
SVk:_SymmetricTransform_InternalTransformBlock_m946892271
AKh:__ZNK21LeaseSink_t366638021915get__nextSink_0Ev
JVi:__ZN36NameObjectCollectionBase_t209184736414set_keyscoll_8EP26KeysCollection_t1318642398
c4e:__ZL70InputField_t3762917431_CustomAttributesCacheGenerator_m_SelectionColorP21CustomAttributesCache
cvg:_InputField_SetToCustomIfContentTypeIsNot_m2813459946
sWk:__Z49RuntimeInvoker_DateTime_t3738529785_RuntimeObjectPFvvEPK10MethodInfoPvPS4_
f$c:__ZN21b2FindNewContactsTask15AddContactPairsERK16b2ContactManagerP14b2FixtureProxyS4_R13dynamic_arrayINS_17b2DeferredContactELj0EE
Ubj:_Int16_Equals_m1479112859
gIe:__ZL70RuntimePlatform_t4159857903_CustomAttributesCacheGenerator_FlashPlayerP21CustomAttributesCache
Ltl:__ZNK32RegisteredWaitHandle_t152953845422get__executeOnlyOnce_5Ev
BHj:_Guid_GetHashCode_m3042133858_AdjustorThunk
GNo:_GC_next_used_block
Nja:__Z38PreallocateObjectFromPersistentManagerib
cya:__ZN15ReflectionProbe23VirtualRedirectTransferER24GenerateTypeTreeTransfer
$Xm:_Event_t2956885303_marshal_pinvoke_cleanup
nAn:__ZL25UnresolvedVirtualCall_263P12Il2CppObjecti40CustomAttributeTypedArgument_t2723150157PK10MethodInfo
RIk:__ZN45MSCompatUnicodeTable_t1453885583_StaticFields12set_level2_4EPh
z_j:_SecurityException_get_FirstPermissionThatFailed_m3934559164
Laj:_Interpreter_Backtrack_m2828876822
PKa:__ZNK9Texture2D20GetUnscaledTextureIDEv
xom:_List_1_get_Capacity_m3666274724_gshared
Ojk:__ZN24Dictionary_2_t144469424916set_threshold_11Ei
ySf:_SByte_System_IConvertible_ToType_m4075253447
rco:__ZN15dense_hashtableINSt3__24pairIK10KeyWrapperINS1_IPK12PropertyInfoP11Il2CppClassEEEjEES9_17ReflectionMapHashIS8_EN14dense_hash_mapIS9_jSD_NS9_14EqualsComparerINS0_8equal_toIS8_EEEENS0_9allocatorISB_EEE9SelectKeyESI_SK_E21fill_range_with_emptyEPSB_SO_
N3o:_glFenceSync__wrapper
zMn:__ZNK15dense_hashtableINSt3__24pairIK10KeyWrapperIPK22Il2CppGenericParameterEP11Il2CppClassEES6_N6il2cpp5utils11PointerHashIS4_EEN14dense_hash_mapIS6_S9_SE_NS6_14EqualsComparerINS0_8equal_toIS5_EEEENS0_9allocatorISA_EEE9SelectKeyESJ_SL_E8min_sizeEjj
mFk:__ZNK22Enumerator_t122258084613get_current_3Ev
n0j:_Single_System_IConvertible_ToUInt64_m3299129161
BJe:__ZL53GameObject_t1113636619_CustomAttributesCacheGeneratorP21CustomAttributesCache
nwi:__ZNK27SslClientStream_t391462466126get_ClientCertSelection_17Ev
Ypg:_Transform__ctor_m3470711880
wkl:__Z51RuntimeInvoker_Void_t1185182177_HitInfo_t3229609740PFvvEPK10MethodInfoPvPS4_
UKa:__ZNK9Texture2D26CanReuploadDataToGfxDeviceEv
O4g:_InternalEnumerator_1_Dispose_m1971295898_AdjustorThunk
cye:__ZL63CodeAccessPermission_t2681295399_CustomAttributesCacheGeneratorP21CustomAttributesCache
t$a:__Z29ClearRepeatingLogMessageStatev
o6g:_InternalEnumerator_1_get_Current_m3191242573_gshared
SMh:__ZNK41ConstructionCall_t4011594745_StaticFields30get_U3CU3Ef__switchU24map20_19Ev
IJo:__ZN6il2cpp2vm6String6NewLenEPKcj
Djl:__Z53RuntimeInvoker_Int32_t2950945753_UICharInfo_t75501106PFvvEPK10MethodInfoPvPS4_
rhc:__ZN15QualitySettings12CleanupClassEv
S2:__ZN21EnlightenSceneMappingaSERKS_
dlg:_RectTransform_set_anchorMax_Injected_m389283802
DAj:__ZN27NumberFormatInfo_t43587713829set_positiveInfinitySymbol_29EP8String_t
nna:__ZN14SafeBinaryRead21TransferSTLStyleArrayI13dynamic_arrayI17SortingLayerEntryLj0EEEEvRT_17TransferMetaFlags
Xek:__ZN21InterfaceFuncInvoker2Ii19Vector3_t3722313464S0_E6InvokeEjP11Il2CppClassP12Il2CppObjectS0_S0_
isi:__ZN19Context_t397123470726set_writeSequenceNumber_16Ey
bqm:_List_1_GrowIfNeeded_m278824317_gshared
LJb:__ZN7ApiGLESD2Ev
S2m:__ZNK30SymmetricTransform_t380259184311get_temp2_4Ev
Loa:__ZN9Transform47ClearTransformHierarchyAndApplyToSerializedDataEv
Qob:__Z18Transfer_BlittableI19StreamedBinaryWriteLb1E11QuaternionfEvRK29SerializationCommandArgumentsR31RuntimeSerializationCommandInfo
j0n:_CertificateHandler_t2739891000_marshal_pinvoke
TNb:__ZN22AsyncGPUReadbackBuffer4InitEjb
kMc:__ZN8JSONRead21TransferSTLStyleArrayINSt3__26vectorI8MonoPPtr13stl_allocatorIS3_L18MemLabelIdentifier1ELi16EEEEEEvRT_17TransferMetaFlags
xCo:__ZN6il2cpp6icalls8mscorlib6SystemL16write_enum_valueEPcP11Il2CppClassy
yHf:__ZNK37BinaryCommon_t3059247396_StaticFields22get__typeCodesToType_1Ev
xxg:_InputField_IsSelectionVisible_m3622592134
_4h:_AssemblyLoadEventHandler_Invoke_m1462077361
m0o:dynCall_fidi
c7n:__ZN15dense_hashtableINSt3__24pairIK10KeyWrapperINS1_IPK9FieldInfoP11Il2CppClassEEEjEES9_17ReflectionMapHashIS8_EN14dense_hash_mapIS9_jSD_NS9_14EqualsComparerINS0_8equal_toIS8_EEEENS0_9allocatorISB_EEE9SelectKeyESI_SK_E12resize_deltaEjj
x_c:__ZNK35b2SolveDiscreteIslandVelocitiesTask13GetRangeCountEv
fim:_List_1_TrimExcess_m3433550210_gshared
cwg:__Z25Il2CppCodeGenWriteBarrierI30TouchScreenKeyboard_t731888065EvPPT_S2_
vue:__ZL58IContextProperty_t840037424_CustomAttributesCacheGeneratorP21CustomAttributesCache
t_m:_GUILayoutEntry__ctor_m2229197035
xO:__ZN11UnityEngine15CloudWebService14RestDownloaderD2Ev
caf:_EnumBuilder_get_Assembly_m1175292766
Z1b:__Z29StdTemplateConversionFunctionIjhEbPvR14SafeBinaryRead
tta:__ZN15dense_hashtableINSt3__24pairIKN9ShaderLab7Program23ShaderKeywordSetAndHashEPKNS2_10SubProgramEEES4_NS3_24ShaderKeywordHashFunctorEN14dense_hash_mapIS4_S8_SA_NS0_8equal_toIS4_EE13stl_allocatorIS9_L18MemLabelIdentifier67ELi16EEE9SelectKeyESD_SG_E15insert_noresizeERKS9_
gNl:_Array_swap_TisCustomAttributeNamedArgument_t287865710_TisCustomAttributeNamedArgument_t287865710_m881919420_gshared
BQc:__ZL62__ManagedRegistrationHelperFunction_CachedContactPoints2DProxyPv
U3j:__ZN33Encoding_t1523322056_StaticFields20set_asciiEncoding_16EP20Encoding_t1523322056
eBa:__ZN13RenderTexture12SetDimensionE16TextureDimension
$yi:_SslClientStream_set_ClientCertSelectionDelegate_m1261530976
Am:_time
wd:_SDL_FreeRW
u0e:__ZL109ExecuteEvents_t3484638744_CustomAttributesCacheGenerator_ExecuteEvents_U3Cs_HandlerListPoolU3Em__0_m391641698P21CustomAttributesCache
Vkl:__Z79RuntimeInvoker_Void_t1185182177_Int32_t2950945753_ParameterModifier_t1461694466PFvvEPK10MethodInfoPvPS4_
_tj:__ZN25DynamicMethod_t253777957024get_address_of_mhandle_0Ev
hyd:__Z34CanvasRenderer_Get_Custom_PropCullP12Il2CppObject
WAk:__ZNK22Enumerator_t17895014809get_ver_2Ev
aF:__ZN20SoundChannelInstance8getDelayE14FMOD_DELAYTYPEPjS1_
Ita:__ZNSt3__26vectorIN20GpuProgramParameters15StructParameterENS_9allocatorIS2_EEEC2ERKS5_
neh:__ZN32InternalEnumerator_1_t269436751311set_array_0EP11Il2CppArray
zUg:_ArrayReadOnlyList_1_Contains_m232667507_gshared
r4k:__Z77RuntimeInvoker_Boolean_t97287965_IntPtr_t_Int32_t2950945753_SByte_t1669577662PFvvEPK10MethodInfoPvPS4_
Ngg:_PlayableHandle_GetPlayableType_m432385838_AdjustorThunk
rad:__ZNSt3__26vectorIN20TextRenderingPrivate8FontImpl13CharacterInfoE13stl_allocatorIS3_L18MemLabelIdentifier1ELi16EEE8__appendEj
v:tempBigInt
HJl:_Array_InternalArray__Insert_TisKeyframe_t4206410242_m1558638568_gshared
uAe:__ZL77Convert_t2465617642_CustomAttributesCacheGenerator_Convert_ToByte_m3567528984P21CustomAttributesCache
Zh:_emscripten_glVertexAttrib1fv
Q5b:__ZNSt3__26vectorIN9ShaderLab20SerializedSubProgram12UAVParameterENS_9allocatorIS3_EEE7reserveEj
HNk:__ZNK19Context_t174453113022get_AlwaysMatchFlags_2Ev
e$o:__ZSt11__terminatePFvvE
Umo:__ZN15dense_hashtableINSt3__24pairIK10KeyWrapperIP11Il2CppClassES4_EES5_N6il2cpp8metadata16SZArrayClassHashEN14dense_hash_mapIS5_S4_SA_NS5_14EqualsComparerINS9_19SZArrayClassCompareEEENS0_9allocatorIS7_EEE9SelectKeyESE_SG_E9set_valueEPS7_RKS7_
CB:__ZN12AudioManager14systemCallbackEP11FMOD_SYSTEM24FMOD_SYSTEM_CALLBACKTYPEPvS3_
K3j:__ZNK33Encoding_t1523322056_StaticFields29get_bigEndianUTF32Encoding_26Ev
j7d:__ZNK20Dropdown_t227439122520get_m_CaptionText_19Ev
d1l:_ReadOnlyCollection_1_System_Collections_Generic_ICollectionU3CTU3E_Clear_m3451551308_gshared
l$d:_BaseMeshEffect_OnEnable_m3291426649
Zio:_il2cpp_alloc
_0f:_ClassLibraryInitializer_Init_m988673678
kkf:__ZNK24StringU5BU5D_t128178934014GetAtUncheckedEj
h5h:_AssemblyLoadEventHandler_BeginInvoke_m1281107466
tza:__ZN16ReflectionProbes16UpdateSampleDataEv
mYm:_Event_Internal_Destroy_m928770705
oMi:_DateTime_System_IConvertible_ToSingle_m2193708681_AdjustorThunk
jAh:_TrackingServices_NotifyUnmarshaledObject_m2784831802
Gvo:__ZNK10KeyWrapperINSt3__24pairIPKcS3_EEE8isNormalEv
qCj:_CultureInfo_GetCultureInfo_m56098747
Cfh:__Z38InternalEnumerator_1__ctor_m2490839835P31InternalEnumerator_1_t669594426P11Il2CppArrayPK10MethodInfo
KOa:__ZN14Texture2DArray5ResetEv
bXb:__Z20AddActiveLocalLightsR11CullResultsR27LocalLightCullingParametersPPK15SharedLightDataPK8Vector4fRK9IndexListPfRSA_R12ActiveLightsSG_P5RectTIfEP13TargetEyeMask
Aoe:__ZL80Hashtable_t1853889766_CustomAttributesCacheGenerator_Hashtable__ctor_m1763145853P21CustomAttributesCache
cHi:_Convert_ToDecimal_m1284148187
mPj:__ZNK24StreamReader_t400993589914get_foundCR_13Ev
Cah:__Z40InternalEnumerator_1_MoveNext_m190587569P32InternalEnumerator_1_t1629489814PK10MethodInfo
WKe:__ZL117TouchScreenKeyboard_t731888065_CustomAttributesCacheGenerator_TouchScreenKeyboard_Open_m3609399077____autocorrection2P21CustomAttributesCache
HYh:__ZNK26X509Certificate_t48924302413get_subject_8Ev
Ydd:_cf2_getNormalizedVector
Jc:_JS_Sound_Play
Jrh:_KeyCollection_GetEnumerator_m1862005650_gshared
MHd:__Z26GetUnityConnectSettingsPtrv
_9o:_emscripten_glRenderbufferStorage__wrapper
b5d:_FloatTween_get_targetValue_m3648367999
d2l:_ReadOnlyCollection_1_System_Collections_IList_set_Item_m1538987737_gshared
KOj:__ZNK28StreamAsyncResult_t78024851211get_state_0Ev
J4b:__ZN9ShaderLab16SerializedShader8TransferI14SafeBinaryReadEEvRT_
F_a:__ZN5Mutex7TryLockEv
Jgi:__ZN22ModulusRing_t59651150514set_constant_1EP22BigInteger_t2902905090
mge:_GridLayoutGroup_set_constraint_m3308895167
$We:__ZL103AudioSource_t3935305588_CustomAttributesCacheGenerator_AudioSource_ReadExtensionPropertyValue_m72717540P21CustomAttributesCache
C5i:__ZN33X509Chain_t194917408_StaticFields29set_U3CU3Ef__switchU24mapC_13EP24Dictionary_2_t2736202052
ANh:_ConstructionCallDictionary_SetMethodProperty_m3145285304
Jsn:__ZNK46AudioExtensionManager_t3220897493_StaticFields45get_m_SourceSpatializerExtensionDefinitions_1Ev
eCc:__ZN4Grid23VirtualRedirectTransferER18StreamedBinaryRead
Bfj:_Int32_System_IConvertible_ToUInt32_m3557270157
k7k:__Z243RuntimeInvoker_Void_t1185182177_Int16_t2552820387_RuntimeObject_Int32_t2950945753_Int32_t2950945753_Int32_t2950945753_SByte_t1669577662_SByte_t1669577662_SByte_t1669577662_SByte_t1669577662_Int16_t2552820387_SByte_t1669577662_SByte_t1669577662PFvvEPK10MethodInfoPvPS4_
aWg:_InternalEnumerator_1_System_Collections_IEnumerator_get_Current_m1503522504_gshared
e9d:__Z26ListPool_1_Get_m3146528893P12Il2CppObjectPK10MethodInfo
_gc:__ZN19ShaderPropertySheet16SetVectorIndexedEN9ShaderLab16FastPropertyNameEifRK8Vector4fNS_8SetFlagsE
ryl:_Type_get_IsAbstract_m1120089130
vpn:_Vector3_get_normalized_m2454957984_AdjustorThunk
Vq:__ZN14SafeBinaryRead21TransferSTLStyleArrayIN4core12basic_stringIcNS1_20StringStorageDefaultIcEEEEEEvRT_17TransferMetaFlags
MXm:_UriFormatException__ctor_m1115096473
A1g:_InternalEnumerator_1_Dispose_m2818366163_AdjustorThunk
zbk:_Array_InternalArray__IEnumerable_GetEnumerator_TisSlot_t384495010_m460993382_gshared
hmo:__ZN15dense_hashtableINSt3__24pairIK10KeyWrapperINS1_IP11Il2CppClassjEEES4_EES6_N6il2cpp8metadata14ArrayClassHashEN14dense_hash_mapIS6_S4_SB_NS6_14EqualsComparerINSA_17ArrayClassCompareEEENS0_9allocatorIS8_EEE9SelectKeyESF_SH_E9copy_fromERKSK_j
aQa:__ZN21EnlightenSceneMapping8TransferI19StreamedBinaryWriteEEvRT_
B2b:__Z29StdTemplateConversionFunctionIayEbPvR14SafeBinaryRead
Tia:__ZN9Scripting5Unity11Collections31NativeFixedLengthAttributeProxy9InitProxyEv
sIi:_Convert_ToInt32_m1085744762
Dol:__Z55RuntimeInvoker_Boolean_t97287965_Nullable_1_t2603721331PFvvEPK10MethodInfoPvPS4_
Y1m:_GUIUtility_IsExitGUIException_m3644066650
avg:__Z64SetPropertyUtility_SetStruct_TisLineType_t4214648469_m1399434260P12Il2CppObjectPiiPK10MethodInfo
j3a:__ZN9Transform23VirtualRedirectTransferER19StreamedBinaryWrite
ZO:__ZN11UnityEngine15CloudWebService14DataDispatcher4StopEv
KBk:__Z29Enumerator_Dispose_m786980821P21Enumerator_t652329154PK10MethodInfo
VSh:_StackBuilderSink_ExecuteAsyncMessage_m277782655
S5b:__ZNSt3__26vectorIN9ShaderLab20SerializedSubProgram12UAVParameterENS_9allocatorIS3_EEE8__appendEj
oWg:_InternalEnumerator_1__ctor_m4191108945_gshared
ado:__ZNK15dense_hashtableINSt3__24pairIK10KeyWrapperINS1_IPK9EventInfoP11Il2CppClassEEEjEES9_17ReflectionMapHashIS8_EN14dense_hash_mapIS9_jSD_NS9_14EqualsComparerINS0_8equal_toIS8_EEEENS0_9allocatorISB_EEE9SelectKeyESI_SK_E12test_deletedERK24dense_hashtable_iteratorISB_S9_SD_SM_SI_SK_E
GEc:__ZN5IMGUI9GUIWindow5OnGUIER8GUIState
Gun:_AudioConfigurationChangeHandler_EndInvoke_m4175380841
gAc:__Z55Register_UnityEngine_Texture2DArray_Internal_CreateImplv
IOo:_GC_maybe_gc
W$j:_Single_System_IConvertible_ToDecimal_m325860800_AdjustorThunk
Xgk:_Array_InternalArray__ICollection_CopyTo_TisSingle_t1397266774_m455540885_gshared
laa:__ZN17ScriptingGCHandle7AcquireE18ScriptingObjectPtr25ScriptingGCHandleWeakness
Grh:_KeyCollection_System_Collections_ICollection_get_IsSynchronized_m829086683_gshared
E6k:__Z74RuntimeInvoker_RuntimeObject_RuntimeObject_Int64_t3736567304_RuntimeObjectPFvvEPK10MethodInfoPvPS4_
pHn:_SessionStateChanged_Invoke_m4203746932
wyn:__ZL25UnresolvedVirtualCall_164P12Il2CppObjectPK10MethodInfo
aah:__Z75InternalEnumerator_1_System_Collections_IEnumerator_get_Current_m2395961985P31InternalEnumerator_1_t746136913PK10MethodInfo
Ufa:__ZN9Scripting11UnityEngine17LightmapDataProxy12CleanupProxyEv
KSh:_ServerObjectReplySink_AsyncProcessMessage_m1580266605
Zwh:_Enumerator__ctor_m1734342590_gshared
Amo:__ZN15dense_hashtableINSt3__24pairIK10KeyWrapperINS1_IP11Il2CppClassjEEES4_EES6_N6il2cpp8metadata14ArrayClassHashEN14dense_hash_mapIS6_S4_SB_NS6_14EqualsComparerINSA_17ArrayClassCompareEEENS0_9allocatorIS8_EEE9SelectKeyESF_SH_E21fill_range_with_emptyEPS8_SL_
bRn:__ZN14dense_hash_mapI10KeyWrapperIPK11Il2CppClassEPKcN6il2cpp5utils11PointerHashIS1_EENS4_14EqualsComparerINSt3__28equal_toIS3_EEEENSC_9allocatorINSC_4pairIKS4_S6_EEEEE13set_empty_keyERSI_
ipi:__Z25Il2CppCodeGenWriteBarrierI30SecurityParameters_t2199972650EvPPT_S2_
u6:__ZN20BurstCompilerServiceC2Ev
K8k:__Z85RuntimeInvoker_Int32_t2950945753_RuntimeObject_Int32U26_t1369213839_Int32_t2950945753PFvvEPK10MethodInfoPvPS4_
iIa:__Z21HasAlphaTextureFormat13TextureFormat
uJ:__ZN12AudioManager6UpdateEv
T1i:_X509EnhancedKeyUsageExtension_ToString_m350388564
s5l:__Z30Comparison_1_Invoke_m668117148P24Comparison_1_t397019798922UILineInfo_t4195266810S1_PK10MethodInfo
Kij:_MissingFieldException__ctor_m3742452630
x7i:_X509Chain__ctor_m2674663382
TP:__GLOBAL__sub_I_Runtime_Core_Callbacks_0_cpp
e1l:_ReadOnlyCollection_1_System_Collections_Generic_IListU3CTU3E_Insert_m1121807192_gshared
rvb:__ZN23CachedSerializationDataD2Ev
nZb:__ZNK25CameraStackRenderingState31CalculateStereoCameraTargetTypeEv
Thk:_Dictionary_2_System_Collections_ICollection_get_SyncRoot_m2020472285_gshared
Tya:__ZN14RenderSettings23VirtualRedirectTransferER14SafeBinaryRead
Q5j:__ZNK43DecoderReplacementFallbackBuffer_t84114477923get_fallback_assigned_0Ev
fWc:__ZNK13b2CircleShape5CloneEP16b2BlockAllocator
oGo:__ZN6il2cpp2os10ThreadImpl15CurrentThreadIdEv
PPg:__ZN18Slider_t390372890217set_m_FillRect_18EP25RectTransform_t3704657025
Thf:__ZN16VirtFuncInvoker1IP6Type_tP8String_tE6InvokeEjP12Il2CppObjectS3_
Oqn:_Vector4_set_Item_m1183742235
OAi:_Queue_CopyTo_m737385843
wxa:__ZN17GlobalGameManager8TransferI17RemapPPtrTransferEEvRT_
C$e:__ZL73FieldWithTarget_t3058750293_CustomAttributesCacheGenerator_m_StaticStringP21CustomAttributesCache
BVj:_SymmetricAlgorithm_get_Key_m3241860519
qzg:_U3CMouseDragOutsideRectU3Ec__Iterator1_Reset_m2233410497
MP:__GLOBAL__sub_I_Runtime_Camera_5_cpp
v4c:__ZN10Collider2DC2E10MemLabelId18ObjectCreationMode
p5i:__ZN35X509ExtensionEnumerator_t247956065916set_enumerator_0EP12Il2CppObject
usi:_ClientSessionInfo_get_HostName_m2118440995
eGj:__ZNK20TextInfo_t381042552223get_customCultureName_2Ev
sem:_List_1_System_Collections_IList_Insert_m311779115_gshared
imd:_UNITY_tt_face_load_fpgm
Eoa:__Z17IsObjectAvailablei
PWa:__ZN12InputManagerD0Ev
qtm:_Queue_1_Peek_m1713833142_gshared
Twe:__ZL64DSASignatureFormatter_t2007981259_CustomAttributesCacheGeneratorP21CustomAttributesCache
Bbi:_SimpleEnumerator_MoveNext_m3113120129
yLh:__ZNK32CADMethodCallMessage_t261798406010get__uri_4Ev
DYg:_InternalEnumerator_1_System_Collections_IEnumerator_get_Current_m2889979481_AdjustorThunk
qTn:__ZNK10KeyWrapperIP9FieldInfoE8isNormalEv
Ude:__ZNK19Graphic_t166033561119get_m_VertsDirty_12Ev
vLm:__ZNK25RepeatContext_t121486307613get_expr_pc_4Ev
sjg:_Rect_get_position_m2115952571
Yha:__ZN9Scripting11UnityEngine15ColorGamutProxy12CleanupProxyEv
OSe:__ZL90SceneManager_t2787271929_CustomAttributesCacheGenerator_SceneManager_LoadScene_m1758133949P21CustomAttributesCache
cCi:__ZNK15Slot_t38449501011get_value_1Ev
l$l:_ReadOnlyCollection_1_get_Item_m4005849861_gshared
XPg:_Slider_get_direction_m3871593184
AQk:_ASN1_GetBytes_m3305539297
tqm:_List_1_Remove_m2092116835_gshared
URe:__ZL86Logger_t274032455_CustomAttributesCacheGenerator_Logger_LogFormat_m3030796110____args2P21CustomAttributesCache
ZAe:__ZL77Convert_t2465617642_CustomAttributesCacheGenerator_Convert_ToSByte_m717245755P21CustomAttributesCache
Uhh:_DefaultComparer__ctor_m2039558311_gshared
UY:__ZNK15MonoScriptCache7ReleaseEv
$Nn:__ZN6il2cpp2vm5Class13HasReferencesEP11Il2CppClass
ukn:__ZNK23IndexedSet_1_t23452680818get_m_Dictionary_1Ev
Q7h:_CLSCompliantAttribute__ctor_m581760440
Zi:_glBindTexture
hYo:_snprintf
Q$h:__ZNK25SmallXmlParser_t97378783915get_xmlSpaces_3Ev
Nhj:_InvalidCastException__ctor_m2551002860
wgk:_Array_InternalArray__ICollection_CopyTo_TisKeyValuePair_2_t2401056908_m4025041902_gshared
_P:__GLOBAL__sub_I_Runtime_Graphics_5_cpp
p7o:_emscripten_glVertexAttrib1fv__wrapper
U4f:_InvokableCallList_RemoveListener_m1769379719
b1a:__Z36scripting_liveness_calculation_begin17ScriptingClassPtriPFvPP12Il2CppObjectiPvES3_PFvvES7_
Asb:__Z29Transfer_Blittable_ArrayFieldI18StreamedBinaryRead10Matrix4x4fEvRT_R9ArrayInfoRK23StaticTransferFieldInfo
Ztn:_AudioExtensionManager_RemoveExtensionFromManager_m442924172
Rxn:__ZL25UnresolvedVirtualCall_131P12Il2CppObjecthS0_PK10MethodInfo
Acg:_MonoBehaviour_Internal_IsInvokingAll_m2820042090
qOj:__ZN29Path_t1605229823_StaticFields22set_InvalidPathChars_0EP22CharU5BU5D_t3528271667
Zu:__Z16AppendPathToHashRK5crc32PKc
COa:__ZN13ScreenManager20SetScreenOrientationE17ScreenOrientation
Cxo:__ZN6il2cpp2vm5Field14IsThreadStaticEP9FieldInfo
ODl:_UnitySerializationHolder_GetModuleData_m1550266881
S1e:__ZL52InputMode_t3382566315_CustomAttributesCacheGeneratorP21CustomAttributesCache
gYj:_String_Equals_m1744302937
t3f:_Display__ctor_m501911701
vZl:_ReadOnlyCollection_1_System_Collections_Generic_IListU3CTU3E_Insert_m1020890112_gshared
P4i:__ZNK28X509ChainElement_t146405633812get_status_1Ev
gUd:__ZNK27PhysicsRaycaster_t43741952017get_m_EventMask_6Ev
k8d:_Dropdown_get_onValueChanged_m2462066659
P5d:_DefaultControls_SetDefaultTextValues_m1943359795
ORb:__Z19SetupMotionMatricesR6CameraR18RPDataMotionVector
EIn:__ZL7log2_64y
bge:_GridLayoutGroup_get_cellSize_m2967185053
aLi:_CurrentSystemTimeZone_GetUtcOffset_m340358963
RFm:_PKCS12_Decrypt_m1280162536
yQc:__GLOBAL__sub_I_Physics2DScriptingClasses_cpp
WYg:_InternalEnumerator_1_get_Current_m3081223448_gshared
xYm:_Event_get_isMouse_m1058251071
cdh:__ZN32InternalEnumerator_1_t31866461069set_idx_1Ei
idi:_CaseInsensitiveHashCodeProvider_AreEqual_m1790260777
$Qg:__ZN23SpriteState_t136298647922set_m_DisabledSprite_2EP17Sprite_t280657092
tvm:_Collection_1_IndexOf_m3762683187_gshared
Ygd:_otv_JSTF_validate
Kta:__ZN22CreateGpuProgramOutputC2Ev
Egi:_BigInteger_op_LessThanOrEqual_m3925173639
I5f:_PersistentCallGroup_Initialize_m4253175514
d6h:_Boolean_System_IConvertible_ToChar_m4279513009_AdjustorThunk
BUi:_DictionaryNodeEnumerator__ctor_m1005316675
Kgf:__ZN25ParameterInfo_t186105659818set_PositionImpl_4Ei
Qzh:_LogicalCallContext__ctor_m1263247987
bej:_NumberFormatter_ScaleOrder_m3813786990
RCi:_Stack__ctor_m2602729586
afl:__Z43RuntimeInvoker_VerticalWrapMode_t2936607737PFvvEPK10MethodInfoPvPS4_
HPn:__ZN16Tile_t137892977317set_m_Transform_6E21Matrix4x4_t1817901843
rla:__ZN11SpriteAtlas8TransferI14SafeBinaryReadEEvRT_
Csk:_EqualityComparer_1_System_Collections_IEqualityComparer_GetHashCode_m2027961449_gshared
CAe:__ZL81Convert_t2465617642_CustomAttributesCacheGenerator_Convert_ToDateTime_m1031474510P21CustomAttributesCache
gMm:_Interval_get_Size_m4163671410_AdjustorThunk
org:__ZN22InputField_t376291743128set_m_CharacterValidation_28Ei
V$e:__ZL53EventHandle_t600343995_CustomAttributesCacheGeneratorP21CustomAttributesCache
nec:__ZN8GUILayer12CleanupClassEv
Rbi:_SynchronizedArrayListWrapper_get_SyncRoot_m3862302789
shm:_List_1_System_Collections_IEnumerable_GetEnumerator_m839737540_gshared
yBl:_UInt32_System_IConvertible_ToSByte_m1061556466
SFf:_WellKnownClientTypeEntry__ctor_m2471908952
VNn:__ZN6il2cpp2vm5Class4InitEP11Il2CppClass
wb:invoke_vidi
Omj:_NumberFormatter_FormatRoundtrip_m19342689
mVh:_RemotingServices_CreateClientProxyForContextBound_m783705199
agl:__Z30RuntimeInvoker_Axis_t809944411PFvvEPK10MethodInfoPvPS4_
uqc:__ZNK15GUIEventManager15GetEventAtIndexEi
vzm:_InternalAsyncResult_get_ProceedAfterHandshake_m2508379800
Nwd:__ZN2UI14CanvasRenderer17SyncDirtyElementsER8JobFence
AJi:_Convert_ToUInt16_m2952781888
wmh:_Enumerator_System_Collections_IEnumerator_get_Current_m3816090481_gshared
aJo:__ZN6il2cpp5utils11StringUtils15StringDuplicateEPKc
Fok:_DefaultComparer_Equals_m2480133610_gshared
qQ:__GLOBAL__sub_I_Runtime_Logging_0_cpp
ZKa:__ZN7Cubemap34UpdateFileTextureUploadInstructionEP24TextureUploadInstructionj
cta:__ZNK9ShaderLab21ShaderRasterStateDesc16ToGfxRasterStateEPK19ShaderPropertySheetS3_R14GfxRasterState
LBm:__ZN29TlsClientSettings_t248603950318set_certificates_1EP37X509CertificateCollection_t3399372417
A3c:__ZN13BoxCollider2D8TransferI18StreamedBinaryReadEEvRT_
imf:__ZN31OpCodes_t126150456_StaticFields10set_Div_90E17OpCode_t123070264
tMl:_Array_Sort_TisVector3_t3722313464_m1915176437_gshared
CVo:__ZN6il2cpp2os9EventImplC2Ebb
SLg:_ScrollRect_OnInitializePotentialDrag_m3139711961
yfm:_List_1_System_Collections_IList_get_IsFixedSize_m3566150119_gshared
Syl:_Type_GetType_m3605423543
tlm:_List_1_get_Item_m2113769949_gshared
SGe:__ZL98NativePropertyAttribute_t1305929258_CustomAttributesCacheGenerator_U3CTargetTypeU3Ek__BackingFieldP21CustomAttributesCache
YU:__ZN13HandleManagerC2Ev
Oto:__ZN15dense_hashtableINSt3__24pairIK10KeyWrapperIP14Il2CppIUnknownEjEES5_N6il2cpp5utils11PointerHashIS3_EEN14dense_hash_mapIS5_jSB_NS5_14EqualsComparerINS0_8equal_toIS4_EEEENS0_9allocatorIS7_EEE9SelectKeyESG_SI_E9set_valueEPS7_RKS7_
ahf:__Z25Il2CppCodeGenWriteBarrierI24ModuleBuilder_t731887691EvPPT_S2_
gng:_ScriptableObject_t2528358522_marshal_pinvoke
$U:__Z20IsMatrixBuiltinParamPKcPi
Yfo:__ZN6il2cpp2gc19AppendOnlyGCHashMapINSt3__24pairIPK10MethodInfoP11Il2CppClassEEP11Il2CppArray17ReflectionMapHashIS9_ENS2_8equal_toIS9_EEEC2Ev
P_j:_SecurityFrame_t1422462475_marshal_pinvoke
KIl:__ZNK41RijndaelTransform_t631222241_StaticFields9get_T0_19Ev
V9n:__ZN15dense_hashtableINSt3__24pairIK10KeyWrapperINS1_IPK10MethodInfoP11Il2CppClassEEEjEES9_17ReflectionMapHashIS8_EN14dense_hash_mapIS9_jSD_NS9_14EqualsComparerINS0_8equal_toIS8_EEEENS0_9allocatorISB_EEE9SelectKeyESI_SK_E16reset_thresholdsEv
Rrl:_UnicodeEncoding_GetBytesInternal_m1902824297
Cgc:__ZN8Renderer19PostInitializeClassEv
Dck:_Array_FindIndex_TisRuntimeObject_m2504082708_gshared
Jwd:__ZNSt3__26__treeINS_12__value_typeINS_4pairIKiS3_EEN2UI14DepthSortLayerEEENS_19__map_value_compareIS4_S7_NS_4lessIS4_EELb1EEE13stl_allocatorIS7_L18MemLabelIdentifier1ELi16EEE25__emplace_unique_key_argsIS4_JRKNS_21piecewise_construct_tENS_5tupleIJOS4_EEENSK_IJEEEEEENS2_INS_15__tree_iteratorIS7_PNS_11__tree_nodeIS7_PvEEiEEbEERKT_DpOT0_
BJm:_X509Chain_FindCertificateRoot_m1937726457
wTm:__ZNK22AnchorInfo_t33870111519get_pos_1Ev
n8e:__ZL136U3CExplosionAnimationU3Ec__Iterator1_t4197431562_CustomAttributesCacheGenerator_U3CExplosionAnimationU3Ec__Iterator1_Dispose_m1004320971P21CustomAttributesCache
$Kf:__ZN25ObjectManager_t165306432526set__deserializedRecords_2EP21ArrayList_t2718874744
_Bd:__ZN11UnityEngine15PlatformWrapper21GetVRPlayAreaGeometryER13dynamic_arrayI8Vector3fLj0EE
Trn:__ZNK28AudioClipPlayable_t78506902214get_m_Handle_0Ev
xQo:__ZN6il2cpp6icalls8mscorlib6System8Delegate23CreateDelegate_internalEP20Il2CppReflectionTypeP12Il2CppObjectP22Il2CppReflectionMethodb
YHk:__ZN28CodePointIndexer_t413443108615set_defaultCP_3Ei
Roh:_Enumerator_System_Collections_IEnumerator_get_Current_m921113401_AdjustorThunk
pei:_DictionaryEntry_get_Value_m618120527_AdjustorThunk
Lub:__ZN18DelayedCallManager18CancelCallDelayed2E4PPtrI6ObjectEPF15CallObjectStatePS1_PvES7_
dZo:_threebyte_strstr
Ukc:__ZN19SpriteMeshGenerator5traceE8Vector2fS0_RS0_
Ima:__ZN25ThreadsafeLinearAllocator10ReallocateEPvji
a1g:__ZNK31InternalEnumerator_1_t34866412511get_array_0Ev
hhb:__Z18Transfer_BlittableI14SafeBinaryReadLb1E11QuaternionfEvRK29SerializationCommandArgumentsR31RuntimeSerializationCommandInfo
LZi:__ZNK24ServicePoint_t278696684412get_locker_8Ev
y7:__ZN18SpriteAtlasManagerD0Ev
Mym:_SslHandshakeHash__ctor_m4169387017
E2l:_ReadOnlyCollection_1_System_Collections_ICollection_get_IsSynchronized_m1150914347_gshared
TEm:__ZNK24GeneralNames_t270229415910get_uris_3Ev
cil:__Z57RuntimeInvoker_Boolean_t97287965_KeyValuePair_2_t71524366PFvvEPK10MethodInfoPvPS4_
mGa:__ZN10Matrix4x4f8TransferI14SafeBinaryReadEEvRT_
Pbo:__ZNK10KeyWrapperINSt3__24pairIPK12PropertyInfoP11Il2CppClassEEE14EqualsComparerINS0_8equal_toIS7_EEEclERKS8_SE_
Ksb:__Z29Transfer_Blittable_ArrayFieldI18StreamedBinaryReadxEvRT_R9ArrayInfoRK23StaticTransferFieldInfo
R7l:__Z30Predicate_1_Invoke_m2308795536P23Predicate_1_t3776239877iPK10MethodInfo
Eob:__Z35Transfer_Blittable_FixedBufferFieldI19StreamedBinaryWritefEvRK29SerializationCommandArgumentsR31RuntimeSerializationCommandInfo
OCj:__ZNK30DateTimeFormatInfo_t240585370115get_dayNames_29Ev
UTf:_CryptographicUnexpectedOperationException__ctor_m2381988196
gfo:__ZN14dense_hash_mapI10KeyWrapperIPK22Il2CppGenericParameterEPK24MonoGenericParameterInfoN6il2cpp5utils11PointerHashIS2_EENS4_14EqualsComparerINSt3__28equal_toIS3_EEEENSD_9allocatorINSD_4pairIKS4_S7_EEEEE15set_deleted_keyERSJ_
E2g:_InternalEnumerator_1_System_Collections_IEnumerator_get_Current_m4213507601_gshared
y0:__Z6AppendRKN4core12basic_stringIcNS_20StringStorageDefaultIcEEEEPKc
QKn:_IgnoreAttribute__ctor_m3428881723
GHi:_Convert_ToDouble_m996590115
a1a:__ZL14OnWorldStoppedv
Ibk:_Array_InternalArray__IEnumerable_GetEnumerator_TisCustomAttributeNamedArgument_t287865710_m523021714_gshared
esm:_Enumerator_Dispose_m2419537076_gshared
Gzo:__ZN6il2cpp2vm6Object12NullableInitEPhP12Il2CppObjectP11Il2CppClass
cXl:__ZN21InterfaceFuncInvoker1I19Vector4_t3319028937iE6InvokeEjP11Il2CppClassP12Il2CppObjecti
edd:__ZN20TextRenderingPrivate19NativeTextGeneratorC2ERK11UTF16StringPNS_8FontImplE11ColorRGBA32ifRK8Vector2fbifiibffbbP13dynamic_arrayIN2UI8UIVertexELj0EE
Tzi:_HashKeys_get_SyncRoot_m3757723936
M1m:_GUIUtility_RemoveCapture_m1294193818
LDb:__ZN7ApiGLES18ClearBufferSubDataEjN2gl12BufferTargetEll
hpm:_List_1_CopyTo_m2746988508_gshared
yro:__ZN6il2cpp6icalls8mscorlib6System5Array9GetLengthEP11Il2CppArrayi
SGc:__Z38Register_UnityEngine_GUIStyle_get_namev
Q6h:_Boolean_ToString_m663098404
bxa:__Znaj10MemLabelIdjPKci
oCb:__ZN13GfxDeviceGLES13AfterDrawCallEv
Mnd:_Split_Cubic
va:invoke_fiiii
Rvg:__Z22List_1_Add_m2184749397P17List_1_t427135887P22Selectable_t3250028441PK10MethodInfo
Zxg:_InputField_OnSubmit_m3583210804
iYe:__ZL72GUISkin_t1244372282_CustomAttributesCacheGenerator_m_horizontalScrollbarP21CustomAttributesCache
XVm:_Uri_CheckHostName_m2213216182
m7o:_emscripten_glBindRenderbuffer__wrapper
UOl:_Mesh_SetUvsImpl_TisVector2_t2156229523_m3009194955_gshared
Oii:_HMAC_set_Key_m3535779141
mOn:__ZNKSt3__26vectorIPK10Il2CppTypeNS_9allocatorIS3_EEE8max_sizeEv
H$m:__ZNK26GUILayoutEntry_t321461157019get_stretchHeight_6Ev
vMl:_Array_Sort_TisVector4_t3319028937_TisVector4_t3319028937_m4254533673_gshared
Mch:_InternalEnumerator_1_System_Collections_IEnumerator_Reset_m729791527_AdjustorThunk
Rai:_ArrayListWrapper_Contains_m2641184447
xnd:_ft_black_render
nQ:__GLOBAL__sub_I_Runtime_Interfaces_2_cpp
I3k:__Z177RuntimeInvoker_Int32_t2950945753_RuntimeObject_Int32_t2950945753_Int32_t2950945753_RuntimeObject_Int32_t2950945753_EncoderFallbackBufferU26_t2343550713_CharU5BU5DU26_t3299466565PFvvEPK10MethodInfoPvPS4_
b2o:dynCall_viiifi
AGb:__ZN18GfxFramebufferGLES20ActiveContextChangedEPP17RenderSurfaceBaseS2_
y6o:_glAttachShader__wrapper
VRe:__ZL86Logger_t274032455_CustomAttributesCacheGenerator_Logger_LogFormat_m3300686007____args3P21CustomAttributesCache
rXi:_FileWebRequest_System_Runtime_Serialization_ISerializable_GetObjectData_m1504466482
Zdb:__Z19PluginsRenderMarkeri
hhh:_InternalEnumerator_1__ctor_m2307827786_AdjustorThunk
dZd:__Z69ExecuteEvents_GetEventHandler_TisIDragHandler_t2288426503_m3060350475P12Il2CppObjectP22GameObject_t1113636619PK10MethodInfo
Y1g:_InternalEnumerator_1_MoveNext_m4035695998_gshared
Z5b:__ZNSt3__26vectorIN9ShaderLab20SerializedSubProgram15StructParameterENS_9allocatorIS3_EEE6assignINS_11__wrap_iterIPS3_EEEENS_9enable_ifIXaasr21__is_forward_iteratorIT_EE5valuesr16is_constructibleIS3_NS_15iterator_traitsISC_E9referenceEEE5valueEvE4typeESC_SC_
JOa:__ZN14Texture2DArray21AwakeFromLoadThreadedEv
sq:__ZN4PPtrI9TransformE8TransferI18StreamedBinaryReadEEvRT_
wpg:_Touch_get_position_m3109777936_AdjustorThunk
gxo:__ZNSt3__214__split_bufferIN6il2cpp2vm5Image20EmbeddedResourceDataERNS_9allocatorIS4_EEEC2EjjS7_
WVe:__ZL66SkeletonBone_t4134054672_CustomAttributesCacheGenerator_parentNameP21CustomAttributesCache
lGn:_AnimationScriptPlayable_GetHandle_m632811930
LSh:_ServerObjectTerminatorSink_SyncProcessMessage_m2085589766
Rpd:__ZN7Tilemap17RemoveFromManagerEv
sGd:__Z69Register_UnityEngine_Analytics_UnityAnalyticsHandler_Internal_Destroyv
Y5i:_X509Certificate2Collection_Add_m3151757943
Kme:__ZL83RuntimeArray_CustomAttributesCacheGenerator_RuntimeArray____LongLength_PropertyInfoP21CustomAttributesCache
okh:_Comparer_1__cctor_m951016718_gshared
EWc:__ZNSt3__227__insertion_sort_incompleteIR15DepthComparitorP8DepthHitEEbT0_S5_T_
rdi:_CaseInsensitiveHashCodeProvider_get_DefaultInvariant_m4264275163
Tyi:__ZN27SslClientStream_t391462466128set_ServerCertValidation2_19EP42CertificateValidationCallback2_t1842476440
xCe:__ZL67IndexOutOfRangeException_t1578797820_CustomAttributesCacheGeneratorP21CustomAttributesCache
_3k:__Z195RuntimeInvoker_Int32_t2950945753_RuntimeObject_Int32_t2950945753_Int32_t2950945753_Int32_t2950945753_RuntimeObject_DecoderFallbackBufferU26_t3866396827_ByteU5BU5DU26_t4057885439_SByte_t1669577662PFvvEPK10MethodInfoPvPS4_
fha:__ZN9Scripting11UnityEngine12Experimental9Playables27MaterialEffectPlayableProxy9InitProxyEv
JBm:__ZN21TlsStream_t236545396514set_canWrite_2Eb
tK:__ZN5physx14PxLightCpuTask12addReferenceEv
yva:__ZNK15InstancingProps35FillInstanceBufferDispatchConstantsIN10Instancing14RenderLoopArgsEEEvPPvjjRK19ShaderPropertySheetRKT_
Njl:__Z86RuntimeInvoker_Int32_t2950945753_Color32_t2600501292_Color32_t2600501292_RuntimeObjectPFvvEPK10MethodInfoPvPS4_
MAo:__ZN6il2cpp2gc16GarbageCollector19InitializeFinalizerEv
aRo:__ZNSt3__26__treeINS_12__value_typeIPvxEENS_19__map_value_compareIS2_S3_NS_4lessIS2_EELb1EEENS_9allocatorIS3_EEE5eraseENS_21__tree_const_iteratorIS3_PNS_11__tree_nodeIS3_S2_EEiEE
CGg:__ZNK17Shadow_t77307431923get_m_UseGraphicAlpha_7Ev
vFc:__ZN10GUIManager10DoGUIEventER10InputEventb
Smb:__Z35Transfer_Blittable_FixedBufferFieldI24GenerateTypeTreeTransferxEvRK29SerializationCommandArgumentsR31RuntimeSerializationCommandInfo
Mhd:_otv_LangSys_validate
Gkg:_RectOffset_get_right_m2294081512
vlj:_MonoType_getFullName_m837685882
LPf:_TypeMetadata_IsCompatible_m3213233239
brf:__ZN25GenericVirtActionInvoker1IP20Delegate_t1188392813E6InvokeEPK10MethodInfoP12Il2CppObjectS1_
eKl:_Array_InternalArray__set_Item_TisLink_t544317964_m1234244240_gshared
omd:_UNITY_TT_Init_Glyph_Loading
kwe:__ZL61SerializationBinder_t274213469_CustomAttributesCacheGeneratorP21CustomAttributesCache
k7d:_OptionData_get_text_m2997376818
tqh:_Enumerator__ctor_m324536319_gshared
q8c:__ZN10SpriteMask12CleanupClassEv
rD:__Z32AudioMixerDuckingProcessCallbackP21UnityAudioEffectStatePfS1_jii
dOg:_U3CClickRepeatU3Ec__Iterator0_System_Collections_IEnumerator_get_Current_m543328413
Xbg:_Mesh_get_uv2_m3615020997
kZl:_ReadOnlyCollection_1_Contains_m2979956790_gshared
Afc:__ZN26CustomRenderTextureManagerD2Ev
Avo:__ZN15dense_hashtableINSt3__24pairIK10KeyWrapperINS1_IPKcS4_EEEiEES6_24NamespaceAndNamePairHashN14dense_hash_mapIS6_iS9_NS6_14EqualsComparerI26NamespaceAndNamePairEqualsEENS0_9allocatorIS8_EEE9SelectKeyESD_SF_E9set_valueEPS8_RKS8_
lqk:_EqualityComparer_1_System_Collections_IEqualityComparer_Equals_m4172006498_gshared
tYi:__ZN26HttpWebRequest_t166943651516set_mediaType_17EP8String_t
pz:__ZN12AudioManager8TransferI24GenerateTypeTreeTransferEEvRT_
JOj:_StreamAsyncResult_get_AsyncState_m3822420114
iag:_Mathf_Round_m4098141538
oAa:__Z25GetBytesFromTextureFormat13TextureFormat
TNa:__ZN9Texture3D19UnloadFromGfxDeviceEb
d0h:__ZNK25SmallXmlParser_t97378783912get_reader_1Ev
zyb:__ZNK11PreloadData18GetInstanceIDArrayER13dynamic_arrayIiLj0EE
alb:__Z18Transfer_BlittableI17RemapPPtrTransferLb0EsEvRK29SerializationCommandArgumentsR31RuntimeSerializationCommandInfo
jOh:__ZNK24ErrorMessage_t124068807310get__uri_0Ev
m_e:__ZL64UnityAnalyticsHandler_t3011359618_CustomAttributesCacheGeneratorP21CustomAttributesCache
Inf:__ZN31OpCodes_t126150456_StaticFields19set_Conv_Ovf_U8_170E17OpCode_t123070264
ojj:_AmbiguousMatchException__ctor_m2012725345
q1m:__ZNK20GUIStyle_t395690151111get_m_Ptr_0Ev
QZ:__Z32scripting_class_get_assemblyname17ScriptingClassPtr
bvd:__ZN2UI13CanvasManager8SortListEv
WBd:__ZN11UnityEngine15PlatformWrapper15GetVRDeviceNameEv
z7e:__ZL109LayoutUtility_t2745813735_CustomAttributesCacheGenerator_LayoutUtility_U3CGetFlexibleWidthU3Em__3_m1091238571P21CustomAttributesCache
Lel:__Z99RuntimeInvoker_Boolean_t97287965_Int32_t2950945753_PointerEventDataU26_t867828220_SByte_t1669577662PFvvEPK10MethodInfoPvPS4_
w6c:__Z50Register_UnityEngine_Rigidbody2D_AddForce_Injectedv
D$g:_InternalEnumerator_1_get_Current_m2128158355_AdjustorThunk
Abb:__ZN9GfxDevice21RegisterNativeTextureE9TextureIDi16TextureDimension
bde:_GraphicRegistry__ctor_m1851575309
skl:__Z52RuntimeInvoker_Void_t1185182177_Keyframe_t4206410242PFvvEPK10MethodInfoPvPS4_
r9i:__ZNK15Key_t272552300113get_pattern_0Ev
uDe:__ZL53TypeFilter_t2356120900_CustomAttributesCacheGeneratorP21CustomAttributesCache
rSo:__ZN6il2cpp6icalls8mscorlib6System10Reflection4Emit11TypeBuilder20create_generic_classEP27Il2CppReflectionTypeBuilder
wpj:__ZNK23AssemblyName_t27093193815get_keyToken_11Ev
LGb:__ZNK16UniformCacheGLES6SubmitEjRK13dynamic_arrayIN20GpuProgramParameters14ValueParameterELj0EERKS0_IiLj0EE
tak:_PlayableHandle_IsPlayableOfType_TisAnimationLayerMixerPlayable_t3631223897_m201603007_gshared
rze:__ZL50Monitor_t2197244473_CustomAttributesCacheGeneratorP21CustomAttributesCache
d3n:__ZNSt3__26vectorIPK10MethodInfoNS_9allocatorIS3_EEE26__swap_out_circular_bufferERNS_14__split_bufferIS3_RS5_EE
vhi:_PrimalityTest_EndInvoke_m1035389364
iI:__Z60Register_UnityEngine_AudioListener_GetNumExtensionPropertiesv
Vh:_emscripten_glUniformMatrix4fv
Emo:__ZN15dense_hashtableINSt3__24pairIK10KeyWrapperINS1_IP11Il2CppClassjEEES4_EES6_N6il2cpp8metadata14ArrayClassHashEN14dense_hash_mapIS6_S4_SB_NS6_14EqualsComparerINSA_17ArrayClassCompareEEENS0_9allocatorIS8_EEE9SelectKeyESF_SH_E13set_empty_keyERKS8_
N1a:__ZN12ScriptMapperD2Ev
jxh:_Enumerator_Dispose_m3040896940_AdjustorThunk
Llf:__ZN31OpCodes_t126150456_StaticFields13set_Bgt_Un_65E17OpCode_t123070264
_bg:_Mesh_get_colors32_m1253190811
KGf:__ZNK30DelayedFixupRecord_t242557062417get__memberName_4Ev
hNo:_GC_stopped_mark
$1o:dynCall_viii
AZf:_AnimationCurve_Finalize_m2397002729
RRg:_Text_OnEnable_m616205807
Uol:__Z50RuntimeInvoker_RuntimeObject_ColorTween_t809614380PFvvEPK10MethodInfoPvPS4_
Exg:_InputField_OnFillVBO_m3649106646
m0g:__Z74InternalEnumerator_1_System_Collections_IEnumerator_get_Current_m888718134P32InternalEnumerator_1_t3459884504PK10MethodInfo
rQf:_SerializationCallbacks__cctor_m1674315180
_yn:__ZL25UnresolvedVirtualCall_194P12Il2CppObject20UICharInfo_t75501106S1_PK10MethodInfo
z6n:__ZN15dense_hashtableINSt3__24pairIK10KeyWrapperINS1_IPK14Il2CppAssemblyP11Il2CppClassEEEjEES9_17ReflectionMapHashIS8_EN14dense_hash_mapIS9_jSD_NS9_14EqualsComparerINS0_8equal_toIS8_EEEENS0_9allocatorISB_EEE9SelectKeyESI_SK_E15destroy_bucketsEjj
_8j:_Array_InternalArray__ICollection_Contains_TisVector4_t3319028937_m4078183023_gshared
Ixg:__ZN20UIVertex_t405749760514set_position_0E19Vector3_t3722313464
wsa:__ZNSt3__26vectorIN12FlareManager10FlareEntryENS_9allocatorIS2_EEE21__push_back_slow_pathIS2_EEvOT_
X7o:b107
Cla:__ZNK7Hash12812PackToUInt32Ev
fEc:__ZN9Scripting11UnityEngine19GUILayoutEntryProxy9InitProxyEv
Xbi:_SynchronizedArrayListWrapper_IndexOf_m3642674350
NYl:__ZN32ReadOnlyCollection_1_t429268245110set_list_0EP12Il2CppObject
$xe:__ZL58WindowsIdentity_t2948242406_CustomAttributesCacheGeneratorP21CustomAttributesCache
fP:__ZN11UnityEngine15CloudWebService16SessionContainer8AddEventEPNS0_14CloudEventInfoE
ofb:__Z4TrimRKN4core12basic_stringIcNS_20StringStorageDefaultIcEEEES5_
r0l:_ReadOnlyCollection_1_CopyTo_m209634623_gshared
L$i:_SPKey_Equals_m4205549017
fOl:_Dictionary_2_Do_ICollectionCopyTo_TisKeyValuePair_2_t3842366416_m1399105608_gshared
jPm:__ZNK16Link_t339594915917get_offset_addr_1Ev
f0e:__ZL77ExecuteEvents_t3484638744_CustomAttributesCacheGenerator_U3CU3Ef__mgU24cache2P21CustomAttributesCache
ZUf:__ZN24DESTransform_t408890549916set_dwordBuff_18EP24UInt32U5BU5D_t2770800703
Ytj:_DynamicMethod_destroy_dynamic_method_m2651031212
vzf:_ResourceReader_Read7BitEncodedInt_m3568166465
L3o:_glGetStringi__wrapper
wen:__ZNK42U3CTimedTriggerU3Ec__Iterator0_t381343549418get_U24disposing_2Ev
hGa:__ZN10VertexData8TransferI14SafeBinaryReadEEvRT_
EAk:__ZN22Enumerator_t364918432913set_current_3E39CustomAttributeNamedArgument_t287865710
V6:__ZN13RuntimeStaticI12AdsIdHandlerLb0EE16StaticInitializeEPv
mPo:_GC_malloc_atomic
FDf:_ActivatedClientTypeEntry_ToString_m2494181680
Vwk:_HashSet_1_GetEnumerator_m3346268098_gshared
$So:__ZN6il2cpp5utils6Memory13AlignedMallocEjj
Lki:__ZN25PrivateKeyInfo_t66802799314set__version_0Ei
W4m:__ZN42U3CSunAnimationU3Ec__Iterator0_t390776827913set_U24this_1EP17Finish_t621523995
Mhg:_PropertyName_GetHashCode_m3570549176_AdjustorThunk
oOe:__ZL55PropertyName_t3749835189_CustomAttributesCacheGeneratorP21CustomAttributesCache
qxf:_StrongNameKeyPair_GetRSA_m2008774769
myg:_Selectable_get_animator_m2899312855
JXi:__ZN25FtpWebRequest_t157781830517set_usePassive_11Eb
UX:__ZL20SortItemByInstanceIDRKN18AwakeFromLoadQueue4ItemES2_
t0m:__ZN39GUILayoutUtility_t66395690_StaticFields13set_current_2EP21LayoutCache_t78309876
mbe:_FontData_get_maxSize_m195374730
JWi:_TypeConverterAttribute__ctor_m1774069684
Yzc:__Z36RenderTexture_CUSTOM_Internal_CreateP12Il2CppObject
xqn:_Vector3Int_Equals_m1306183009_AdjustorThunk
TGd:__ZN20UnityConnectSettings8TransferI24GenerateTypeTreeTransferEEvRT_
ADn:_CanvasGroup_set_alpha_m4032573
jff:_OpCode_get_Value_m917085326
Qkj:_MonoType_GetConstructors_m2574682189
TYc:__ZN25b2SynchronizeFixturesTask7TaskJobEPS_j
Xlg:_RenderTextureDescriptor_get_height_m1891977024
X_g:__Z44InternalEnumerator_1_get_Current_m3225386639P31InternalEnumerator_1_t350626606PK10MethodInfo
_En:_AnimationMixerPlayable_GetHandle_m2198358075
hZi:__ZNK43ServicePointManager_t170559685_StaticFields22get_maxServicePoints_4Ev
OHo:__ZNK15dense_hashtableINSt3__24pairIK10KeyWrapperIPK19Il2CppGenericMethodEP10MethodInfoEES6_N6il2cpp8metadata23Il2CppGenericMethodHashEN14dense_hash_mapIS6_S9_SD_NS6_14EqualsComparerINSC_26Il2CppGenericMethodCompareEEENS0_9allocatorISA_EEE9SelectKeyESH_SJ_E10test_emptyERK30dense_hashtable_const_iteratorISA_S6_SD_SL_SH_SJ_E
rue:__ZL59SinkProviderData_t4151372974_CustomAttributesCacheGeneratorP21CustomAttributesCache
_Yi:_ServicePointManager_FindServicePoint_m4119451290
aih:__ZN21InterfaceFuncInvoker1Ii22OrderBlock_t1585977831E6InvokeEjP11Il2CppClassP12Il2CppObjectS0_
kQd:__ZNK24EventTrigger_t107608450917get_m_Delegates_4Ev
b4:__ZL31InitializeRendererUpdateManagerPv
P3i:__ZNK27X509Certificate2_t71404912616get__publicKey_9Ev
Egf:_ParameterInfo__ctor_m2779026345
Lug:_InputField_set_onValueChange_m1251390545
m6l:_Func_1_EndInvoke_m3591709415_gshared
Bbe:_FontData_get_verticalOverflow_m4132840071
yEo:__ZN6il2cpp2gc16GarbageCollector9StopWorldEv
IXh:_DeriveBytes_set_Password_m3005258189
Iyf:__ZN45NeutralResourcesLanguageAttribute_t202763353213set_culture_0EP8String_t
iH:__ZN13AudioListener12CleanupClassEv
y0g:__Z37InternalEnumerator_1__ctor_m217498388P32InternalEnumerator_1_t3858009870P11Il2CppArrayPK10MethodInfo
uQd:__Z31UnityEvent_1_Invoke_m3280461164P23UnityEvent_1_t489719741P25BaseEventData_t3903027533PK10MethodInfo
zFa:__ZNSt3__26__treeINS_12__value_typeIiNS_4pairIP4ListI8ListNodeI9BehaviourEES8_EEEENS_19__map_value_compareIiSA_NS_4lessIiEELb1EEENS_9allocatorISA_EEE7destroyEPNS_11__tree_nodeISA_PvEE
YTk:__ZN34EncryptedPrivateKeyInfo_t86211683511set__salt_1EP22ByteU5BU5D_t4116647657
cee:__ZNK32Graphic_t1660335611_StaticFields21get_s_VertexHelper_18Ev
Pjn:__ZN37VertexHelper_t2453304189_StaticFields22set_s_DefaultTangent_9E19Vector4_t3319028937
oge:__Z60LayoutGroup_SetProperty_TisConstraint_t814224393_m1820208910P23LayoutGroup_t2436138090PiiPK10MethodInfo
yOf:_ObjectWriter_GetAssemblyNameId_m2316410453
cDj:_DateTimeFormatInfo_get_LongTimePattern_m1595254249
$Bm:_X509Certificate_PEM_m2020851166
I2g:__ZNK32InternalEnumerator_1_t363021427411get_array_0Ev
aJl:_Array_InternalArray__Insert_TisDateTime_t3738529785_m2308632330_gshared
yca:__ZL49__ManagedRegistrationHelperFunction_ProfilerProxyPv
sGl:_RNGCryptoServiceProvider_RngGetBytes_m1695806698
N9e:__ZL169U3CJumpingU3Ec__Iterator1_t2326764318_CustomAttributesCacheGenerator_U3CJumpingU3Ec__Iterator1_System_Collections_Generic_IEnumeratorU3CobjectU3E_get_Current_m2318238301P21CustomAttributesCache
oZe:__ZL62RaycastHit_t1056001966_CustomAttributesCacheGenerator_m_NormalP21CustomAttributesCache
ozm:__ZN25SslStreamBase_t166741340712set_write_12EP12Il2CppObject
jNk:__ZN18Escape_t329478819012set_Source_0EP8String_t
s9e:__ZL160U3CModifyGravityU3Ec__Iterator1_t934176348_CustomAttributesCacheGenerator_U3CModifyGravityU3Ec__Iterator1_System_Collections_IEnumerator_get_Current_m1550300594P21CustomAttributesCache
_pn:__ZN32Vector3_t3722313464_StaticFields14set_upVector_7E19Vector3_t3722313464
gid:_compare_uni_maps
pCm:__ZNK26X509Certificate_t48924302513get_subject_8Ev
wbl:__Z72RuntimeInvoker_Boolean_t97287965_Vector2_t2156229523_Vector2_t2156229523PFvvEPK10MethodInfoPvPS4_
Zhf:__ZNK26AssemblyBuilder_t35988525025get_corlib_object_type_35Ev
Pdn:__ZNK23TriggerRule_t194629832113get_m_Value_2Ev
MCd:__ZN11UnityEngine15PlatformWrapper27GetGraphicsCapsSupportFlagsEv
fvd:__ZNSt3__218__insertion_sort_3IRPFbPN2UI6CanvasES3_EPS3_EEvT0_S8_T_
gOl:_Dictionary_2_Do_ICollectionCopyTo_TisRuntimeObject_m3695543300_gshared
Aqb:__ZN12NativeBufferI16Converter_StringE15SetupForWritingER9ArrayInfo
UPk:_SequentialSearchPrimeGeneratorBase_GenerateSearchBase_m3595783982
uoa:__ZN14SafeBinaryRead8TransferIN10GameObject13ComponentPairEEEvRT_PKc17TransferMetaFlags
D4o:___cxa_end_catch__wrapper
L8k:__Z121RuntimeInvoker_Int32_t2950945753_RuntimeObject_Int32U26_t1369213839_Int32_t2950945753_Int32_t2950945753_Int32_t2950945753PFvvEPK10MethodInfoPvPS4_
naf:__ZNK23TypeBuilder_t107394815413get_parent_10Ev
j9h:_Char_ToString_m278452217
fNj:__ZN22MemoryStream_t9497314718set_dirty_bytes_10Ei
doi:_CipherSuite_get_DecryptionCipher_m2839827488
VWk:__Z32RuntimeInvoker_Boolean_t97287965PFvvEPK10MethodInfoPvPS4_
GSb:__ZNK4PPtrI5LightEcvPS0_Ev
eVe:__ZL98TextGenerator_t3211863866_CustomAttributesCacheGenerator_TextGenerator_Internal_Create_m2816846831P21CustomAttributesCache
xhk:_ValueCollection_System_Collections_Generic_ICollectionU3CTValueU3E_Contains_m875763171_gshared
tgi:_BigInteger_op_RightShift_m460065452
Wih:__ZNK34Comparer_1_t434075093_StaticFields14get__default_0Ev
Eqj:__Z72Array_AsReadOnly_TisCustomAttributeTypedArgument_t2723150157_m2714472677P12Il2CppObjectP46CustomAttributeTypedArgumentU5BU5D_t1465843424PK10MethodInfo
vvb:__ZN13MonoBehaviour22DoScriptRebuildWarningEv
sro:__ZN6il2cpp6icalls8mscorlib6System5Array13ClearInternalEP11Il2CppArrayii
AHg:_RectMask2D_get_rootCanvasRect_m2913509457
R5g:__Z69InternalEnumerator_1_System_Collections_IEnumerator_Reset_m1259718730P31InternalEnumerator_1_t958356908PK10MethodInfo
xzn:__ZL25UnresolvedVirtualCall_219P12Il2CppObject19Vector2_t2156229523PK10MethodInfo
Qod:__Z38TextGenerator_Get_Custom_PropLineCountP12Il2CppObject
E$o:_llvm_cttz_i32
$2j:_Encoding_GetEncoding_m2801244948
Gte:__ZL52_Assembly_t1988906988_CustomAttributesCacheGeneratorP21CustomAttributesCache
Gkd:_tt_get_interface
SAm:_SslStreamBase_EndRead_m495357226
mLn:_NativeThrowsAttribute_set_ThrowsException_m4039166389
pqo:__ZN6il2cpp5utils9PathUtils7CombineIcEENSt3__212basic_stringIT_NS3_11char_traitsIS5_EENS3_9allocatorIS5_EEEERKSA_SC_
Qxo:__ZNK14dense_hash_setI10KeyWrapperIP18Il2CppGenericClassEN6il2cpp8metadata22Il2CppGenericClassHashENS3_14EqualsComparerINS5_25Il2CppGenericClassCompareEEENSt3__29allocatorIS3_EEE8IdentityclERKS3_
nsh:_KeyCollection_GetEnumerator_m982770428_gshared
Azg:__ZN25LayoutElement_t178540367821set_m_FlexibleWidth_9Ef
jph:__Z38Enumerator_get_CurrentValue_m785745355P22Enumerator_t2086727927PK10MethodInfo
L0m:_GUIScrollGroup_CalcHeight_m3173593443
Vye:__ZL86UTF7Encoding_t2644108479_CustomAttributesCacheGenerator_UTF7Encoding_Equals_m227704363P21CustomAttributesCache
Qxe:__ZL59ApplicationTrust_t3270368423_CustomAttributesCacheGeneratorP21CustomAttributesCache
Oaf:_EnumBuilder_GetConstructorImpl_m3068576149
WW:__Z18ConvertUTF16toUTF8PPKtS0_PPhS2_15ConversionFlags
cIk:_TableRange__ctor_m3039750162
$Go:__ZN6il2cpp2os20PathErrnoToErrorCodeERKNSt3__212basic_stringIcNS1_11char_traitsIcEENS1_9allocatorIcEEEEi
U3e:__ZL68InputField_t3762917431_CustomAttributesCacheGenerator_m_KeyboardTypeP21CustomAttributesCache
Irc:__Z24GetActualTargetFrameRatev
nIn:__ZL16my_g_bit_nth_msfj
IUj:_SHA512Managed_Sigma1_m922902398
LFf:__ZNK24ProviderData_t327212331822get_CustomProperties_3Ev
$9i:__ZN22Interpreter_t5827157018set_qs_7EP23QuickSearch_t2588090110
dno:__ZN15dense_hashtableINSt3__24pairIK10KeyWrapperIP11Il2CppClassES4_EES5_N6il2cpp8metadata16SZArrayClassHashEN14dense_hash_mapIS5_S4_SA_NS5_14EqualsComparerINS9_19SZArrayClassCompareEEENS0_9allocatorIS7_EEE9SelectKeyESE_SG_E12expand_arrayEjN21dense_hash_map_traits17integral_constantIbLb0EEE
P0f:__ZN30GenericInterfaceActionInvoker1IP18Camera_t4157153871E6InvokeEPK10MethodInfoP12Il2CppObjectS1_
Knk:_DefaultComparer_GetHashCode_m3369508712_gshared
ism:_Enumerator_MoveNext_m3662315381_AdjustorThunk
N8g:__ZNK32InternalEnumerator_1_t17882233669get_idx_1Ev
BDf:_ActivatedClientTypeEntry_get_ApplicationUrl_m2894992111
UOb:__Z23SetupStereoFlareElementP11FlareVertexRK8Vector2fS3_S3_RK11ColorRGBA32RK10Matrix4x4fRK8Vector3fb
Tvn:__ZL24UnresolvedVirtualCall_25P12Il2CppObjectS0_S0_PK10MethodInfo
E1h:_AppDomain_InternalPushDomainRefByID_m1598870089
szn:__ZL25UnresolvedVirtualCall_214P12Il2CppObject22UILineInfo_t4195266810S1_PK10MethodInfo
MUn:__ZNK10KeyWrapperIPK17Il2CppGenericInstEcvRKS2_Ev
Va:invoke_iiiifiiii
cQf:__ZNK24ObjectRecord_t118746727211get_Next_12Ev
Rok:__ZN43EqualityComparer_1_t1804232806_StaticFields14set__default_0EP30EqualityComparer_1_t1804232806
I2i:__ZNK21PublicKey_t377958268410get__key_0Ev
yOe:__ZL57ReflectionProbe_t175708936_CustomAttributesCacheGeneratorP21CustomAttributesCache
vFe:__ZL63ExpressionCollection_t1810289389_CustomAttributesCacheGeneratorP21CustomAttributesCache
dPc:__ZN9Scripting11UnityEngine31ParticleSystemVertexStreamProxy9InitProxyEv
Jpi:__ZNK33CipherSuiteCollection_t112963930418get_cipherSuites_0Ev
NKl:_Array_InternalArray__set_Item_TisPlayerLoopSystem_t105772105_m93492520_gshared
K2j:_String_Join_m2050845953
Vsh:_ShimEnumerator_MoveNext_m2406150314_gshared
dHb:__ZL19BlitFramebufferImplRN4gles23BlitFramebufferDrawQuadER9GfxDevice9TextureIDRK8Vector4f
Ekb:__Z18Transfer_BlittableI17RemapPPtrTransferLb0EhEvRK29SerializationCommandArgumentsR31RuntimeSerializationCommandInfo
Y8n:__ZN15dense_hashtableINSt3__24pairIK10KeyWrapperIPK10Il2CppTypeEjEES6_N6il2cpp8metadata14Il2CppTypeHashEN14dense_hash_mapIS6_jSB_NS6_14EqualsComparerINSA_26Il2CppTypeEqualityComparerEEENS0_9allocatorIS8_EEE9SelectKeyESF_SH_E4findERS7_
w2o:dynCall_viiiiiiiiiiiiii
icd:_UNITY_FT_List_Add
_fc:__ZN14Texture2DArray11InitTextureEiii13TextureFormatb
iEm:_X509Extension__ctor_m1474351312
Iye:__ZL104Encoding_t1523322056_CustomAttributesCacheGenerator_Encoding_t1523322056____DecoderFallback_PropertyInfoP21CustomAttributesCache
D9e:__ZL92PlayerAnimator_t1517140421_CustomAttributesCacheGenerator_PlayerAnimator_Jumping_m2604127426P21CustomAttributesCache
GBi:__ZNK22SortedList_t242769464123get_modificationCount_2Ev
pMo:_total_stack_black_listed
Sfl:__Z54RuntimeInvoker_Void_t1185182177_Navigation_t3049316579PFvvEPK10MethodInfoPvPS4_
nif:__ZNK31OpCodes_t126150456_StaticFields13get_Ldarg_0_2Ev
LHa:__ZN12CubemapArray21AwakeFromLoadThreadedEv
RGi:__ZNK19Decimal_t294825938011get_flags_5Ev
e8g:__Z41InternalEnumerator_1_MoveNext_m3134701632P32InternalEnumerator_1_t2304330891PK10MethodInfo
f0b:__Z34TextureStreamingCalculateLoadOrderP23TextureStreamingJobData
AJj:_Directory_CreateDirectoriesInternal_m3735342319
Wem:_List_1_RemoveAll_m517055598_gshared
vWg:__Z69InternalEnumerator_1_System_Collections_IEnumerator_Reset_m3327951435P32InternalEnumerator_1_t2041360493PK10MethodInfo
LCg:_LayoutUtility_GetLayoutProperty_m3731360667
rgo:__ZN15dense_hashtableINSt3__24pairIK10KeyWrapperINS1_IPK11Il2CppImageP11Il2CppClassEEEjEES9_17ReflectionMapHashIS8_EN14dense_hash_mapIS9_jSD_NS9_14EqualsComparerINS0_8equal_toIS8_EEEENS0_9allocatorISB_EEE9SelectKeyESI_SK_E14squash_deletedEv
NNi:__Z43GenericEqualityComparer_1__ctor_m2043450621P37GenericEqualityComparer_1_t3463599768PK10MethodInfo
$Uj:_SHAConstants__cctor_m1699027474
Vtf:_MonoEventInfo_t346866618_marshal_pinvoke_back
bZc:__ZN39b2PrepareDiscreteIslandContactIndexTask7TaskJobEPS_j
iTb:__ZNK6Camera26GetStereoSingleCullEnabledEv
xmh:__Z35Enumerator_VerifyCurrent_m829026141P22Enumerator_t3398877024PK10MethodInfo
afm:_List_1_TrimExcess_m4121641494_gshared
OAe:__ZL78Convert_t2465617642_CustomAttributesCacheGenerator_Convert_ToInt16_m1733792763P21CustomAttributesCache
uZa:__Z14resize_trimmedINSt3__26vectorIN4core12basic_stringIcNS2_20StringStorageDefaultIcEEEE13stl_allocatorIS6_L18MemLabelIdentifier13ELi16EEEEEvRT_j
AP:__GLOBAL__sub_I_Runtime_2D_SpriteAtlas_0_cpp
Rhb:__Z18Transfer_BlittableI14SafeBinaryReadLb0EaEvRK29SerializationCommandArgumentsR31RuntimeSerializationCommandInfo
q9h:_CharEnumerator_System_Collections_IEnumerator_get_Current_m1328529384
fLi:_DBNull__ctor_m3431698857
CDf:__ZNK35ActivatedClientTypeEntry_t76123366120get_applicationUrl_2Ev
iRa:__ZN4core8hash_setINS_4pairIKiiLb0EEENS_9hash_pairINS_4hashIiEES2_iEENS_10equal_pairINSt3__28equal_toIiEES2_iEEE6insertERKS3_
QEn:_AnimationLayerMixerPlayable__ctor_m860721801
cXk:__Z98RuntimeInvoker_Boolean_t97287965_RuntimeObject_Int32_t2950945753_RuntimeObject_Int64U26_t200113976PFvvEPK10MethodInfoPvPS4_
ymd:_UNITY_FT_List_Iterate
F3d:__ZNK29ContentSizeFitter_t385044214519get_m_VerticalFit_5Ev
rxa:__ZN17GlobalGameManager8TransferI24GenerateTypeTreeTransferEEvRT_
B8h:_Char_System_IConvertible_ToUInt64_m3536560782
gpk:_EqualityComparer_1__cctor_m3452395357_gshared
a8i:_X509ChainStatus_get_Status_m2572005749_AdjustorThunk
Qpd:__ZN7Tilemap12AddToManagerEv
R7b:__ZN15SerializeTraitsINSt3__26vectorIN9ShaderLab20SerializedSubProgram15MatrixParameterENS0_9allocatorIS4_EEEEE8TransferI24GenerateTypeTreeTransferEEvRS7_RT_
Jie:__Z23il2cpp_codegen_multiplyIxxEN11pick_biggerIT_T0_E4typeES1_S2_
$Mb:__Z20SyncFenceCullResultsR11CullResults
JIb:__ZN15TextureTFMethod20IsBoneCountSupportedEi
pwg:_InputField_AssignPositioningIfNeeded_m1037632400
JSi:_Double_ToString_m3828879243_AdjustorThunk
bmb:__Z22TransferField_NonArrayI17RemapPPtrTransfer27Converter_SimpleNativeClassI8GUIStyleEEvRK23StaticTransferFieldInfoR31RuntimeSerializationCommandInfoRT0_
aRj:_TextReader_Synchronized_m3004980758
bJd:__ZNK20UnityWebRequestProtoI24UnityWebRequestTransport16AtomicRefCounter14RedirectHelper14ResponseHelper15DownloadHandler13UploadHandler18CertificateHandler12HeaderHelper14AsyncOperationE16GetUploadedBytesEv
jhc:__ZNK17AnimationCurveTplIfE20EvaluateWithoutCacheEfRf
h8c:__ZN10SpriteMask8TransferI14SafeBinaryReadEEvRT_
sFl:__ZN23RC2Transform_t4583214879set_R0_12Et
Tta:__ZN19ShaderPropertySheet10SetTextureERK23FastTexturePropertyNameP7Texture
tsb:__Z13TransferFieldI18StreamedBinaryReadLb0E27Converter_SimpleNativeClassI17AnimationCurveTplIfEEEvRK23StaticTransferFieldInfoR31RuntimeSerializationCommandInfoRT1_
Bqj:_CustomAttributeData__ctor_m2966233049
QZg:__Z75InternalEnumerator_1_System_Collections_IEnumerator_get_Current_m1676501075P32InternalEnumerator_1_t1451382081PK10MethodInfo
_Yh:__ZN25X509Extension_t317339365213set_extnOid_0EP8String_t
x1d:_CanvasUpdateRegistry_PerformUpdate_m1793997159
qla:__ZN11SpriteAtlas23VirtualRedirectTransferER14SafeBinaryRead
Vpc:__ZN4Mesh10SetNormalsEPK8Vector3fj
uja:__ZN9Scripting5Unity11Collections14AllocatorProxy12CleanupProxyEv
T2d:__ZNK22ColorBlock_t213903157421get_m_DisabledColor_3Ev
FFl:__ZN28RIPEMD160Managed_t249156194116set__HashValue_6EP24UInt32U5BU5D_t2770800703
C3m:_AesManaged_CreateDecryptor_m692040246
tqd:__ZN7Tilemap8TransferI14SafeBinaryReadEEvRT_
dvm:_Collection_1_System_Collections_IList_IndexOf_m2903056794_gshared
Pro:__ZN6il2cpp6icalls8mscorlib6SystemL12AssignSignedIiEEvNS2_17WidenedValueUnionEPv14Il2CppTypeEnumjj
kBn:_TextGenerationSettings_t1351628751_marshal_pinvoke_back
tv:__ZN17AnimationCurveTplIfE8TransferI14SafeBinaryReadEEvRT_
kKl:_Array_InternalArray__set_Item_TisInt16_t2552820387_m2544074754_gshared
b3h:_ArithmeticException__ctor_m3551809662
soe:__ZL51BitArray_t4087883509_CustomAttributesCacheGeneratorP21CustomAttributesCache
hrm:__ZN21InterfaceFuncInvoker0I19Vector4_t3319028937E6InvokeEjP11Il2CppClassP12Il2CppObject
Wll:__Z72RuntimeInvoker_CustomAttributeNamedArgument_t287865710_Int32_t2950945753PFvvEPK10MethodInfoPvPS4_
J1b:__Z29StdTemplateConversionFunctionIybEbPvR14SafeBinaryRead
wMa:__ZNSt3__26vectorIN15QualitySettings14QualitySettingENS_9allocatorIS2_EEE6assignIPS2_EENS_9enable_ifIXaasr21__is_forward_iteratorIT_EE5valuesr16is_constructibleIS2_NS_15iterator_traitsIS9_E9referenceEEE5valueEvE4typeES9_S9_
Qnf:__ZN31OpCodes_t126150456_StaticFields18set_Conv_Ovf_I_178E17OpCode_t123070264
Xka:__ZNK5Unity9Component10GetEnabledEv
fTm:__ZN22AnchorInfo_t338701115112set_ignore_5Eb
Lag:__ZN21Matrix4x4_t18179018439set_m20_2Ef
SJg:_ScrollRect_get_scrollSensitivity_m2832710591
Uxo:__ZN15dense_hashtableI10KeyWrapperIP18Il2CppGenericClassES3_N6il2cpp8metadata22Il2CppGenericClassHashEN14dense_hash_setIS3_S6_NS3_14EqualsComparerINS5_25Il2CppGenericClassCompareEEENSt3__29allocatorIS3_EEE8IdentityESA_SD_E9set_valueEPS3_RKS3_
Vvl:__ZNK16Timer_t71667102611get_state_3Ev
aGg:_Navigation_set_selectOnLeft_m873759494
vvo:__ZNK15dense_hashtableINSt3__24pairIK10KeyWrapperINS1_IPKcS4_EEEiEES6_24NamespaceAndNamePairHashN14dense_hash_mapIS6_iS9_NS6_14EqualsComparerI26NamespaceAndNamePairEqualsEENS0_9allocatorIS8_EEE9SelectKeyESD_SF_E13find_positionERS7_
x8g:__Z40InternalEnumerator_1_Dispose_m1837758743P30InternalEnumerator_1_t83702344PK10MethodInfo
fom:_List_1_CopyTo_m1758106197_gshared
Uem:_List_1_CheckCollection_m1671972112_gshared
Ejo:_il2cpp_class_get_image
MWa:__ZN11TimeManager8TransferI18StreamedBinaryReadEEvRT_
esl:_UnicodeEncoding_GetPreamble_m3002287178
n$:__Z16AsyncReadRequestP16AsyncReadCommand
mNn:__ZNK15dense_hashtableINSt3__24pairIK10KeyWrapperIPK22Il2CppGenericParameterEP11Il2CppClassEES6_N6il2cpp5utils11PointerHashIS4_EEN14dense_hash_mapIS6_S9_SE_NS6_14EqualsComparerINS0_8equal_toIS5_EEEENS0_9allocatorISA_EEE9SelectKeyESJ_SL_E12test_deletedEj
Gsn:_AudioSource_get_spatialize_m3609701298
eAn:__ZL25UnresolvedVirtualCall_254P12Il2CppObjectPK10MethodInfo
a6e:__ZL56Toggle_t2735377061_CustomAttributesCacheGenerator_m_IsOnP21CustomAttributesCache
Web:__ZN20GpuProgramParameters14AddVectorParamEPKcii15ShaderParamTypeiiiP16PropertyNamesSet
w2h:__ZN18VirtActionInvoker1IP24StringU5BU5D_t1281789340E6InvokeEjP12Il2CppObjectS1_
aoi:__ZN36CipherSuite_t3414744575_StaticFields16set_EmptyArray_0EP22ByteU5BU5D_t4116647657
ZCh:__ZNK41LifetimeServices_t3061370510_StaticFields25get__sponsorshipTimeout_3Ev
yId:__ZNK12HeaderHelper3GetERKN4core12basic_stringIcNS0_20StringStorageDefaultIcEEEE
iPf:__ZNK47MethodReturnDictionary_t2551046119_StaticFields27get_InternalExceptionKeys_7Ev
eXa:__ZN9InputAxis8TransferI14SafeBinaryReadEEvRT_
iY:__ZNK21ExecutionOrderManager30GetCustomAwakeFromLoadQueueForEPKN5Unity4TypeE
IHd:__Z27RegisterModule_UnityConnectv
fwc:__Z32Material_CUSTOM_CreateWithShaderP12Il2CppObjectS0_
jhi:__ZN16VirtFuncInvoker2IbP22BigInteger_t2902905090P12Il2CppObjectE6InvokeEjS3_S1_S3_
idc:__ZZL31RegisterRectTransformPropertiesR22GenericPropertyBindingEN32Wrapper_RectTransformSizeDeltax013GetFloatValueEPv
uNj:_MemoryStream_Expand_m3554752073
Zdo:__ZN6il2cpp2vm10Reflection27GetCustomAttributesCacheForEP25Il2CppReflectionParameter
Wnn:_WorkRequest_t1354518612_marshal_pinvoke_back
gnn:__ZNK24ObjectPool_1_t277972937635get_U3CcountAllU3Ek__BackingField_3Ev
jng:_ScriptableObject_CreateInstance_m2611081756
dJn:__ZNK27ContactFilter2D_t380520344114get_useDepth_2Ev
Xta:__ZN20TextureStreamingData7UnshareEPS_
VKe:__ZL115TouchScreenKeyboard_t731888065_CustomAttributesCacheGenerator_TouchScreenKeyboard_Open_m3609399077____keyboardType1P21CustomAttributesCache
Edh:_InternalEnumerator_1_System_Collections_IEnumerator_get_Current_m1635397542_gshared
kOj:_Path__cctor_m3273994011
_cn:_AnalyticsEventTracker__ctor_m3064238498
gVm:__ZN14Uri_t10023632420set_isAbsoluteUri_11Eb
h$o:__ZNSt11logic_errorD2Ev
uMi:_DateTimeUtils_CountRepeat_m3396693018
sCj:_DateTimeFormatInfo__cctor_m4189929746
M1c:__ZNK17Physics2DSettings22GetTypeVirtualInternalEv
B6o:_glBindRenderbuffer__wrapper
sC:__ZN10ObjectPoolIN4FMOD12ChannelGroupENS0_13ChannelGroupIEE7SetSizeEi
n3m:_SymmetricTransform_FinalDecrypt_m764004682
USc:__ZN12b2MouseJointC2EPK15b2MouseJointDef
dHj:__ZN19Guid_t_StaticFields17set__rngAccess_12EP12Il2CppObject
Vfb:__ZN9GfxDevice8OnDeleteEv
a1e:__ZL114PointerEventData_t3807901092_CustomAttributesCacheGenerator_PointerEventData_get_pointerCurrentRaycast_m2627585223P21CustomAttributesCache
eRm:_Parser_ParseGroupingConstruct_m263270497
Q_n:__ZN6il2cpp2vm13MetadataCache40AddThreadLocalStaticOffsetForFieldLockedEP9FieldInfoiRKNS_2os12FastAutoLockE
DNd:_UIBehaviour_OnDisable_m1784507360
YRe:__ZL112PlayerConnection_t3081694049_CustomAttributesCacheGenerator_PlayerConnection_MessageCallbackInternal_m1914517467P21CustomAttributesCache
TR:__Z22ValidateTlsfAllocationPvjiS_
q0g:_InternalEnumerator_1_MoveNext_m3525157932_gshared
Orh:_KeyCollection_System_Collections_Generic_ICollectionU3CTKeyU3E_Clear_m2128151776_gshared
gja:__ZN9Scripting5Unity11Collections8LowLevel6Unsafe54NativeContainerSupportsDeferredConvertListToArrayProxy12CleanupProxyEv
xFd:__ZN11UnityEngine9Analytics22EventLimitReachedEventC2EjyyRKN4core12basic_stringIcNS2_20StringStorageDefaultIcEEEEb
a1f:_Color__ctor_m2943235014_AdjustorThunk
Bgo:__ZN14dense_hash_mapI10KeyWrapperINSt3__24pairIPK9EventInfoP11Il2CppClassEEEj17ReflectionMapHashIS8_ENS9_14EqualsComparerINS1_8equal_toIS8_EEEENS1_9allocatorINS2_IKS9_jEEEEE15set_deleted_keyERSH_
n9m:__ZN18Player_t326664731215set_airSpeed_12Ef
Ajb:__Z14resize_trimmedINSt3__26vectorI17AnimationCurveTplIfE13stl_allocatorIS3_L18MemLabelIdentifier1ELi16EEEEEvRT_j
nBd:__ZN22BaseUnityConnectClient12IsNewSessionEv
frc:__Z12GUIDToStringRK9UnityGUID
YYh:__ZN34X509ExtensionCollection_t60955470814set_readOnly_1Eb
AMf:_CodeGenerator_EmitLoadTypeAssembly_m1985536832
VE:__ZN11SoundHandleC2ERKS_
Asg:_InputField_set_shouldHideMobileInput_m1650743574
xXd:__Z30Enumerator_MoveNext_m500632371P21Enumerator_t355829902PK10MethodInfo
fDj:__ZNK30DateTimeFormatInfo_t240585370122get_monthDayPattern_19Ev
spo:__ZN6il2cpp2vm9Exception30GetTypeInitializationExceptionEPKcP15Il2CppException
zrm:_List_1_Reverse_m1445355384_gshared
lvj:__ZN24StreamReader_t40099358999set_pos_4Ei
P0m:__ZNK26GUIScrollGroup_t152332902131get_needsHorizontalScrollbar_35Ev
b2b:__Z29StdTemplateConversionFunctionItxEbPvR14SafeBinaryRead
hGf:_WellKnownServiceTypeEntry_get_ObjectType_m3211195371
usn:_PCMReaderCallback_EndInvoke_m3916876196
Or:__ZNSt3__26__sortIR23DependencySortPredicatePN4core4pairIiP9BehaviourLb0EEEEEvT0_S9_T_
Ibn:_U3CWalkingU3Ec__Iterator0_MoveNext_m2322662556
NCe:__ZL65MissingMethodException_t1274661534_CustomAttributesCacheGeneratorP21CustomAttributesCache
KWf:_DSAParameters_t1885824122_marshal_pinvoke_back
sAf:__ZNK27ResourceCacheItem_t5129279118get_ResourceName_0Ev
OPk:_Kernel_MultiplyByDword_m1266935086
KIo:__ZN4utf89unchecked8utf8to16INSt3__220back_insert_iteratorINS2_12basic_stringIDsNS2_11char_traitsIDsEENS2_9allocatorIDsEEEEEEPKcEET_T0_SE_SD_
uIl:__ZN41RijndaelTransform_t631222241_StaticFields9set_T1_20EP24UInt32U5BU5D_t2770800703
JIi:_Convert_ToInt64_m3916071102
aBi:__ZN17Queue_t363752339311set__tail_3Ei
xqg:_Transform_get_worldToLocalMatrix_Injected_m3487540861
G1j:_String_Trim_m3384720403
ueg:__ZNK40PlayerEditorConnectionEvents_t341178751321get_connectionEvent_1Ev
Xya:__ZN14RenderSettings18TransferDeprecatedI14SafeBinaryReadEEvRT_
e4k:__Z93RuntimeInvoker_Single_t1397266774_SingleU26_t1922108698_Single_t1397266774_Single_t1397266774PFvvEPK10MethodInfoPvPS4_
_oo:__ZN6il2cpp2vm9Exception27RaiseNullReferenceExceptionERKNS_5utils10StringViewIDsEEP19Il2CppSequencePoint
cYm:_Event__ctor_m526447123
lsi:__ZNK19Context_t397123470724get_sentConnectionEnd_14Ev
_Ce:__ZL56RankException_t3812021567_CustomAttributesCacheGeneratorP21CustomAttributesCache
iil:__Z72RuntimeInvoker_Boolean_t97287965_CustomAttributeNamedArgument_t287865710PFvvEPK10MethodInfoPvPS4_
odj:__ZNK27NumberFormatter_t118292462119get__decPointPos_18Ev
s7k:__Z88RuntimeInvoker_RuntimeObject_RuntimeObject_RuntimeObject_RuntimeObject_Int32_t2950945753PFvvEPK10MethodInfoPvPS4_
Szm:__ZNK31InternalAsyncResult_t350428282013get__buffer_9Ev
tTk:__ZN24MACAlgorithm_t244121914815set_blockSize_3Ei
zzl:_Type_ToString_m3975981286
DS:__ZN12TLSAllocatorI14StackAllocatorE8AllocateEji
pvn:_ConsumeSampleFramesNativeFunction_BeginInvoke_m342678987
fZ:__ZN16ScriptingManager18GetMonoScriptCacheEi
Mmf:__ZN31OpCodes_t126150456_StaticFields13set_Ldfld_120E17OpCode_t123070264
MRm:_ExpressionAssertion__ctor_m2554412824
Olk:__ZNK36Dictionary_2_t132545152_StaticFields27get_U3CU3Ef__amU24cacheB_15Ev
IJk:__ZNK47MSCompatUnicodeTableUtil_t88013251_StaticFields12get_Level2_3Ev
TSa:__ZN14SafeBinaryRead8TransferI10MeshFilterEEvRT_PKc17TransferMetaFlags
Rnc:__ZNK6Camera16GetLocalSpaceAimEv
Fyk:_Enumerator_System_Collections_IEnumerator_get_Current_m2237476582_gshared
G$g:__ZN32InternalEnumerator_1_t15017294809set_idx_1Ei
Yhb:__Z18Transfer_BlittableI14SafeBinaryReadLb1EyEvRK29SerializationCommandArgumentsR31RuntimeSerializationCommandInfo
$Yh:__ZN25X509Extension_t317339365218set_extnCritical_1Eb
LUi:__ZNK26ListDictionary_t162449231010get_head_2Ev
Rzc:__Z41Texture2DArray_CUSTOM_Internal_CreateImplP12Il2CppObjectiii14GraphicsFormat20TextureCreationFlags
nmj:_NullReferenceException__ctor_m3076065613
EHc:__ZN8JSONRead8TransferIfEEvRT_PKc17TransferMetaFlagsb
qBg:_LayoutGroup_OnDisable_m3483954898
